ARM GAS  C:\Users\ukul426\AppData\Local\Temp\ccYo1Cf0.s 			page 1


   1              		.syntax unified
   2              		.cpu cortex-m3
   3              		.fpu softvfp
   4              		.eabi_attribute 20, 1
   5              		.eabi_attribute 21, 1
   6              		.eabi_attribute 23, 3
   7              		.eabi_attribute 24, 1
   8              		.eabi_attribute 25, 1
   9              		.eabi_attribute 26, 1
  10              		.eabi_attribute 30, 1
  11              		.eabi_attribute 34, 1
  12              		.eabi_attribute 18, 4
  13              		.thumb
  14              		.syntax unified
  15              		.file	"functions.c"
  16              		.text
  17              	.Ltext0:
  18              		.cfi_sections	.debug_frame
  19              		.section	.text.getCurrentDirection,"ax",%progbits
  20              		.align	2
  21              		.global	getCurrentDirection
  22              		.thumb
  23              		.thumb_func
  24              		.type	getCurrentDirection, %function
  25              	getCurrentDirection:
  26              	.LFB64:
  27              		.file 1 "functions.c"
   1:functions.c   **** 
   2:functions.c   **** #include "program.h"
   3:functions.c   **** 
   4:functions.c   **** Movement movementArray[25];
   5:functions.c   **** RobotDirection robot_direction;
   6:functions.c   **** 
   7:functions.c   **** 
   8:functions.c   **** // Define the grid map with obstacles (1) and open cells (0)
   9:functions.c   **** int map[ROWS][COLS] = {
  10:functions.c   ****     {1,1,1,1,1,1,1,1,1,1,1,1,1,1,1,1,1,1,1},
  11:functions.c   ****     {1,0,1,0,0,0,0,0,0,0,0,0,0,0,0,0,0,0,1},
  12:functions.c   ****     {1,0,1,0,1,1,1,1,1,0,1,1,1,0,1,1,1,0,1},
  13:functions.c   ****     {1,0,0,0,1,0,0,0,1,0,0,0,0,0,0,0,1,0,1},
  14:functions.c   ****     {1,1,1,0,1,0,1,0,1,1,1,0,1,0,1,1,1,0,1},
  15:functions.c   ****     {1,0,0,0,1,0,1,0,0,0,1,0,1,0,0,0,0,0,1},
  16:functions.c   ****     {1,0,1,1,1,0,1,0,1,0,1,0,1,0,1,1,1,0,1},
  17:functions.c   ****     {1,0,1,0,1,0,0,0,1,0,1,0,1,0,1,0,0,0,1},
  18:functions.c   ****     {1,0,1,0,1,0,1,1,1,0,1,0,1,0,1,0,1,1,1},
  19:functions.c   ****     {1,0,0,0,1,0,1,0,0,0,1,0,0,0,1,0,0,0,1},
  20:functions.c   ****     {1,1,1,0,1,0,1,1,1,1,1,1,1,1,1,1,1,0,1},
  21:functions.c   ****     {1,0,0,0,0,0,0,0,0,0,0,0,0,0,0,0,0,0,1},
  22:functions.c   ****     {1,0,1,1,1,1,1,1,1,1,1,1,1,0,1,1,1,1,1},
  23:functions.c   ****     {1,0,0,0,0,0,0,0,1,0,0,0,0,0,0,0,0,0,1},
  24:functions.c   ****     {1,1,1,1,1,1,1,1,1,1,1,1,1,1,1,1,1,1,1},
  25:functions.c   **** };
  26:functions.c   **** 
  27:functions.c   **** // Structure to represent a node in the grid
  28:functions.c   **** typedef struct {
  29:functions.c   ****     int x, y;
  30:functions.c   **** } Node;
ARM GAS  C:\Users\ukul426\AppData\Local\Temp\ccYo1Cf0.s 			page 2


  31:functions.c   **** 
  32:functions.c   **** // Structure to represent a cell in the grid
  33:functions.c   **** typedef struct {
  34:functions.c   ****     int cost;
  35:functions.c   ****     Node parent;
  36:functions.c   **** } Cell;
  37:functions.c   **** 
  38:functions.c   **** // Initialize the path length
  39:functions.c   **** int pathLength = 0;
  40:functions.c   **** 
  41:functions.c   **** // Trace the path from target to start
  42:functions.c   **** Node path[ROWS * COLS];
  43:functions.c   **** 
  44:functions.c   **** RobotDirection getCurrentDirection(){
  28              		.loc 1 44 0
  29              		.cfi_startproc
  30              		@ args = 0, pretend = 0, frame = 0
  31              		@ frame_needed = 0, uses_anonymous_args = 0
  32              		@ link register save eliminated.
  45:functions.c   ****     return robot_direction;
  46:functions.c   **** }
  33              		.loc 1 46 0
  34 0000 014B     		ldr	r3, .L2
  35 0002 1878     		ldrb	r0, [r3]	@ zero_extendqisi2
  36 0004 7047     		bx	lr
  37              	.L3:
  38 0006 00BF     		.align	2
  39              	.L2:
  40 0008 00000000 		.word	robot_direction
  41              		.cfi_endproc
  42              	.LFE64:
  43              		.size	getCurrentDirection, .-getCurrentDirection
  44              		.section	.text.isValidCell,"ax",%progbits
  45              		.align	2
  46              		.global	isValidCell
  47              		.thumb
  48              		.thumb_func
  49              		.type	isValidCell, %function
  50              	isValidCell:
  51              	.LFB65:
  47:functions.c   **** 
  48:functions.c   **** // Function to check if a cell is within the map boundaries
  49:functions.c   **** bool isValidCell(int x, int y) {
  52              		.loc 1 49 0
  53              		.cfi_startproc
  54              		@ args = 0, pretend = 0, frame = 0
  55              		@ frame_needed = 0, uses_anonymous_args = 0
  56              		@ link register save eliminated.
  57              	.LVL0:
  50:functions.c   ****     return (x >= 0 && x < ROWS && y >= 0 && y < COLS);
  58              		.loc 1 50 0
  59 0000 0E28     		cmp	r0, #14
  60 0002 05D8     		bhi	.L6
  61              		.loc 1 50 0 is_stmt 0 discriminator 1
  62 0004 0029     		cmp	r1, #0
  63 0006 05DB     		blt	.L7
  64              		.loc 1 50 0 discriminator 3
ARM GAS  C:\Users\ukul426\AppData\Local\Temp\ccYo1Cf0.s 			page 3


  65 0008 1229     		cmp	r1, #18
  66 000a 05DD     		ble	.L8
  67              		.loc 1 50 0
  68 000c 0020     		movs	r0, #0
  69              	.LVL1:
  70 000e 7047     		bx	lr
  71              	.LVL2:
  72              	.L6:
  73 0010 0020     		movs	r0, #0
  74              	.LVL3:
  75 0012 7047     		bx	lr
  76              	.LVL4:
  77              	.L7:
  78 0014 0020     		movs	r0, #0
  79              	.LVL5:
  80 0016 7047     		bx	lr
  81              	.LVL6:
  82              	.L8:
  83 0018 0120     		movs	r0, #1
  84              	.LVL7:
  51:functions.c   **** }
  85              		.loc 1 51 0 is_stmt 1
  86 001a 7047     		bx	lr
  87              		.cfi_endproc
  88              	.LFE65:
  89              		.size	isValidCell, .-isValidCell
  90              		.section	.text.dijkstra,"ax",%progbits
  91              		.align	2
  92              		.global	dijkstra
  93              		.thumb
  94              		.thumb_func
  95              		.type	dijkstra, %function
  96              	dijkstra:
  97              	.LFB66:
  52:functions.c   **** 
  53:functions.c   **** // Function to find the shortest path using Dijkstra's algorithm
  54:functions.c   **** void dijkstra(int startX, int startY, int targetX, int targetY) {
  98              		.loc 1 54 0
  99              		.cfi_startproc
 100              		@ args = 0, pretend = 0, frame = 5760
 101              		@ frame_needed = 0, uses_anonymous_args = 0
 102              	.LVL8:
 103 0000 2DE9F04F 		push	{r4, r5, r6, r7, r8, r9, r10, fp, lr}
 104              		.cfi_def_cfa_offset 36
 105              		.cfi_offset 4, -36
 106              		.cfi_offset 5, -32
 107              		.cfi_offset 6, -28
 108              		.cfi_offset 7, -24
 109              		.cfi_offset 8, -20
 110              		.cfi_offset 9, -16
 111              		.cfi_offset 10, -12
 112              		.cfi_offset 11, -8
 113              		.cfi_offset 14, -4
 114 0004 ADF5B45D 		sub	sp, sp, #5760
 115              		.cfi_def_cfa_offset 5796
 116 0008 81B0     		sub	sp, sp, #4
 117              		.cfi_def_cfa_offset 5800
ARM GAS  C:\Users\ukul426\AppData\Local\Temp\ccYo1Cf0.s 			page 4


 118 000a 8146     		mov	r9, r0
 119 000c 8B46     		mov	fp, r1
 120 000e 9246     		mov	r10, r2
 121 0010 0193     		str	r3, [sp, #4]
 122              	.LVL9:
 123              	.LBB2:
  55:functions.c   ****     // Create an array to store visited status and cell information
  56:functions.c   ****     Cell grid[ROWS][COLS];
  57:functions.c   **** 
  58:functions.c   ****     // Initialize all cells with maximum cost and invalid parent
  59:functions.c   ****     for (int i = 0; i < ROWS; i++) {
 124              		.loc 1 59 0
 125 0012 0025     		movs	r5, #0
 126 0014 16E0     		b	.L10
 127              	.LVL10:
 128              	.L11:
 129              	.LBB3:
  60:functions.c   ****         for (int j = 0; j < COLS; j++) {
  61:functions.c   ****             grid[i][j].cost = INT_MAX;
 130              		.loc 1 61 0 discriminator 3
 131 0016 0DF62410 		addw	r0, sp, #2340
 132 001a 02EB4201 		add	r1, r2, r2, lsl #1
 133 001e E423     		movs	r3, #228
 134 0020 03FB05F3 		mul	r3, r3, r5
 135 0024 03EB8103 		add	r3, r3, r1, lsl #2
 136 0028 C118     		adds	r1, r0, r3
 137 002a 6FF00044 		mvn	r4, #-2147483648
 138 002e C450     		str	r4, [r0, r3]
  62:functions.c   ****             grid[i][j].parent.x = -1;
 139              		.loc 1 62 0 discriminator 3
 140 0030 4FF0FF33 		mov	r3, #-1
 141 0034 4B60     		str	r3, [r1, #4]
  63:functions.c   ****             grid[i][j].parent.y = -1;
 142              		.loc 1 63 0 discriminator 3
 143 0036 8B60     		str	r3, [r1, #8]
  60:functions.c   ****         for (int j = 0; j < COLS; j++) {
 144              		.loc 1 60 0 discriminator 3
 145 0038 0132     		adds	r2, r2, #1
 146              	.LVL11:
 147 003a 00E0     		b	.L12
 148              	.LVL12:
 149              	.L26:
 150              	.LBE3:
 151 003c 0022     		movs	r2, #0
 152              	.L12:
 153              	.LVL13:
 154              	.LBB4:
  60:functions.c   ****         for (int j = 0; j < COLS; j++) {
 155              		.loc 1 60 0 is_stmt 0 discriminator 1
 156 003e 122A     		cmp	r2, #18
 157 0040 E9DD     		ble	.L11
 158              	.LBE4:
  59:functions.c   ****         for (int j = 0; j < COLS; j++) {
 159              		.loc 1 59 0 is_stmt 1 discriminator 2
 160 0042 0135     		adds	r5, r5, #1
 161              	.LVL14:
 162              	.L10:
ARM GAS  C:\Users\ukul426\AppData\Local\Temp\ccYo1Cf0.s 			page 5


  59:functions.c   ****         for (int j = 0; j < COLS; j++) {
 163              		.loc 1 59 0 is_stmt 0 discriminator 1
 164 0044 0E2D     		cmp	r5, #14
 165 0046 F9DD     		ble	.L26
 166              	.LBE2:
  64:functions.c   ****         }
  65:functions.c   ****     }
  66:functions.c   **** 
  67:functions.c   ****     // Initialize the starting cell
  68:functions.c   ****     grid[startX][startY].cost = 0;
 167              		.loc 1 68 0 is_stmt 1
 168 0048 0BEB4B02 		add	r2, fp, fp, lsl #1
 169 004c E423     		movs	r3, #228
 170 004e 03FB09F3 		mul	r3, r3, r9
 171 0052 03EB8203 		add	r3, r3, r2, lsl #2
 172 0056 0021     		movs	r1, #0
 173 0058 0DF62412 		addw	r2, sp, #2340
 174 005c D150     		str	r1, [r2, r3]
  69:functions.c   ****     Node currentNode = {startX, startY};
 175              		.loc 1 69 0
 176 005e CDF81C99 		str	r9, [sp, #2332]
 177 0062 CDF820B9 		str	fp, [sp, #2336]
  70:functions.c   **** 
  71:functions.c   ****    
  72:functions.c   ****     // Create an array to store possible movement directions
  73:functions.c   ****     int dx[] = {1, -1, 0, 0};
 178              		.loc 1 73 0
 179 0066 0DF60C15 		addw	r5, sp, #2316
 180              	.LVL15:
 181 006a 674C     		ldr	r4, .L29
 182 006c 94E80F00 		ldmia	r4, {r0, r1, r2, r3}
 183 0070 85E80F00 		stmia	r5, {r0, r1, r2, r3}
  74:functions.c   ****     int dy[] = {0, 0, 1, -1};
 184              		.loc 1 74 0
 185 0074 0DF6FC05 		addw	r5, sp, #2300
 186 0078 1034     		adds	r4, r4, #16
 187 007a 94E80F00 		ldmia	r4, {r0, r1, r2, r3}
 188 007e 85E80F00 		stmia	r5, {r0, r1, r2, r3}
  75:functions.c   **** 
  76:functions.c   ****     // Main loop
  77:functions.c   ****     while (currentNode.x != targetX || currentNode.y != targetY) {
 189              		.loc 1 77 0
 190 0082 6EE0     		b	.L13
 191              	.L21:
 192              	.LVL16:
 193              	.LBB5:
  78:functions.c   ****         // Mark the current cell as visited
  79:functions.c   ****         int x = currentNode.x;
  80:functions.c   ****         int y = currentNode.y;
 194              		.loc 1 80 0
 195 0084 DDF82079 		ldr	r7, [sp, #2336]
 196              	.LVL17:
  81:functions.c   ****         grid[x][y].cost = -1;
 197              		.loc 1 81 0
 198 0088 07EB4702 		add	r2, r7, r7, lsl #1
 199 008c E423     		movs	r3, #228
 200 008e 03FB08F3 		mul	r3, r3, r8
ARM GAS  C:\Users\ukul426\AppData\Local\Temp\ccYo1Cf0.s 			page 6


 201 0092 03EB8203 		add	r3, r3, r2, lsl #2
 202 0096 4FF0FF31 		mov	r1, #-1
 203 009a 0DF62412 		addw	r2, sp, #2340
 204 009e D150     		str	r1, [r2, r3]
 205              	.LVL18:
 206              	.LBB6:
  82:functions.c   **** 
  83:functions.c   ****         // Check neighbors
  84:functions.c   ****         for (int i = 0; i < 4; i++) {
 207              		.loc 1 84 0
 208 00a0 0025     		movs	r5, #0
 209 00a2 3CE0     		b	.L14
 210              	.LVL19:
 211              	.L16:
 212              	.LBB7:
  85:functions.c   ****             int newX = x + dx[i];
 213              		.loc 1 85 0
 214 00a4 0DF60C13 		addw	r3, sp, #2316
 215 00a8 53F82540 		ldr	r4, [r3, r5, lsl #2]
 216 00ac 4444     		add	r4, r4, r8
 217              	.LVL20:
  86:functions.c   ****             int newY = y + dy[i];
 218              		.loc 1 86 0
 219 00ae 0DF6FC03 		addw	r3, sp, #2300
 220 00b2 53F82560 		ldr	r6, [r3, r5, lsl #2]
 221 00b6 3E44     		add	r6, r6, r7
 222              	.LVL21:
  87:functions.c   **** 
  88:functions.c   ****             if (isValidCell(newX, newY) && map[newX][newY] == 0) {
 223              		.loc 1 88 0
 224 00b8 3146     		mov	r1, r6
 225 00ba 2046     		mov	r0, r4
 226 00bc FFF7FEFF 		bl	isValidCell
 227              	.LVL22:
 228 00c0 60B3     		cbz	r0, .L15
 229              		.loc 1 88 0 is_stmt 0 discriminator 1
 230 00c2 04EBC403 		add	r3, r4, r4, lsl #3
 231 00c6 04EB4303 		add	r3, r4, r3, lsl #1
 232 00ca 3344     		add	r3, r3, r6
 233 00cc 4F4A     		ldr	r2, .L29+4
 234 00ce 52F82330 		ldr	r3, [r2, r3, lsl #2]
 235 00d2 1BBB     		cbnz	r3, .L15
 236              	.LBB8:
  89:functions.c   ****                 int newCost = grid[x][y].cost + 1;
 237              		.loc 1 89 0 is_stmt 1
 238 00d4 0DF62410 		addw	r0, sp, #2340
 239 00d8 07EB4702 		add	r2, r7, r7, lsl #1
 240 00dc E423     		movs	r3, #228
 241 00de 03FB08F1 		mul	r1, r3, r8
 242 00e2 01EB8202 		add	r2, r1, r2, lsl #2
 243 00e6 8258     		ldr	r2, [r0, r2]
 244 00e8 0132     		adds	r2, r2, #1
 245              	.LVL23:
  90:functions.c   ****                 if (newCost < grid[newX][newY].cost) {
 246              		.loc 1 90 0
 247 00ea 06EB4601 		add	r1, r6, r6, lsl #1
 248 00ee 03FB04F3 		mul	r3, r3, r4
ARM GAS  C:\Users\ukul426\AppData\Local\Temp\ccYo1Cf0.s 			page 7


 249 00f2 03EB8103 		add	r3, r3, r1, lsl #2
 250 00f6 C358     		ldr	r3, [r0, r3]
 251 00f8 9A42     		cmp	r2, r3
 252 00fa 0FDA     		bge	.L15
  91:functions.c   ****                     grid[newX][newY].cost = newCost;
 253              		.loc 1 91 0
 254 00fc 0346     		mov	r3, r0
 255 00fe 7000     		lsls	r0, r6, #1
 256 0100 8119     		adds	r1, r0, r6
 257 0102 4FF0E40E 		mov	lr, #228
 258 0106 0EFB04F4 		mul	r4, lr, r4
 259              	.LVL24:
 260 010a 04EB8101 		add	r1, r4, r1, lsl #2
 261 010e 03EB010E 		add	lr, r3, r1
 262 0112 5A50     		str	r2, [r3, r1]
  92:functions.c   ****                     grid[newX][newY].parent.x = x;
 263              		.loc 1 92 0
 264 0114 CEF80480 		str	r8, [lr, #4]
  93:functions.c   ****                     grid[newX][newY].parent.y = y;
 265              		.loc 1 93 0
 266 0118 CEF80870 		str	r7, [lr, #8]
 267              	.LVL25:
 268              	.L15:
 269              	.LBE8:
 270              	.LBE7:
  84:functions.c   ****             int newX = x + dx[i];
 271              		.loc 1 84 0 discriminator 2
 272 011c 0135     		adds	r5, r5, #1
 273              	.LVL26:
 274              	.L14:
  84:functions.c   ****             int newX = x + dx[i];
 275              		.loc 1 84 0 is_stmt 0 discriminator 1
 276 011e 032D     		cmp	r5, #3
 277 0120 C0DD     		ble	.L16
 278 0122 0020     		movs	r0, #0
 279 0124 6FF00044 		mvn	r4, #-2147483648
 280 0128 19E0     		b	.L17
 281              	.LVL27:
 282              	.L19:
 283              	.LBE6:
 284              	.LBB9:
 285              	.LBB10:
  94:functions.c   ****                 }
  95:functions.c   ****             }
  96:functions.c   ****         }
  97:functions.c   **** 
  98:functions.c   ****         // Find the next unvisited cell with the lowest cost
  99:functions.c   ****         int minCost = INT_MAX;
 100:functions.c   ****         for (int i = 0; i < ROWS; i++) {
 101:functions.c   ****             for (int j = 0; j < COLS; j++) {
 102:functions.c   ****                 if (grid[i][j].cost != -1 && grid[i][j].cost < minCost) {
 286              		.loc 1 102 0 is_stmt 1
 287 012a 01EB4103 		add	r3, r1, r1, lsl #1
 288 012e E422     		movs	r2, #228
 289 0130 02FB00F2 		mul	r2, r2, r0
 290 0134 02EB8303 		add	r3, r2, r3, lsl #2
 291 0138 0DF62412 		addw	r2, sp, #2340
ARM GAS  C:\Users\ukul426\AppData\Local\Temp\ccYo1Cf0.s 			page 8


 292 013c D358     		ldr	r3, [r2, r3]
 293 013e B3F1FF3F 		cmp	r3, #-1
 294 0142 06D0     		beq	.L18
 295              		.loc 1 102 0 is_stmt 0 discriminator 1
 296 0144 9C42     		cmp	r4, r3
 297 0146 04DD     		ble	.L18
 298              	.LVL28:
 103:functions.c   ****                     minCost = grid[i][j].cost;
 104:functions.c   ****                     currentNode.x = i;
 299              		.loc 1 104 0 is_stmt 1
 300 0148 CDF81C09 		str	r0, [sp, #2332]
 105:functions.c   ****                     currentNode.y = j;
 301              		.loc 1 105 0
 302 014c CDF82019 		str	r1, [sp, #2336]
 103:functions.c   ****                     minCost = grid[i][j].cost;
 303              		.loc 1 103 0
 304 0150 1C46     		mov	r4, r3
 305              	.LVL29:
 306              	.L18:
 101:functions.c   ****                 if (grid[i][j].cost != -1 && grid[i][j].cost < minCost) {
 307              		.loc 1 101 0 discriminator 2
 308 0152 0131     		adds	r1, r1, #1
 309              	.LVL30:
 310 0154 00E0     		b	.L20
 311              	.LVL31:
 312              	.L27:
 313              	.LBE10:
 314 0156 0021     		movs	r1, #0
 315              	.L20:
 316              	.LVL32:
 317              	.LBB11:
 101:functions.c   ****                 if (grid[i][j].cost != -1 && grid[i][j].cost < minCost) {
 318              		.loc 1 101 0 is_stmt 0 discriminator 1
 319 0158 1229     		cmp	r1, #18
 320 015a E6DD     		ble	.L19
 321              	.LBE11:
 100:functions.c   ****             for (int j = 0; j < COLS; j++) {
 322              		.loc 1 100 0 is_stmt 1 discriminator 2
 323 015c 0130     		adds	r0, r0, #1
 324              	.LVL33:
 325              	.L17:
 100:functions.c   ****             for (int j = 0; j < COLS; j++) {
 326              		.loc 1 100 0 is_stmt 0 discriminator 1
 327 015e 0E28     		cmp	r0, #14
 328 0160 F9DD     		ble	.L27
 329              	.LVL34:
 330              	.L13:
 331              	.LBE9:
 332              	.LBE5:
  77:functions.c   ****         // Mark the current cell as visited
 333              		.loc 1 77 0 is_stmt 1
 334 0162 DDF81C89 		ldr	r8, [sp, #2332]
 335 0166 D045     		cmp	r8, r10
 336 0168 8CD1     		bne	.L21
  77:functions.c   ****         // Mark the current cell as visited
 337              		.loc 1 77 0 is_stmt 0 discriminator 1
 338 016a DDF82039 		ldr	r3, [sp, #2336]
ARM GAS  C:\Users\ukul426\AppData\Local\Temp\ccYo1Cf0.s 			page 9


 339 016e 019A     		ldr	r2, [sp, #4]
 340 0170 9342     		cmp	r3, r2
 341 0172 87D1     		bne	.L21
 106:functions.c   ****                 }
 107:functions.c   ****             }
 108:functions.c   ****         }
 109:functions.c   ****     }
 110:functions.c   ****     // Store the path in a temporary array
 111:functions.c   ****     // Store the starting point in the path
 112:functions.c   ****     pathLength=0;
 113:functions.c   ****     Node tempPath[ROWS * COLS];
 114:functions.c   ****     tempPath[pathLength++] = currentNode;
 342              		.loc 1 114 0 is_stmt 1
 343 0174 0122     		movs	r2, #1
 344 0176 264B     		ldr	r3, .L29+8
 345 0178 1A60     		str	r2, [r3]
 346 017a 05AB     		add	r3, sp, #20
 347 017c 0DF61C12 		addw	r2, sp, #2332
 348 0180 92E80300 		ldmia	r2, {r0, r1}
 349 0184 83E80300 		stmia	r3, {r0, r1}
 115:functions.c   ****     // Trace the path from target to start
 116:functions.c   ****     Node current = {targetX, targetY};
 350              		.loc 1 116 0
 351 0188 CDF80CA0 		str	r10, [sp, #12]
 352 018c 019B     		ldr	r3, [sp, #4]
 353 018e 0493     		str	r3, [sp, #16]
 117:functions.c   ****     while (current.x != startX || current.y != startY) {
 354              		.loc 1 117 0
 355 0190 1AE0     		b	.L22
 356              	.L23:
 118:functions.c   ****         tempPath[pathLength++] = current;
 357              		.loc 1 118 0
 358 0192 1F49     		ldr	r1, .L29+8
 359 0194 0A68     		ldr	r2, [r1]
 360 0196 501C     		adds	r0, r2, #1
 361 0198 0860     		str	r0, [r1]
 362 019a 03AC     		add	r4, sp, #12
 363 019c 05A9     		add	r1, sp, #20
 364 019e 01EBC202 		add	r2, r1, r2, lsl #3
 365 01a2 94E80300 		ldmia	r4, {r0, r1}
 366 01a6 82E80300 		stmia	r2, {r0, r1}
 119:functions.c   ****         current = grid[current.x][current.y].parent;// Move to the parent cell
 367              		.loc 1 119 0
 368 01aa 01EB4101 		add	r1, r1, r1, lsl #1
 369 01ae E422     		movs	r2, #228
 370 01b0 02FB03F3 		mul	r3, r2, r3
 371 01b4 03EB8103 		add	r3, r3, r1, lsl #2
 372 01b8 0DF62412 		addw	r2, sp, #2340
 373 01bc 1344     		add	r3, r3, r2
 374 01be 0433     		adds	r3, r3, #4
 375 01c0 93E80300 		ldmia	r3, {r0, r1}
 376 01c4 84E80300 		stmia	r4, {r0, r1}
 377              	.L22:
 117:functions.c   ****     while (current.x != startX || current.y != startY) {
 378              		.loc 1 117 0
 379 01c8 039B     		ldr	r3, [sp, #12]
 380 01ca 9945     		cmp	r9, r3
ARM GAS  C:\Users\ukul426\AppData\Local\Temp\ccYo1Cf0.s 			page 10


 381 01cc E1D1     		bne	.L23
 117:functions.c   ****     while (current.x != startX || current.y != startY) {
 382              		.loc 1 117 0 is_stmt 0 discriminator 1
 383 01ce 049A     		ldr	r2, [sp, #16]
 384 01d0 9345     		cmp	fp, r2
 385 01d2 DED1     		bne	.L23
 386              	.LBB12:
 120:functions.c   ****     }
 121:functions.c   ****    
 122:functions.c   **** 
 123:functions.c   ****    
 124:functions.c   **** 
 125:functions.c   ****     // Reverse the path and store it in pathCoordinates
 126:functions.c   ****     for (int j = pathLength - 1, k = 0; j >= 0; j--, k++) {
 387              		.loc 1 126 0 is_stmt 1
 388 01d4 0E4B     		ldr	r3, .L29+8
 389 01d6 1B68     		ldr	r3, [r3]
 390 01d8 013B     		subs	r3, r3, #1
 391              	.LVL35:
 392 01da 0020     		movs	r0, #0
 393 01dc 0DE0     		b	.L24
 394              	.LVL36:
 395              	.L25:
 127:functions.c   ****         path[k].x = tempPath[j].x;
 396              		.loc 1 127 0 discriminator 3
 397 01de 05A9     		add	r1, sp, #20
 398 01e0 51F83340 		ldr	r4, [r1, r3, lsl #3]
 399 01e4 0B4A     		ldr	r2, .L29+12
 400 01e6 42F83040 		str	r4, [r2, r0, lsl #3]
 128:functions.c   ****         path[k].y = tempPath[j].y;
 401              		.loc 1 128 0 discriminator 3
 402 01ea 01EBC301 		add	r1, r1, r3, lsl #3
 403 01ee 4968     		ldr	r1, [r1, #4]
 404 01f0 02EBC002 		add	r2, r2, r0, lsl #3
 405 01f4 5160     		str	r1, [r2, #4]
 126:functions.c   ****         path[k].x = tempPath[j].x;
 406              		.loc 1 126 0 discriminator 3
 407 01f6 013B     		subs	r3, r3, #1
 408              	.LVL37:
 409 01f8 0130     		adds	r0, r0, #1
 410              	.LVL38:
 411              	.L24:
 126:functions.c   ****         path[k].x = tempPath[j].x;
 412              		.loc 1 126 0 is_stmt 0 discriminator 1
 413 01fa 002B     		cmp	r3, #0
 414 01fc EFDA     		bge	.L25
 415              	.LBE12:
 129:functions.c   ****     }
 130:functions.c   ****    
 131:functions.c   **** 
 132:functions.c   **** }
 416              		.loc 1 132 0 is_stmt 1
 417 01fe 0DF5B45D 		add	sp, sp, #5760
 418 0202 01B0     		add	sp, sp, #4
 419              		.cfi_def_cfa_offset 36
 420              		@ sp needed
 421 0204 BDE8F08F 		pop	{r4, r5, r6, r7, r8, r9, r10, fp, pc}
ARM GAS  C:\Users\ukul426\AppData\Local\Temp\ccYo1Cf0.s 			page 11


 422              	.LVL39:
 423              	.L30:
 424              		.align	2
 425              	.L29:
 426 0208 00000000 		.word	.LANCHOR0
 427 020c 00000000 		.word	.LANCHOR1
 428 0210 00000000 		.word	.LANCHOR2
 429 0214 00000000 		.word	path
 430              		.cfi_endproc
 431              	.LFE66:
 432              		.size	dijkstra, .-dijkstra
 433              		.global	__aeabi_i2d
 434              		.global	__aeabi_dmul
 435              		.global	__aeabi_d2iz
 436              		.section	.text.getDistance_H,"ax",%progbits
 437              		.align	2
 438              		.global	getDistance_H
 439              		.thumb
 440              		.thumb_func
 441              		.type	getDistance_H, %function
 442              	getDistance_H:
 443              	.LFB67:
 133:functions.c   **** 
 134:functions.c   **** 
 135:functions.c   **** int getDistance_H(int stepCount){
 444              		.loc 1 135 0
 445              		.cfi_startproc
 446              		@ args = 0, pretend = 0, frame = 0
 447              		@ frame_needed = 0, uses_anonymous_args = 0
 448              	.LVL40:
 449 0000 08B5     		push	{r3, lr}
 450              		.cfi_def_cfa_offset 8
 451              		.cfi_offset 3, -8
 452              		.cfi_offset 14, -4
 136:functions.c   ****     if(stepCount>10){
 453              		.loc 1 136 0
 454 0002 0A28     		cmp	r0, #10
 455 0004 09DD     		ble	.L32
 137:functions.c   ****         return stepCount*11.8;
 456              		.loc 1 137 0
 457 0006 FFF7FEFF 		bl	__aeabi_i2d
 458              	.LVL41:
 459 000a 1DA3     		adr	r3, .L39
 460 000c D3E90023 		ldrd	r2, [r3]
 461 0010 FFF7FEFF 		bl	__aeabi_dmul
 462              	.LVL42:
 463 0014 FFF7FEFF 		bl	__aeabi_d2iz
 464              	.LVL43:
 465 0018 08BD     		pop	{r3, pc}
 466              	.LVL44:
 467              	.L32:
 138:functions.c   ****     }else if(stepCount>8){
 468              		.loc 1 138 0
 469 001a 0828     		cmp	r0, #8
 470 001c 08DD     		ble	.L34
 139:functions.c   ****         return stepCount*11.5;
 471              		.loc 1 139 0
ARM GAS  C:\Users\ukul426\AppData\Local\Temp\ccYo1Cf0.s 			page 12


 472 001e FFF7FEFF 		bl	__aeabi_i2d
 473              	.LVL45:
 474 0022 0022     		movs	r2, #0
 475 0024 1C4B     		ldr	r3, .L39+24
 476 0026 FFF7FEFF 		bl	__aeabi_dmul
 477              	.LVL46:
 478 002a FFF7FEFF 		bl	__aeabi_d2iz
 479              	.LVL47:
 480 002e 08BD     		pop	{r3, pc}
 481              	.LVL48:
 482              	.L34:
 140:functions.c   ****     }else if(stepCount>6){
 483              		.loc 1 140 0
 484 0030 0628     		cmp	r0, #6
 485 0032 09DD     		ble	.L35
 141:functions.c   ****         return stepCount*10.9;
 486              		.loc 1 141 0
 487 0034 FFF7FEFF 		bl	__aeabi_i2d
 488              	.LVL49:
 489 0038 13A3     		adr	r3, .L39+8
 490 003a D3E90023 		ldrd	r2, [r3]
 491 003e FFF7FEFF 		bl	__aeabi_dmul
 492              	.LVL50:
 493 0042 FFF7FEFF 		bl	__aeabi_d2iz
 494              	.LVL51:
 495 0046 08BD     		pop	{r3, pc}
 496              	.LVL52:
 497              	.L35:
 142:functions.c   ****     }else if(stepCount>4){
 498              		.loc 1 142 0
 499 0048 0428     		cmp	r0, #4
 500 004a 09DD     		ble	.L36
 143:functions.c   ****         return stepCount*10.3;
 501              		.loc 1 143 0
 502 004c FFF7FEFF 		bl	__aeabi_i2d
 503              	.LVL53:
 504 0050 0FA3     		adr	r3, .L39+16
 505 0052 D3E90023 		ldrd	r2, [r3]
 506 0056 FFF7FEFF 		bl	__aeabi_dmul
 507              	.LVL54:
 508 005a FFF7FEFF 		bl	__aeabi_d2iz
 509              	.LVL55:
 510 005e 08BD     		pop	{r3, pc}
 511              	.LVL56:
 512              	.L36:
 144:functions.c   ****     }else if(stepCount>2){
 513              		.loc 1 144 0
 514 0060 0228     		cmp	r0, #2
 515 0062 01DD     		ble	.L37
 145:functions.c   ****         return stepCount*8;
 516              		.loc 1 145 0
 517 0064 C000     		lsls	r0, r0, #3
 518              	.LVL57:
 519 0066 08BD     		pop	{r3, pc}
 520              	.LVL58:
 521              	.L37:
 146:functions.c   ****     }else{
ARM GAS  C:\Users\ukul426\AppData\Local\Temp\ccYo1Cf0.s 			page 13


 147:functions.c   ****         return stepCount*7.5;
 522              		.loc 1 147 0
 523 0068 FFF7FEFF 		bl	__aeabi_i2d
 524              	.LVL59:
 525 006c 0022     		movs	r2, #0
 526 006e 0B4B     		ldr	r3, .L39+28
 527 0070 FFF7FEFF 		bl	__aeabi_dmul
 528              	.LVL60:
 529 0074 FFF7FEFF 		bl	__aeabi_d2iz
 530              	.LVL61:
 148:functions.c   ****     }
 149:functions.c   ****         
 150:functions.c   ****     
 151:functions.c   **** }
 531              		.loc 1 151 0
 532 0078 08BD     		pop	{r3, pc}
 533              	.L40:
 534 007a 00BFAFF3 		.align	3
 534      0080
 535              	.L39:
 536 0080 9A999999 		.word	-1717986918
 537 0084 99992740 		.word	1076337049
 538 0088 CDCCCCCC 		.word	-858993459
 539 008c CCCC2540 		.word	1076219084
 540 0090 9A999999 		.word	-1717986918
 541 0094 99992440 		.word	1076140441
 542 0098 00002740 		.word	1076297728
 543 009c 00001E40 		.word	1075707904
 544              		.cfi_endproc
 545              	.LFE67:
 546              		.size	getDistance_H, .-getDistance_H
 547              		.section	.text.getDistance_V,"ax",%progbits
 548              		.align	2
 549              		.global	getDistance_V
 550              		.thumb
 551              		.thumb_func
 552              		.type	getDistance_V, %function
 553              	getDistance_V:
 554              	.LFB68:
 152:functions.c   **** 
 153:functions.c   **** 
 154:functions.c   **** int getDistance_V(int stepCount){
 555              		.loc 1 154 0
 556              		.cfi_startproc
 557              		@ args = 0, pretend = 0, frame = 0
 558              		@ frame_needed = 0, uses_anonymous_args = 0
 559              	.LVL62:
 560 0000 08B5     		push	{r3, lr}
 561              		.cfi_def_cfa_offset 8
 562              		.cfi_offset 3, -8
 563              		.cfi_offset 14, -4
 155:functions.c   ****      if(stepCount>10){
 564              		.loc 1 155 0
 565 0002 0A28     		cmp	r0, #10
 566 0004 09DD     		ble	.L42
 156:functions.c   ****         return stepCount*8.9;
 567              		.loc 1 156 0
ARM GAS  C:\Users\ukul426\AppData\Local\Temp\ccYo1Cf0.s 			page 14


 568 0006 FFF7FEFF 		bl	__aeabi_i2d
 569              	.LVL63:
 570 000a 17A3     		adr	r3, .L49
 571 000c D3E90023 		ldrd	r2, [r3]
 572 0010 FFF7FEFF 		bl	__aeabi_dmul
 573              	.LVL64:
 574 0014 FFF7FEFF 		bl	__aeabi_d2iz
 575              	.LVL65:
 576 0018 08BD     		pop	{r3, pc}
 577              	.LVL66:
 578              	.L42:
 157:functions.c   ****     }else if(stepCount>8){
 579              		.loc 1 157 0
 580 001a 0828     		cmp	r0, #8
 581 001c 01DD     		ble	.L44
 158:functions.c   ****         return stepCount*8;
 582              		.loc 1 158 0
 583 001e C000     		lsls	r0, r0, #3
 584              	.LVL67:
 585 0020 08BD     		pop	{r3, pc}
 586              	.LVL68:
 587              	.L44:
 159:functions.c   ****     }else if(stepCount>6){
 588              		.loc 1 159 0
 589 0022 0628     		cmp	r0, #6
 590 0024 09DD     		ble	.L45
 160:functions.c   ****         return stepCount*7.9;
 591              		.loc 1 160 0
 592 0026 FFF7FEFF 		bl	__aeabi_i2d
 593              	.LVL69:
 594 002a 11A3     		adr	r3, .L49+8
 595 002c D3E90023 		ldrd	r2, [r3]
 596 0030 FFF7FEFF 		bl	__aeabi_dmul
 597              	.LVL70:
 598 0034 FFF7FEFF 		bl	__aeabi_d2iz
 599              	.LVL71:
 600 0038 08BD     		pop	{r3, pc}
 601              	.LVL72:
 602              	.L45:
 161:functions.c   ****     }else if(stepCount>4){
 603              		.loc 1 161 0
 604 003a 0428     		cmp	r0, #4
 605 003c 02DD     		ble	.L46
 162:functions.c   ****         return stepCount*7;
 606              		.loc 1 162 0
 607 003e C0EBC000 		rsb	r0, r0, r0, lsl #3
 608              	.LVL73:
 609 0042 08BD     		pop	{r3, pc}
 610              	.LVL74:
 611              	.L46:
 163:functions.c   ****     }else if(stepCount>2){
 612              		.loc 1 163 0
 613 0044 0228     		cmp	r0, #2
 614 0046 09DD     		ble	.L47
 164:functions.c   ****         return stepCount*5.9;
 615              		.loc 1 164 0
 616 0048 FFF7FEFF 		bl	__aeabi_i2d
ARM GAS  C:\Users\ukul426\AppData\Local\Temp\ccYo1Cf0.s 			page 15


 617              	.LVL75:
 618 004c 0AA3     		adr	r3, .L49+16
 619 004e D3E90023 		ldrd	r2, [r3]
 620 0052 FFF7FEFF 		bl	__aeabi_dmul
 621              	.LVL76:
 622 0056 FFF7FEFF 		bl	__aeabi_d2iz
 623              	.LVL77:
 624 005a 08BD     		pop	{r3, pc}
 625              	.LVL78:
 626              	.L47:
 165:functions.c   ****     }else{
 166:functions.c   ****         return stepCount*5;
 627              		.loc 1 166 0
 628 005c 00EB8000 		add	r0, r0, r0, lsl #2
 629              	.LVL79:
 167:functions.c   ****     }
 168:functions.c   **** //    if(stepCount<4){
 169:functions.c   **** //        return stepCount*5.5;
 170:functions.c   **** //    }else if(stepCount<6){
 171:functions.c   **** //        return stepCount*6.8;
 172:functions.c   **** //    }else if(stepCount<8){
 173:functions.c   **** //        return stepCount*7.3;
 174:functions.c   **** //    }else if(stepCount<10){
 175:functions.c   **** //        return stepCount*7.8;
 176:functions.c   **** //    }else{
 177:functions.c   **** //        return stepCount*8;
 178:functions.c   **** //    }
 179:functions.c   ****     
 180:functions.c   **** }
 630              		.loc 1 180 0
 631 0060 08BD     		pop	{r3, pc}
 632              	.L50:
 633 0062 00BFAFF3 		.align	3
 633      0080
 634              	.L49:
 635 0068 CDCCCCCC 		.word	-858993459
 636 006c CCCC2140 		.word	1075956940
 637 0070 9A999999 		.word	-1717986918
 638 0074 99991F40 		.word	1075812761
 639 0078 9A999999 		.word	-1717986918
 640 007c 99991740 		.word	1075288473
 641              		.cfi_endproc
 642              	.LFE68:
 643              		.size	getDistance_V, .-getDistance_V
 644              		.section	.text.getMovementArray,"ax",%progbits
 645              		.align	2
 646              		.global	getMovementArray
 647              		.thumb
 648              		.thumb_func
 649              		.type	getMovementArray, %function
 650              	getMovementArray:
 651              	.LFB69:
 181:functions.c   **** 
 182:functions.c   **** //input order are start row, column, target row, column
 183:functions.c   **** //input order are start row, column, target row, column
 184:functions.c   **** void getMovementArray(int start_row,int start_column,int target_row,int target_column,RobotDirectio
 652              		.loc 1 184 0
ARM GAS  C:\Users\ukul426\AppData\Local\Temp\ccYo1Cf0.s 			page 16


 653              		.cfi_startproc
 654              		@ args = 4, pretend = 0, frame = 0
 655              		@ frame_needed = 0, uses_anonymous_args = 0
 656              	.LVL80:
 657 0000 2DE9F047 		push	{r4, r5, r6, r7, r8, r9, r10, lr}
 658              		.cfi_def_cfa_offset 32
 659              		.cfi_offset 4, -32
 660              		.cfi_offset 5, -28
 661              		.cfi_offset 6, -24
 662              		.cfi_offset 7, -20
 663              		.cfi_offset 8, -16
 664              		.cfi_offset 9, -12
 665              		.cfi_offset 10, -8
 666              		.cfi_offset 14, -4
 667 0004 1746     		mov	r7, r2
 668 0006 9946     		mov	r9, r3
 669 0008 9DF82060 		ldrb	r6, [sp, #32]	@ zero_extendqisi2
 670              	.LVL81:
 671              	.LBB13:
 185:functions.c   **** 
 186:functions.c   ****     int stepCount = -1;
 187:functions.c   ****     int position = -1;
 188:functions.c   ****     
 189:functions.c   ****     //naming error
 190:functions.c   ****     int current_row=start_row;
 191:functions.c   ****     int current_column=start_column;
 192:functions.c   **** 
 193:functions.c   ****     for (int i = 0; i < pathLength; i++) {
 672              		.loc 1 193 0
 673 000c 0024     		movs	r4, #0
 674              	.LBE13:
 187:functions.c   ****     
 675              		.loc 1 187 0
 676 000e 4FF0FF38 		mov	r8, #-1
 186:functions.c   ****     int position = -1;
 677              		.loc 1 186 0
 678 0012 4246     		mov	r2, r8
 679              	.LVL82:
 680              	.LBB15:
 681              		.loc 1 193 0
 682 0014 F7E0     		b	.L52
 683              	.LVL83:
 684              	.L72:
 685              	.LBB14:
 194:functions.c   ****         int next_row = path[i].x;
 686              		.loc 1 194 0
 687 0016 7F4B     		ldr	r3, .L74
 688 0018 53F83450 		ldr	r5, [r3, r4, lsl #3]
 689              	.LVL84:
 195:functions.c   ****         int next_column = path[i].y;
 690              		.loc 1 195 0
 691 001c 03EBC403 		add	r3, r3, r4, lsl #3
 692 0020 D3F804A0 		ldr	r10, [r3, #4]
 693              	.LVL85:
 196:functions.c   **** 
 197:functions.c   **** 
 198:functions.c   **** 
ARM GAS  C:\Users\ukul426\AppData\Local\Temp\ccYo1Cf0.s 			page 17


 199:functions.c   ****         if(current_row == target_row && current_column == target_column ){
 694              		.loc 1 199 0
 695 0024 B842     		cmp	r0, r7
 696 0026 1DD1     		bne	.L53
 697              		.loc 1 199 0 is_stmt 0 discriminator 1
 698 0028 4945     		cmp	r1, r9
 699 002a 1BD1     		bne	.L53
 200:functions.c   ****                     stepCount+=2;
 700              		.loc 1 200 0 is_stmt 1
 701 002c 901C     		adds	r0, r2, #2
 702              	.LVL86:
 201:functions.c   ****                     position++;
 703              		.loc 1 201 0
 704 002e 08F10108 		add	r8, r8, #1
 705              	.LVL87:
 202:functions.c   ****                     if(current_direction==EAST ||current_direction==WEST){
 706              		.loc 1 202 0
 707 0032 012E     		cmp	r6, #1
 708 0034 01D0     		beq	.L54
 709              		.loc 1 202 0 is_stmt 0 discriminator 1
 710 0036 032E     		cmp	r6, #3
 711 0038 05D1     		bne	.L55
 712              	.L54:
 203:functions.c   ****                         movementArray[position].distance = getDistance_H(stepCount);
 713              		.loc 1 203 0 is_stmt 1
 714 003a FFF7FEFF 		bl	getDistance_H
 715              	.LVL88:
 716 003e 764B     		ldr	r3, .L74+4
 717 0040 43F83800 		str	r0, [r3, r8, lsl #3]
 718 0044 04E0     		b	.L56
 719              	.LVL89:
 720              	.L55:
 204:functions.c   ****                     }else{
 205:functions.c   ****                         movementArray[position].distance = getDistance_V(stepCount);
 721              		.loc 1 205 0
 722 0046 FFF7FEFF 		bl	getDistance_V
 723              	.LVL90:
 724 004a 734B     		ldr	r3, .L74+4
 725 004c 43F83800 		str	r0, [r3, r8, lsl #3]
 726              	.L56:
 206:functions.c   ****                     }
 207:functions.c   ****                     movementArray[position].turnDirection = 'E';
 727              		.loc 1 207 0
 728 0050 714B     		ldr	r3, .L74+4
 729 0052 03EBC808 		add	r8, r3, r8, lsl #3
 730              	.LVL91:
 731 0056 4523     		movs	r3, #69
 732 0058 88F80430 		strb	r3, [r8, #4]
 208:functions.c   ****                     robot_direction=current_direction;
 733              		.loc 1 208 0
 734 005c 6F4B     		ldr	r3, .L74+8
 735 005e 1E70     		strb	r6, [r3]
 209:functions.c   ****                     break;
 736              		.loc 1 209 0
 737 0060 BDE8F087 		pop	{r4, r5, r6, r7, r8, r9, r10, pc}
 738              	.LVL92:
 739              	.L53:
ARM GAS  C:\Users\ukul426\AppData\Local\Temp\ccYo1Cf0.s 			page 18


 210:functions.c   ****         }
 211:functions.c   ****         
 212:functions.c   **** 
 213:functions.c   ****         switch (current_direction) {
 740              		.loc 1 213 0
 741 0064 032E     		cmp	r6, #3
 742 0066 00F2CD80 		bhi	.L58
 743 006a DFE806F0 		tbb	[pc, r6]
 744              	.L60:
 745 006e 02       		.byte	(.L59-.L60)/2
 746 006f 36       		.byte	(.L61-.L60)/2
 747 0070 68       		.byte	(.L62-.L60)/2
 748 0071 9A       		.byte	(.L63-.L60)/2
 749              		.p2align 1
 750              	.L59:
 214:functions.c   ****             case NORTH:
 215:functions.c   ****                 if (next_row<current_row && next_column == current_column) { 
 751              		.loc 1 215 0
 752 0072 A842     		cmp	r0, r5
 753 0074 05DD     		ble	.L64
 754              		.loc 1 215 0 is_stmt 0 discriminator 1
 755 0076 5145     		cmp	r1, r10
 756 0078 03D1     		bne	.L64
 216:functions.c   ****                     // Go straight
 217:functions.c   ****                     stepCount++;
 757              		.loc 1 217 0 is_stmt 1
 758 007a 0132     		adds	r2, r2, #1
 759              	.LVL93:
 218:functions.c   ****                     current_row = next_row; // Update coordinates
 219:functions.c   ****                     current_column = next_column;
 760              		.loc 1 219 0
 761 007c 5146     		mov	r1, r10
 218:functions.c   ****                     current_row = next_row; // Update coordinates
 762              		.loc 1 218 0
 763 007e 2846     		mov	r0, r5
 220:functions.c   ****                     continue; 
 764              		.loc 1 220 0
 765 0080 C0E0     		b	.L58
 766              	.LVL94:
 767              	.L64:
 221:functions.c   ****                 } else if (next_row==current_row && next_column > current_column) {
 768              		.loc 1 221 0
 769 0082 A842     		cmp	r0, r5
 770 0084 12D1     		bne	.L65
 771              		.loc 1 221 0 is_stmt 0 discriminator 1
 772 0086 5145     		cmp	r1, r10
 773 0088 10DA     		bge	.L65
 774              	.LVL95:
 222:functions.c   ****                     // Turn right
 223:functions.c   ****                     stepCount+=2;
 224:functions.c   ****                     position++;
 775              		.loc 1 224 0 is_stmt 1
 776 008a 08F10108 		add	r8, r8, #1
 777              	.LVL96:
 225:functions.c   ****                     movementArray[position].distance = getDistance_V(stepCount);
 778              		.loc 1 225 0
 779 008e 901C     		adds	r0, r2, #2
ARM GAS  C:\Users\ukul426\AppData\Local\Temp\ccYo1Cf0.s 			page 19


 780              	.LVL97:
 781 0090 FFF7FEFF 		bl	getDistance_V
 782              	.LVL98:
 783 0094 604B     		ldr	r3, .L74+4
 784 0096 43F83800 		str	r0, [r3, r8, lsl #3]
 226:functions.c   ****                     movementArray[position].turnDirection = 'R';
 785              		.loc 1 226 0
 786 009a 03EBC803 		add	r3, r3, r8, lsl #3
 787 009e 5222     		movs	r2, #82
 788 00a0 1A71     		strb	r2, [r3, #4]
 789              	.LVL99:
 227:functions.c   ****                     current_row = next_row; // Update coordinates
 228:functions.c   ****                     current_column = next_column;
 790              		.loc 1 228 0
 791 00a2 5146     		mov	r1, r10
 227:functions.c   ****                     current_row = next_row; // Update coordinates
 792              		.loc 1 227 0
 793 00a4 2846     		mov	r0, r5
 229:functions.c   ****                     stepCount = 0;
 794              		.loc 1 229 0
 795 00a6 0022     		movs	r2, #0
 230:functions.c   ****                     current_direction = EAST;
 796              		.loc 1 230 0
 797 00a8 0126     		movs	r6, #1
 798 00aa ABE0     		b	.L58
 799              	.LVL100:
 800              	.L65:
 231:functions.c   ****                 } else if (next_row==current_row && next_column < current_column) {
 801              		.loc 1 231 0
 802 00ac A842     		cmp	r0, r5
 803 00ae 40F0A980 		bne	.L58
 804              		.loc 1 231 0 is_stmt 0 discriminator 1
 805 00b2 5145     		cmp	r1, r10
 806 00b4 40F3A680 		ble	.L58
 807              	.LVL101:
 232:functions.c   ****                     // Turn left
 233:functions.c   ****                     stepCount+=2;
 234:functions.c   ****                     position++;
 808              		.loc 1 234 0 is_stmt 1
 809 00b8 08F10108 		add	r8, r8, #1
 810              	.LVL102:
 235:functions.c   ****                     movementArray[position].distance =getDistance_V(stepCount);
 811              		.loc 1 235 0
 812 00bc 901C     		adds	r0, r2, #2
 813              	.LVL103:
 814 00be FFF7FEFF 		bl	getDistance_V
 815              	.LVL104:
 816 00c2 554B     		ldr	r3, .L74+4
 817 00c4 43F83800 		str	r0, [r3, r8, lsl #3]
 236:functions.c   ****                     movementArray[position].turnDirection = 'L';
 818              		.loc 1 236 0
 819 00c8 03EBC803 		add	r3, r3, r8, lsl #3
 820 00cc 4C22     		movs	r2, #76
 821 00ce 1A71     		strb	r2, [r3, #4]
 822              	.LVL105:
 237:functions.c   ****                     current_row = next_row; // Update coordinates
 238:functions.c   ****                     current_column = next_column;
ARM GAS  C:\Users\ukul426\AppData\Local\Temp\ccYo1Cf0.s 			page 20


 823              		.loc 1 238 0
 824 00d0 5146     		mov	r1, r10
 237:functions.c   ****                     current_row = next_row; // Update coordinates
 825              		.loc 1 237 0
 826 00d2 2846     		mov	r0, r5
 239:functions.c   ****                     stepCount = 0;
 827              		.loc 1 239 0
 828 00d4 0022     		movs	r2, #0
 240:functions.c   ****                     current_direction = WEST;
 829              		.loc 1 240 0
 830 00d6 0326     		movs	r6, #3
 831 00d8 94E0     		b	.L58
 832              	.LVL106:
 833              	.L61:
 241:functions.c   ****                 }
 242:functions.c   ****                 break;
 243:functions.c   ****                 
 244:functions.c   ****                 
 245:functions.c   ****             case EAST:
 246:functions.c   ****                 if (next_row==current_row && next_column > current_column) { 
 834              		.loc 1 246 0
 835 00da A842     		cmp	r0, r5
 836 00dc 05D1     		bne	.L66
 837              		.loc 1 246 0 is_stmt 0 discriminator 1
 838 00de 5145     		cmp	r1, r10
 839 00e0 03DA     		bge	.L66
 247:functions.c   ****                     // Go straight
 248:functions.c   ****                     stepCount++;
 840              		.loc 1 248 0 is_stmt 1
 841 00e2 0132     		adds	r2, r2, #1
 842              	.LVL107:
 249:functions.c   ****                     current_row = next_row; // Update coordinates
 250:functions.c   ****                     current_column = next_column;
 843              		.loc 1 250 0
 844 00e4 5146     		mov	r1, r10
 249:functions.c   ****                     current_row = next_row; // Update coordinates
 845              		.loc 1 249 0
 846 00e6 2846     		mov	r0, r5
 251:functions.c   ****                     continue; // Skip the rest of this iteration and go to the next
 847              		.loc 1 251 0
 848 00e8 8CE0     		b	.L58
 849              	.LVL108:
 850              	.L66:
 252:functions.c   ****                 } else if (next_row>current_row && next_column == current_column) {
 851              		.loc 1 252 0
 852 00ea A842     		cmp	r0, r5
 853 00ec 12DA     		bge	.L67
 854              		.loc 1 252 0 is_stmt 0 discriminator 1
 855 00ee 5145     		cmp	r1, r10
 856 00f0 10D1     		bne	.L67
 857              	.LVL109:
 253:functions.c   ****                     // Turn right
 254:functions.c   ****                     stepCount+=2;
 255:functions.c   ****                     position++;
 858              		.loc 1 255 0 is_stmt 1
 859 00f2 08F10108 		add	r8, r8, #1
 860              	.LVL110:
ARM GAS  C:\Users\ukul426\AppData\Local\Temp\ccYo1Cf0.s 			page 21


 256:functions.c   ****                     movementArray[position].distance = getDistance_H(stepCount);
 861              		.loc 1 256 0
 862 00f6 901C     		adds	r0, r2, #2
 863              	.LVL111:
 864 00f8 FFF7FEFF 		bl	getDistance_H
 865              	.LVL112:
 866 00fc 464B     		ldr	r3, .L74+4
 867 00fe 43F83800 		str	r0, [r3, r8, lsl #3]
 257:functions.c   ****                     movementArray[position].turnDirection = 'R';
 868              		.loc 1 257 0
 869 0102 03EBC803 		add	r3, r3, r8, lsl #3
 870 0106 5222     		movs	r2, #82
 871 0108 1A71     		strb	r2, [r3, #4]
 872              	.LVL113:
 258:functions.c   ****                     current_row = next_row; // Update coordinates
 259:functions.c   ****                     current_column = next_column;
 873              		.loc 1 259 0
 874 010a 5146     		mov	r1, r10
 258:functions.c   ****                     current_row = next_row; // Update coordinates
 875              		.loc 1 258 0
 876 010c 2846     		mov	r0, r5
 260:functions.c   ****                     stepCount = 0;
 877              		.loc 1 260 0
 878 010e 0022     		movs	r2, #0
 261:functions.c   ****                     current_direction = SOUTH;   
 879              		.loc 1 261 0
 880 0110 0226     		movs	r6, #2
 881 0112 77E0     		b	.L58
 882              	.LVL114:
 883              	.L67:
 262:functions.c   ****                 } else if (next_row<current_row && next_column == current_column) {
 884              		.loc 1 262 0
 885 0114 A842     		cmp	r0, r5
 886 0116 75DD     		ble	.L58
 887              		.loc 1 262 0 is_stmt 0 discriminator 1
 888 0118 5145     		cmp	r1, r10
 889 011a 73D1     		bne	.L58
 890              	.LVL115:
 263:functions.c   ****                     // Turn left
 264:functions.c   ****                     stepCount+=2;
 265:functions.c   ****                     position++;
 891              		.loc 1 265 0 is_stmt 1
 892 011c 08F10108 		add	r8, r8, #1
 893              	.LVL116:
 266:functions.c   ****                     movementArray[position].distance = getDistance_H(stepCount);
 894              		.loc 1 266 0
 895 0120 901C     		adds	r0, r2, #2
 896              	.LVL117:
 897 0122 FFF7FEFF 		bl	getDistance_H
 898              	.LVL118:
 899 0126 3C4B     		ldr	r3, .L74+4
 900 0128 43F83800 		str	r0, [r3, r8, lsl #3]
 267:functions.c   ****                     movementArray[position].turnDirection = 'L';
 901              		.loc 1 267 0
 902 012c 03EBC803 		add	r3, r3, r8, lsl #3
 903 0130 4C22     		movs	r2, #76
 904 0132 1A71     		strb	r2, [r3, #4]
ARM GAS  C:\Users\ukul426\AppData\Local\Temp\ccYo1Cf0.s 			page 22


 905              	.LVL119:
 268:functions.c   ****                     current_row = next_row; // Update coordinates
 269:functions.c   ****                     current_column = next_column;
 906              		.loc 1 269 0
 907 0134 5146     		mov	r1, r10
 268:functions.c   ****                     current_row = next_row; // Update coordinates
 908              		.loc 1 268 0
 909 0136 2846     		mov	r0, r5
 270:functions.c   ****                     stepCount = 0;
 910              		.loc 1 270 0
 911 0138 0022     		movs	r2, #0
 271:functions.c   ****                     current_direction = NORTH;
 912              		.loc 1 271 0
 913 013a 1646     		mov	r6, r2
 914 013c 62E0     		b	.L58
 915              	.LVL120:
 916              	.L62:
 272:functions.c   ****                 }
 273:functions.c   ****                 break;
 274:functions.c   **** 
 275:functions.c   ****             case SOUTH:
 276:functions.c   ****                 if (next_row>current_row && next_column == current_column) { 
 917              		.loc 1 276 0
 918 013e A842     		cmp	r0, r5
 919 0140 05DA     		bge	.L68
 920              		.loc 1 276 0 is_stmt 0 discriminator 1
 921 0142 5145     		cmp	r1, r10
 922 0144 03D1     		bne	.L68
 277:functions.c   ****                     // Go straight
 278:functions.c   ****                     stepCount++;
 923              		.loc 1 278 0 is_stmt 1
 924 0146 0132     		adds	r2, r2, #1
 925              	.LVL121:
 279:functions.c   ****                     current_row = next_row; // Update coordinates
 280:functions.c   ****                     current_column = next_column;
 926              		.loc 1 280 0
 927 0148 5146     		mov	r1, r10
 279:functions.c   ****                     current_row = next_row; // Update coordinates
 928              		.loc 1 279 0
 929 014a 2846     		mov	r0, r5
 281:functions.c   ****                     continue; 
 930              		.loc 1 281 0
 931 014c 5AE0     		b	.L58
 932              	.LVL122:
 933              	.L68:
 282:functions.c   ****                 } else if (next_row==current_row && next_column < current_column) {
 934              		.loc 1 282 0
 935 014e A842     		cmp	r0, r5
 936 0150 12D1     		bne	.L69
 937              		.loc 1 282 0 is_stmt 0 discriminator 1
 938 0152 5145     		cmp	r1, r10
 939 0154 10DD     		ble	.L69
 940              	.LVL123:
 283:functions.c   ****                     // Turn right
 284:functions.c   ****                     stepCount+=2;
 285:functions.c   ****                     position++;
 941              		.loc 1 285 0 is_stmt 1
ARM GAS  C:\Users\ukul426\AppData\Local\Temp\ccYo1Cf0.s 			page 23


 942 0156 08F10108 		add	r8, r8, #1
 943              	.LVL124:
 286:functions.c   ****                     movementArray[position].distance = getDistance_V(stepCount);
 944              		.loc 1 286 0
 945 015a 901C     		adds	r0, r2, #2
 946              	.LVL125:
 947 015c FFF7FEFF 		bl	getDistance_V
 948              	.LVL126:
 949 0160 2D4B     		ldr	r3, .L74+4
 950 0162 43F83800 		str	r0, [r3, r8, lsl #3]
 287:functions.c   ****                     movementArray[position].turnDirection = 'R';
 951              		.loc 1 287 0
 952 0166 03EBC803 		add	r3, r3, r8, lsl #3
 953 016a 5222     		movs	r2, #82
 954 016c 1A71     		strb	r2, [r3, #4]
 955              	.LVL127:
 288:functions.c   ****                     current_row = next_row; // Update coordinates
 289:functions.c   ****                     current_column = next_column;
 956              		.loc 1 289 0
 957 016e 5146     		mov	r1, r10
 288:functions.c   ****                     current_row = next_row; // Update coordinates
 958              		.loc 1 288 0
 959 0170 2846     		mov	r0, r5
 290:functions.c   ****                     stepCount = 0;
 960              		.loc 1 290 0
 961 0172 0022     		movs	r2, #0
 291:functions.c   ****                     current_direction = WEST;
 962              		.loc 1 291 0
 963 0174 0326     		movs	r6, #3
 964 0176 45E0     		b	.L58
 965              	.LVL128:
 966              	.L69:
 292:functions.c   ****                 } else if (next_row==current_row && next_column > current_column) {
 967              		.loc 1 292 0
 968 0178 A842     		cmp	r0, r5
 969 017a 43D1     		bne	.L58
 970              		.loc 1 292 0 is_stmt 0 discriminator 1
 971 017c 5145     		cmp	r1, r10
 972 017e 41DA     		bge	.L58
 973              	.LVL129:
 293:functions.c   ****                     // Turn left
 294:functions.c   ****                     stepCount+=2;
 295:functions.c   ****                     position++;
 974              		.loc 1 295 0 is_stmt 1
 975 0180 08F10108 		add	r8, r8, #1
 976              	.LVL130:
 296:functions.c   ****                     movementArray[position].distance = getDistance_V(stepCount);
 977              		.loc 1 296 0
 978 0184 901C     		adds	r0, r2, #2
 979              	.LVL131:
 980 0186 FFF7FEFF 		bl	getDistance_V
 981              	.LVL132:
 982 018a 234B     		ldr	r3, .L74+4
 983 018c 43F83800 		str	r0, [r3, r8, lsl #3]
 297:functions.c   ****                     movementArray[position].turnDirection = 'L';
 984              		.loc 1 297 0
 985 0190 03EBC803 		add	r3, r3, r8, lsl #3
ARM GAS  C:\Users\ukul426\AppData\Local\Temp\ccYo1Cf0.s 			page 24


 986 0194 4C22     		movs	r2, #76
 987 0196 1A71     		strb	r2, [r3, #4]
 988              	.LVL133:
 298:functions.c   ****                     current_row = next_row; // Update coordinates
 299:functions.c   ****                     current_column = next_column;
 989              		.loc 1 299 0
 990 0198 5146     		mov	r1, r10
 298:functions.c   ****                     current_row = next_row; // Update coordinates
 991              		.loc 1 298 0
 992 019a 2846     		mov	r0, r5
 300:functions.c   ****                     stepCount = 0;
 993              		.loc 1 300 0
 994 019c 0022     		movs	r2, #0
 301:functions.c   ****                     current_direction = EAST;
 995              		.loc 1 301 0
 996 019e 0126     		movs	r6, #1
 997 01a0 30E0     		b	.L58
 998              	.LVL134:
 999              	.L63:
 302:functions.c   ****                 }
 303:functions.c   ****                 break;
 304:functions.c   ****                 
 305:functions.c   ****                 
 306:functions.c   ****             case WEST:
 307:functions.c   ****                 if (next_row==current_row && next_column < current_column) { 
 1000              		.loc 1 307 0
 1001 01a2 A842     		cmp	r0, r5
 1002 01a4 05D1     		bne	.L70
 1003              		.loc 1 307 0 is_stmt 0 discriminator 1
 1004 01a6 5145     		cmp	r1, r10
 1005 01a8 03DD     		ble	.L70
 308:functions.c   ****                     // Go straight
 309:functions.c   ****                     stepCount++;
 1006              		.loc 1 309 0 is_stmt 1
 1007 01aa 0132     		adds	r2, r2, #1
 1008              	.LVL135:
 310:functions.c   ****                     current_row = next_row; // Update coordinates
 311:functions.c   ****                     current_column = next_column;
 1009              		.loc 1 311 0
 1010 01ac 5146     		mov	r1, r10
 310:functions.c   ****                     current_row = next_row; // Update coordinates
 1011              		.loc 1 310 0
 1012 01ae 2846     		mov	r0, r5
 312:functions.c   ****                     continue; 
 1013              		.loc 1 312 0
 1014 01b0 28E0     		b	.L58
 1015              	.LVL136:
 1016              	.L70:
 313:functions.c   ****                 } else if (next_row<current_row && next_column == current_column) {
 1017              		.loc 1 313 0
 1018 01b2 A842     		cmp	r0, r5
 1019 01b4 12DD     		ble	.L71
 1020              		.loc 1 313 0 is_stmt 0 discriminator 1
 1021 01b6 5145     		cmp	r1, r10
 1022 01b8 10D1     		bne	.L71
 1023              	.LVL137:
 314:functions.c   ****                     // Turn right
ARM GAS  C:\Users\ukul426\AppData\Local\Temp\ccYo1Cf0.s 			page 25


 315:functions.c   ****                     stepCount+=2;
 316:functions.c   ****                     position++;
 1024              		.loc 1 316 0 is_stmt 1
 1025 01ba 08F10108 		add	r8, r8, #1
 1026              	.LVL138:
 317:functions.c   ****                     movementArray[position].distance = getDistance_H(stepCount);
 1027              		.loc 1 317 0
 1028 01be 901C     		adds	r0, r2, #2
 1029              	.LVL139:
 1030 01c0 FFF7FEFF 		bl	getDistance_H
 1031              	.LVL140:
 1032 01c4 144B     		ldr	r3, .L74+4
 1033 01c6 43F83800 		str	r0, [r3, r8, lsl #3]
 318:functions.c   ****                     movementArray[position].turnDirection = 'R';
 1034              		.loc 1 318 0
 1035 01ca 03EBC803 		add	r3, r3, r8, lsl #3
 1036 01ce 5222     		movs	r2, #82
 1037 01d0 1A71     		strb	r2, [r3, #4]
 1038              	.LVL141:
 319:functions.c   ****                     current_row = next_row; // Update coordinates
 320:functions.c   ****                     current_column = next_column;
 1039              		.loc 1 320 0
 1040 01d2 5146     		mov	r1, r10
 319:functions.c   ****                     current_row = next_row; // Update coordinates
 1041              		.loc 1 319 0
 1042 01d4 2846     		mov	r0, r5
 321:functions.c   ****                     stepCount = 0;
 1043              		.loc 1 321 0
 1044 01d6 0022     		movs	r2, #0
 322:functions.c   ****                     current_direction = NORTH;
 1045              		.loc 1 322 0
 1046 01d8 1646     		mov	r6, r2
 1047 01da 13E0     		b	.L58
 1048              	.LVL142:
 1049              	.L71:
 323:functions.c   ****                 } else if (next_row>current_row && next_column == current_column) {
 1050              		.loc 1 323 0
 1051 01dc A842     		cmp	r0, r5
 1052 01de 11DA     		bge	.L58
 1053              		.loc 1 323 0 is_stmt 0 discriminator 1
 1054 01e0 5145     		cmp	r1, r10
 1055 01e2 0FD1     		bne	.L58
 1056              	.LVL143:
 324:functions.c   ****                     // Turn left
 325:functions.c   ****                     stepCount+=2;
 326:functions.c   ****                     position++;
 1057              		.loc 1 326 0 is_stmt 1
 1058 01e4 08F10108 		add	r8, r8, #1
 1059              	.LVL144:
 327:functions.c   ****                     movementArray[position].distance = getDistance_H(stepCount);
 1060              		.loc 1 327 0
 1061 01e8 901C     		adds	r0, r2, #2
 1062              	.LVL145:
 1063 01ea FFF7FEFF 		bl	getDistance_H
 1064              	.LVL146:
 1065 01ee 0A4B     		ldr	r3, .L74+4
 1066 01f0 43F83800 		str	r0, [r3, r8, lsl #3]
ARM GAS  C:\Users\ukul426\AppData\Local\Temp\ccYo1Cf0.s 			page 26


 328:functions.c   ****                     movementArray[position].turnDirection = 'L';
 1067              		.loc 1 328 0
 1068 01f4 03EBC803 		add	r3, r3, r8, lsl #3
 1069 01f8 4C22     		movs	r2, #76
 1070 01fa 1A71     		strb	r2, [r3, #4]
 1071              	.LVL147:
 329:functions.c   ****                     current_row = next_row; // Update coordinates
 330:functions.c   ****                     current_column = next_column;
 1072              		.loc 1 330 0
 1073 01fc 5146     		mov	r1, r10
 329:functions.c   ****                     current_row = next_row; // Update coordinates
 1074              		.loc 1 329 0
 1075 01fe 2846     		mov	r0, r5
 331:functions.c   ****                     stepCount = 0;
 1076              		.loc 1 331 0
 1077 0200 0022     		movs	r2, #0
 332:functions.c   ****                     current_direction = SOUTH;
 1078              		.loc 1 332 0
 1079 0202 0226     		movs	r6, #2
 1080              	.LVL148:
 1081              	.L58:
 1082              	.LBE14:
 193:functions.c   ****         int next_row = path[i].x;
 1083              		.loc 1 193 0 discriminator 2
 1084 0204 0134     		adds	r4, r4, #1
 1085              	.LVL149:
 1086              	.L52:
 193:functions.c   ****         int next_row = path[i].x;
 1087              		.loc 1 193 0 is_stmt 0 discriminator 1
 1088 0206 064B     		ldr	r3, .L74+12
 1089 0208 1B68     		ldr	r3, [r3]
 1090 020a 9C42     		cmp	r4, r3
 1091 020c FFF603AF 		blt	.L72
 1092 0210 BDE8F087 		pop	{r4, r5, r6, r7, r8, r9, r10, pc}
 1093              	.LVL150:
 1094              	.L75:
 1095              		.align	2
 1096              	.L74:
 1097 0214 00000000 		.word	path
 1098 0218 00000000 		.word	movementArray
 1099 021c 00000000 		.word	robot_direction
 1100 0220 00000000 		.word	.LANCHOR2
 1101              	.LBE15:
 1102              		.cfi_endproc
 1103              	.LFE69:
 1104              		.size	getMovementArray, .-getMovementArray
 1105              		.comm	path,2280,4
 1106              		.global	pathLength
 1107              		.global	map
 1108              		.comm	robot_direction,1,1
 1109              		.comm	movementArray,200,4
 1110              		.section	.rodata
 1111              		.align	2
 1112              		.set	.LANCHOR0,. + 0
 1113              	.LC0:
 1114 0000 01000000 		.word	1
 1115 0004 FFFFFFFF 		.word	-1
ARM GAS  C:\Users\ukul426\AppData\Local\Temp\ccYo1Cf0.s 			page 27


 1116 0008 00000000 		.word	0
 1117 000c 00000000 		.word	0
 1118              	.LC1:
 1119 0010 00000000 		.word	0
 1120 0014 00000000 		.word	0
 1121 0018 01000000 		.word	1
 1122 001c FFFFFFFF 		.word	-1
 1123              		.data
 1124              		.align	2
 1125              		.set	.LANCHOR1,. + 0
 1126              		.type	map, %object
 1127              		.size	map, 1140
 1128              	map:
 1129 0000 01000000 		.word	1
 1130 0004 01000000 		.word	1
 1131 0008 01000000 		.word	1
 1132 000c 01000000 		.word	1
 1133 0010 01000000 		.word	1
 1134 0014 01000000 		.word	1
 1135 0018 01000000 		.word	1
 1136 001c 01000000 		.word	1
 1137 0020 01000000 		.word	1
 1138 0024 01000000 		.word	1
 1139 0028 01000000 		.word	1
 1140 002c 01000000 		.word	1
 1141 0030 01000000 		.word	1
 1142 0034 01000000 		.word	1
 1143 0038 01000000 		.word	1
 1144 003c 01000000 		.word	1
 1145 0040 01000000 		.word	1
 1146 0044 01000000 		.word	1
 1147 0048 01000000 		.word	1
 1148 004c 01000000 		.word	1
 1149 0050 00000000 		.word	0
 1150 0054 01000000 		.word	1
 1151 0058 00000000 		.word	0
 1152 005c 00000000 		.word	0
 1153 0060 00000000 		.word	0
 1154 0064 00000000 		.word	0
 1155 0068 00000000 		.word	0
 1156 006c 00000000 		.word	0
 1157 0070 00000000 		.word	0
 1158 0074 00000000 		.word	0
 1159 0078 00000000 		.word	0
 1160 007c 00000000 		.word	0
 1161 0080 00000000 		.word	0
 1162 0084 00000000 		.word	0
 1163 0088 00000000 		.word	0
 1164 008c 00000000 		.word	0
 1165 0090 00000000 		.word	0
 1166 0094 01000000 		.word	1
 1167 0098 01000000 		.word	1
 1168 009c 00000000 		.word	0
 1169 00a0 01000000 		.word	1
 1170 00a4 00000000 		.word	0
 1171 00a8 01000000 		.word	1
 1172 00ac 01000000 		.word	1
ARM GAS  C:\Users\ukul426\AppData\Local\Temp\ccYo1Cf0.s 			page 28


 1173 00b0 01000000 		.word	1
 1174 00b4 01000000 		.word	1
 1175 00b8 01000000 		.word	1
 1176 00bc 00000000 		.word	0
 1177 00c0 01000000 		.word	1
 1178 00c4 01000000 		.word	1
 1179 00c8 01000000 		.word	1
 1180 00cc 00000000 		.word	0
 1181 00d0 01000000 		.word	1
 1182 00d4 01000000 		.word	1
 1183 00d8 01000000 		.word	1
 1184 00dc 00000000 		.word	0
 1185 00e0 01000000 		.word	1
 1186 00e4 01000000 		.word	1
 1187 00e8 00000000 		.word	0
 1188 00ec 00000000 		.word	0
 1189 00f0 00000000 		.word	0
 1190 00f4 01000000 		.word	1
 1191 00f8 00000000 		.word	0
 1192 00fc 00000000 		.word	0
 1193 0100 00000000 		.word	0
 1194 0104 01000000 		.word	1
 1195 0108 00000000 		.word	0
 1196 010c 00000000 		.word	0
 1197 0110 00000000 		.word	0
 1198 0114 00000000 		.word	0
 1199 0118 00000000 		.word	0
 1200 011c 00000000 		.word	0
 1201 0120 00000000 		.word	0
 1202 0124 01000000 		.word	1
 1203 0128 00000000 		.word	0
 1204 012c 01000000 		.word	1
 1205 0130 01000000 		.word	1
 1206 0134 01000000 		.word	1
 1207 0138 01000000 		.word	1
 1208 013c 00000000 		.word	0
 1209 0140 01000000 		.word	1
 1210 0144 00000000 		.word	0
 1211 0148 01000000 		.word	1
 1212 014c 00000000 		.word	0
 1213 0150 01000000 		.word	1
 1214 0154 01000000 		.word	1
 1215 0158 01000000 		.word	1
 1216 015c 00000000 		.word	0
 1217 0160 01000000 		.word	1
 1218 0164 00000000 		.word	0
 1219 0168 01000000 		.word	1
 1220 016c 01000000 		.word	1
 1221 0170 01000000 		.word	1
 1222 0174 00000000 		.word	0
 1223 0178 01000000 		.word	1
 1224 017c 01000000 		.word	1
 1225 0180 00000000 		.word	0
 1226 0184 00000000 		.word	0
 1227 0188 00000000 		.word	0
 1228 018c 01000000 		.word	1
 1229 0190 00000000 		.word	0
ARM GAS  C:\Users\ukul426\AppData\Local\Temp\ccYo1Cf0.s 			page 29


 1230 0194 01000000 		.word	1
 1231 0198 00000000 		.word	0
 1232 019c 00000000 		.word	0
 1233 01a0 00000000 		.word	0
 1234 01a4 01000000 		.word	1
 1235 01a8 00000000 		.word	0
 1236 01ac 01000000 		.word	1
 1237 01b0 00000000 		.word	0
 1238 01b4 00000000 		.word	0
 1239 01b8 00000000 		.word	0
 1240 01bc 00000000 		.word	0
 1241 01c0 00000000 		.word	0
 1242 01c4 01000000 		.word	1
 1243 01c8 01000000 		.word	1
 1244 01cc 00000000 		.word	0
 1245 01d0 01000000 		.word	1
 1246 01d4 01000000 		.word	1
 1247 01d8 01000000 		.word	1
 1248 01dc 00000000 		.word	0
 1249 01e0 01000000 		.word	1
 1250 01e4 00000000 		.word	0
 1251 01e8 01000000 		.word	1
 1252 01ec 00000000 		.word	0
 1253 01f0 01000000 		.word	1
 1254 01f4 00000000 		.word	0
 1255 01f8 01000000 		.word	1
 1256 01fc 00000000 		.word	0
 1257 0200 01000000 		.word	1
 1258 0204 01000000 		.word	1
 1259 0208 01000000 		.word	1
 1260 020c 00000000 		.word	0
 1261 0210 01000000 		.word	1
 1262 0214 01000000 		.word	1
 1263 0218 00000000 		.word	0
 1264 021c 01000000 		.word	1
 1265 0220 00000000 		.word	0
 1266 0224 01000000 		.word	1
 1267 0228 00000000 		.word	0
 1268 022c 00000000 		.word	0
 1269 0230 00000000 		.word	0
 1270 0234 01000000 		.word	1
 1271 0238 00000000 		.word	0
 1272 023c 01000000 		.word	1
 1273 0240 00000000 		.word	0
 1274 0244 01000000 		.word	1
 1275 0248 00000000 		.word	0
 1276 024c 01000000 		.word	1
 1277 0250 00000000 		.word	0
 1278 0254 00000000 		.word	0
 1279 0258 00000000 		.word	0
 1280 025c 01000000 		.word	1
 1281 0260 01000000 		.word	1
 1282 0264 00000000 		.word	0
 1283 0268 01000000 		.word	1
 1284 026c 00000000 		.word	0
 1285 0270 01000000 		.word	1
 1286 0274 00000000 		.word	0
ARM GAS  C:\Users\ukul426\AppData\Local\Temp\ccYo1Cf0.s 			page 30


 1287 0278 01000000 		.word	1
 1288 027c 01000000 		.word	1
 1289 0280 01000000 		.word	1
 1290 0284 00000000 		.word	0
 1291 0288 01000000 		.word	1
 1292 028c 00000000 		.word	0
 1293 0290 01000000 		.word	1
 1294 0294 00000000 		.word	0
 1295 0298 01000000 		.word	1
 1296 029c 00000000 		.word	0
 1297 02a0 01000000 		.word	1
 1298 02a4 01000000 		.word	1
 1299 02a8 01000000 		.word	1
 1300 02ac 01000000 		.word	1
 1301 02b0 00000000 		.word	0
 1302 02b4 00000000 		.word	0
 1303 02b8 00000000 		.word	0
 1304 02bc 01000000 		.word	1
 1305 02c0 00000000 		.word	0
 1306 02c4 01000000 		.word	1
 1307 02c8 00000000 		.word	0
 1308 02cc 00000000 		.word	0
 1309 02d0 00000000 		.word	0
 1310 02d4 01000000 		.word	1
 1311 02d8 00000000 		.word	0
 1312 02dc 00000000 		.word	0
 1313 02e0 00000000 		.word	0
 1314 02e4 01000000 		.word	1
 1315 02e8 00000000 		.word	0
 1316 02ec 00000000 		.word	0
 1317 02f0 00000000 		.word	0
 1318 02f4 01000000 		.word	1
 1319 02f8 01000000 		.word	1
 1320 02fc 01000000 		.word	1
 1321 0300 01000000 		.word	1
 1322 0304 00000000 		.word	0
 1323 0308 01000000 		.word	1
 1324 030c 00000000 		.word	0
 1325 0310 01000000 		.word	1
 1326 0314 01000000 		.word	1
 1327 0318 01000000 		.word	1
 1328 031c 01000000 		.word	1
 1329 0320 01000000 		.word	1
 1330 0324 01000000 		.word	1
 1331 0328 01000000 		.word	1
 1332 032c 01000000 		.word	1
 1333 0330 01000000 		.word	1
 1334 0334 01000000 		.word	1
 1335 0338 01000000 		.word	1
 1336 033c 00000000 		.word	0
 1337 0340 01000000 		.word	1
 1338 0344 01000000 		.word	1
 1339 0348 00000000 		.word	0
 1340 034c 00000000 		.word	0
 1341 0350 00000000 		.word	0
 1342 0354 00000000 		.word	0
 1343 0358 00000000 		.word	0
ARM GAS  C:\Users\ukul426\AppData\Local\Temp\ccYo1Cf0.s 			page 31


 1344 035c 00000000 		.word	0
 1345 0360 00000000 		.word	0
 1346 0364 00000000 		.word	0
 1347 0368 00000000 		.word	0
 1348 036c 00000000 		.word	0
 1349 0370 00000000 		.word	0
 1350 0374 00000000 		.word	0
 1351 0378 00000000 		.word	0
 1352 037c 00000000 		.word	0
 1353 0380 00000000 		.word	0
 1354 0384 00000000 		.word	0
 1355 0388 00000000 		.word	0
 1356 038c 01000000 		.word	1
 1357 0390 01000000 		.word	1
 1358 0394 00000000 		.word	0
 1359 0398 01000000 		.word	1
 1360 039c 01000000 		.word	1
 1361 03a0 01000000 		.word	1
 1362 03a4 01000000 		.word	1
 1363 03a8 01000000 		.word	1
 1364 03ac 01000000 		.word	1
 1365 03b0 01000000 		.word	1
 1366 03b4 01000000 		.word	1
 1367 03b8 01000000 		.word	1
 1368 03bc 01000000 		.word	1
 1369 03c0 01000000 		.word	1
 1370 03c4 00000000 		.word	0
 1371 03c8 01000000 		.word	1
 1372 03cc 01000000 		.word	1
 1373 03d0 01000000 		.word	1
 1374 03d4 01000000 		.word	1
 1375 03d8 01000000 		.word	1
 1376 03dc 01000000 		.word	1
 1377 03e0 00000000 		.word	0
 1378 03e4 00000000 		.word	0
 1379 03e8 00000000 		.word	0
 1380 03ec 00000000 		.word	0
 1381 03f0 00000000 		.word	0
 1382 03f4 00000000 		.word	0
 1383 03f8 00000000 		.word	0
 1384 03fc 01000000 		.word	1
 1385 0400 00000000 		.word	0
 1386 0404 00000000 		.word	0
 1387 0408 00000000 		.word	0
 1388 040c 00000000 		.word	0
 1389 0410 00000000 		.word	0
 1390 0414 00000000 		.word	0
 1391 0418 00000000 		.word	0
 1392 041c 00000000 		.word	0
 1393 0420 00000000 		.word	0
 1394 0424 01000000 		.word	1
 1395 0428 01000000 		.word	1
 1396 042c 01000000 		.word	1
 1397 0430 01000000 		.word	1
 1398 0434 01000000 		.word	1
 1399 0438 01000000 		.word	1
 1400 043c 01000000 		.word	1
ARM GAS  C:\Users\ukul426\AppData\Local\Temp\ccYo1Cf0.s 			page 32


 1401 0440 01000000 		.word	1
 1402 0444 01000000 		.word	1
 1403 0448 01000000 		.word	1
 1404 044c 01000000 		.word	1
 1405 0450 01000000 		.word	1
 1406 0454 01000000 		.word	1
 1407 0458 01000000 		.word	1
 1408 045c 01000000 		.word	1
 1409 0460 01000000 		.word	1
 1410 0464 01000000 		.word	1
 1411 0468 01000000 		.word	1
 1412 046c 01000000 		.word	1
 1413 0470 01000000 		.word	1
 1414              		.bss
 1415              		.align	2
 1416              		.set	.LANCHOR2,. + 0
 1417              		.type	pathLength, %object
 1418              		.size	pathLength, 4
 1419              	pathLength:
 1420 0000 00000000 		.space	4
 1421              		.text
 1422              	.Letext0:
 1423              		.file 2 "c:\\program files (x86)\\cypress\\psoc creator\\4.2\\psoc creator\\import\\gnu\\arm\\5.4.
 1424              		.file 3 "c:\\program files (x86)\\cypress\\psoc creator\\4.2\\psoc creator\\import\\gnu\\arm\\5.4.
 1425              		.file 4 "program.h"
 1426              		.file 5 "Generated_Source\\PSoC5/core_cm3.h"