ARM GAS  C:\Users\dulan\AppData\Local\Temp\cc2rW5FH.s 			page 1


   1              		.syntax unified
   2              		.cpu cortex-m3
   3              		.fpu softvfp
   4              		.eabi_attribute 20, 1
   5              		.eabi_attribute 21, 1
   6              		.eabi_attribute 23, 3
   7              		.eabi_attribute 24, 1
   8              		.eabi_attribute 25, 1
   9              		.eabi_attribute 26, 1
  10              		.eabi_attribute 30, 1
  11              		.eabi_attribute 34, 1
  12              		.eabi_attribute 18, 4
  13              		.thumb
  14              		.syntax unified
  15              		.file	"functions.c"
  16              		.text
  17              	.Ltext0:
  18              		.cfi_sections	.debug_frame
  19              		.section	.text.getCurrentDirection,"ax",%progbits
  20              		.align	2
  21              		.global	getCurrentDirection
  22              		.thumb
  23              		.thumb_func
  24              		.type	getCurrentDirection, %function
  25              	getCurrentDirection:
  26              	.LFB64:
  27              		.file 1 "functions.c"
   1:functions.c   **** 
   2:functions.c   **** #include "program.h"
   3:functions.c   **** 
   4:functions.c   **** Movement movementArray[25];
   5:functions.c   **** RobotDirection robot_direction;
   6:functions.c   **** 
   7:functions.c   **** 
   8:functions.c   **** // Define the grid map with obstacles (1) and open cells (0)
   9:functions.c   **** int map[ROWS][COLS] = {
  10:functions.c   ****     {1,1,1,1,1,1,1,1,1,1,1,1,1,1,1,1,1,1,1},
  11:functions.c   ****     {1,0,1,0,0,0,0,0,0,0,0,0,0,0,0,0,0,0,1},
  12:functions.c   ****     {1,0,1,0,1,1,1,1,1,0,1,1,1,0,1,1,1,0,1},
  13:functions.c   ****     {1,0,0,0,1,0,0,0,1,0,0,0,0,0,0,0,1,0,1},
  14:functions.c   ****     {1,1,1,0,1,0,1,0,1,1,1,0,1,0,1,1,1,0,1},
  15:functions.c   ****     {1,0,0,0,1,0,1,0,0,0,1,0,1,0,0,0,0,0,1},
  16:functions.c   ****     {1,0,1,1,1,0,1,0,1,0,1,0,1,0,1,1,1,0,1},
  17:functions.c   ****     {1,0,1,0,1,0,0,0,1,0,1,0,1,0,1,0,0,0,1},
  18:functions.c   ****     {1,0,1,0,1,0,1,1,1,0,1,0,1,0,1,0,1,1,1},
  19:functions.c   ****     {1,0,0,0,1,0,1,0,0,0,1,0,0,0,1,0,0,0,1},
  20:functions.c   ****     {1,1,1,0,1,0,1,1,1,1,1,1,1,1,1,1,1,0,1},
  21:functions.c   ****     {1,0,0,0,0,0,0,0,0,0,0,0,0,0,0,0,0,0,1},
  22:functions.c   ****     {1,0,1,1,1,1,1,1,1,1,1,1,1,0,1,1,1,1,1},
  23:functions.c   ****     {1,0,0,0,0,0,0,0,1,0,0,0,0,0,0,0,0,0,1},
  24:functions.c   ****     {1,1,1,1,1,1,1,1,1,1,1,1,1,1,1,1,1,1,1},
  25:functions.c   **** };
  26:functions.c   **** 
  27:functions.c   **** // Structure to represent a node in the grid
  28:functions.c   **** typedef struct {
  29:functions.c   ****     int x, y;
  30:functions.c   **** } Node;
ARM GAS  C:\Users\dulan\AppData\Local\Temp\cc2rW5FH.s 			page 2


  31:functions.c   **** 
  32:functions.c   **** // Structure to represent a cell in the grid
  33:functions.c   **** typedef struct {
  34:functions.c   ****     int cost;
  35:functions.c   ****     Node parent;
  36:functions.c   **** } Cell;
  37:functions.c   **** 
  38:functions.c   **** // Initialize the path length
  39:functions.c   **** int pathLength = 0;
  40:functions.c   **** 
  41:functions.c   **** // Trace the path from target to start
  42:functions.c   **** Node path[ROWS * COLS];
  43:functions.c   **** 
  44:functions.c   **** RobotDirection getCurrentDirection(){
  28              		.loc 1 44 0
  29              		.cfi_startproc
  30              		@ args = 0, pretend = 0, frame = 0
  31              		@ frame_needed = 0, uses_anonymous_args = 0
  32              		@ link register save eliminated.
  45:functions.c   ****     return robot_direction;
  46:functions.c   **** }
  33              		.loc 1 46 0
  34 0000 014B     		ldr	r3, .L2
  35 0002 1878     		ldrb	r0, [r3]	@ zero_extendqisi2
  36 0004 7047     		bx	lr
  37              	.L3:
  38 0006 00BF     		.align	2
  39              	.L2:
  40 0008 00000000 		.word	robot_direction
  41              		.cfi_endproc
  42              	.LFE64:
  43              		.size	getCurrentDirection, .-getCurrentDirection
  44              		.section	.text.isValidCell,"ax",%progbits
  45              		.align	2
  46              		.global	isValidCell
  47              		.thumb
  48              		.thumb_func
  49              		.type	isValidCell, %function
  50              	isValidCell:
  51              	.LFB65:
  47:functions.c   **** 
  48:functions.c   **** // Function to check if a cell is within the map boundaries
  49:functions.c   **** bool isValidCell(int x, int y) {
  52              		.loc 1 49 0
  53              		.cfi_startproc
  54              		@ args = 0, pretend = 0, frame = 0
  55              		@ frame_needed = 0, uses_anonymous_args = 0
  56              		@ link register save eliminated.
  57              	.LVL0:
  50:functions.c   ****     return (x >= 0 && x < ROWS && y >= 0 && y < COLS);
  58              		.loc 1 50 0
  59 0000 0E28     		cmp	r0, #14
  60 0002 05D8     		bhi	.L6
  61              		.loc 1 50 0 is_stmt 0 discriminator 1
  62 0004 0029     		cmp	r1, #0
  63 0006 05DB     		blt	.L7
  64              		.loc 1 50 0 discriminator 3
ARM GAS  C:\Users\dulan\AppData\Local\Temp\cc2rW5FH.s 			page 3


  65 0008 1229     		cmp	r1, #18
  66 000a 05DD     		ble	.L8
  67              		.loc 1 50 0
  68 000c 0020     		movs	r0, #0
  69              	.LVL1:
  70 000e 7047     		bx	lr
  71              	.LVL2:
  72              	.L6:
  73 0010 0020     		movs	r0, #0
  74              	.LVL3:
  75 0012 7047     		bx	lr
  76              	.LVL4:
  77              	.L7:
  78 0014 0020     		movs	r0, #0
  79              	.LVL5:
  80 0016 7047     		bx	lr
  81              	.LVL6:
  82              	.L8:
  83 0018 0120     		movs	r0, #1
  84              	.LVL7:
  51:functions.c   **** }
  85              		.loc 1 51 0 is_stmt 1
  86 001a 7047     		bx	lr
  87              		.cfi_endproc
  88              	.LFE65:
  89              		.size	isValidCell, .-isValidCell
  90              		.section	.text.dijkstra,"ax",%progbits
  91              		.align	2
  92              		.global	dijkstra
  93              		.thumb
  94              		.thumb_func
  95              		.type	dijkstra, %function
  96              	dijkstra:
  97              	.LFB66:
  52:functions.c   **** 
  53:functions.c   **** // Function to find the shortest path using Dijkstra's algorithm
  54:functions.c   **** void dijkstra(int startX, int startY, int targetX, int targetY) {
  98              		.loc 1 54 0
  99              		.cfi_startproc
 100              		@ args = 0, pretend = 0, frame = 5760
 101              		@ frame_needed = 0, uses_anonymous_args = 0
 102              	.LVL8:
 103 0000 2DE9F04F 		push	{r4, r5, r6, r7, r8, r9, r10, fp, lr}
 104              		.cfi_def_cfa_offset 36
 105              		.cfi_offset 4, -36
 106              		.cfi_offset 5, -32
 107              		.cfi_offset 6, -28
 108              		.cfi_offset 7, -24
 109              		.cfi_offset 8, -20
 110              		.cfi_offset 9, -16
 111              		.cfi_offset 10, -12
 112              		.cfi_offset 11, -8
 113              		.cfi_offset 14, -4
 114 0004 ADF5B45D 		sub	sp, sp, #5760
 115              		.cfi_def_cfa_offset 5796
 116 0008 81B0     		sub	sp, sp, #4
 117              		.cfi_def_cfa_offset 5800
ARM GAS  C:\Users\dulan\AppData\Local\Temp\cc2rW5FH.s 			page 4


 118 000a 8146     		mov	r9, r0
 119 000c 8B46     		mov	fp, r1
 120 000e 9246     		mov	r10, r2
 121 0010 0193     		str	r3, [sp, #4]
 122              	.LVL9:
 123              	.LBB2:
  55:functions.c   ****     // Create an array to store visited status and cell information
  56:functions.c   ****     Cell grid[ROWS][COLS];
  57:functions.c   **** 
  58:functions.c   ****     // Initialize all cells with maximum cost and invalid parent
  59:functions.c   ****     for (int i = 0; i < ROWS; i++) {
 124              		.loc 1 59 0
 125 0012 0025     		movs	r5, #0
 126 0014 16E0     		b	.L10
 127              	.LVL10:
 128              	.L11:
 129              	.LBB3:
  60:functions.c   ****         for (int j = 0; j < COLS; j++) {
  61:functions.c   ****             grid[i][j].cost = INT_MAX;
 130              		.loc 1 61 0 discriminator 3
 131 0016 0DF62410 		addw	r0, sp, #2340
 132 001a 02EB4201 		add	r1, r2, r2, lsl #1
 133 001e E423     		movs	r3, #228
 134 0020 03FB05F3 		mul	r3, r3, r5
 135 0024 03EB8103 		add	r3, r3, r1, lsl #2
 136 0028 C118     		adds	r1, r0, r3
 137 002a 6FF00044 		mvn	r4, #-2147483648
 138 002e C450     		str	r4, [r0, r3]
  62:functions.c   ****             grid[i][j].parent.x = -1;
 139              		.loc 1 62 0 discriminator 3
 140 0030 4FF0FF33 		mov	r3, #-1
 141 0034 4B60     		str	r3, [r1, #4]
  63:functions.c   ****             grid[i][j].parent.y = -1;
 142              		.loc 1 63 0 discriminator 3
 143 0036 8B60     		str	r3, [r1, #8]
  60:functions.c   ****         for (int j = 0; j < COLS; j++) {
 144              		.loc 1 60 0 discriminator 3
 145 0038 0132     		adds	r2, r2, #1
 146              	.LVL11:
 147 003a 00E0     		b	.L12
 148              	.LVL12:
 149              	.L26:
 150              	.LBE3:
 151 003c 0022     		movs	r2, #0
 152              	.L12:
 153              	.LVL13:
 154              	.LBB4:
  60:functions.c   ****         for (int j = 0; j < COLS; j++) {
 155              		.loc 1 60 0 is_stmt 0 discriminator 1
 156 003e 122A     		cmp	r2, #18
 157 0040 E9DD     		ble	.L11
 158              	.LBE4:
  59:functions.c   ****         for (int j = 0; j < COLS; j++) {
 159              		.loc 1 59 0 is_stmt 1 discriminator 2
 160 0042 0135     		adds	r5, r5, #1
 161              	.LVL14:
 162              	.L10:
ARM GAS  C:\Users\dulan\AppData\Local\Temp\cc2rW5FH.s 			page 5


  59:functions.c   ****         for (int j = 0; j < COLS; j++) {
 163              		.loc 1 59 0 is_stmt 0 discriminator 1
 164 0044 0E2D     		cmp	r5, #14
 165 0046 F9DD     		ble	.L26
 166              	.LBE2:
  64:functions.c   ****         }
  65:functions.c   ****     }
  66:functions.c   **** 
  67:functions.c   ****     // Initialize the starting cell
  68:functions.c   ****     grid[startX][startY].cost = 0;
 167              		.loc 1 68 0 is_stmt 1
 168 0048 0BEB4B02 		add	r2, fp, fp, lsl #1
 169 004c E423     		movs	r3, #228
 170 004e 03FB09F3 		mul	r3, r3, r9
 171 0052 03EB8203 		add	r3, r3, r2, lsl #2
 172 0056 0021     		movs	r1, #0
 173 0058 0DF62412 		addw	r2, sp, #2340
 174 005c D150     		str	r1, [r2, r3]
  69:functions.c   ****     Node currentNode = {startX, startY};
 175              		.loc 1 69 0
 176 005e CDF81C99 		str	r9, [sp, #2332]
 177 0062 CDF820B9 		str	fp, [sp, #2336]
  70:functions.c   **** 
  71:functions.c   ****    
  72:functions.c   ****     // Create an array to store possible movement directions
  73:functions.c   ****     int dx[] = {1, -1, 0, 0};
 178              		.loc 1 73 0
 179 0066 0DF60C15 		addw	r5, sp, #2316
 180              	.LVL15:
 181 006a 674C     		ldr	r4, .L29
 182 006c 94E80F00 		ldmia	r4, {r0, r1, r2, r3}
 183 0070 85E80F00 		stmia	r5, {r0, r1, r2, r3}
  74:functions.c   ****     int dy[] = {0, 0, 1, -1};
 184              		.loc 1 74 0
 185 0074 0DF6FC05 		addw	r5, sp, #2300
 186 0078 1034     		adds	r4, r4, #16
 187 007a 94E80F00 		ldmia	r4, {r0, r1, r2, r3}
 188 007e 85E80F00 		stmia	r5, {r0, r1, r2, r3}
  75:functions.c   **** 
  76:functions.c   ****     // Main loop
  77:functions.c   ****     while (currentNode.x != targetX || currentNode.y != targetY) {
 189              		.loc 1 77 0
 190 0082 6EE0     		b	.L13
 191              	.L21:
 192              	.LVL16:
 193              	.LBB5:
  78:functions.c   ****         // Mark the current cell as visited
  79:functions.c   ****         int x = currentNode.x;
  80:functions.c   ****         int y = currentNode.y;
 194              		.loc 1 80 0
 195 0084 DDF82079 		ldr	r7, [sp, #2336]
 196              	.LVL17:
  81:functions.c   ****         grid[x][y].cost = -1;
 197              		.loc 1 81 0
 198 0088 07EB4702 		add	r2, r7, r7, lsl #1
 199 008c E423     		movs	r3, #228
 200 008e 03FB08F3 		mul	r3, r3, r8
ARM GAS  C:\Users\dulan\AppData\Local\Temp\cc2rW5FH.s 			page 6


 201 0092 03EB8203 		add	r3, r3, r2, lsl #2
 202 0096 4FF0FF31 		mov	r1, #-1
 203 009a 0DF62412 		addw	r2, sp, #2340
 204 009e D150     		str	r1, [r2, r3]
 205              	.LVL18:
 206              	.LBB6:
  82:functions.c   **** 
  83:functions.c   ****         // Check neighbors
  84:functions.c   ****         for (int i = 0; i < 4; i++) {
 207              		.loc 1 84 0
 208 00a0 0025     		movs	r5, #0
 209 00a2 3CE0     		b	.L14
 210              	.LVL19:
 211              	.L16:
 212              	.LBB7:
  85:functions.c   ****             int newX = x + dx[i];
 213              		.loc 1 85 0
 214 00a4 0DF60C13 		addw	r3, sp, #2316
 215 00a8 53F82540 		ldr	r4, [r3, r5, lsl #2]
 216 00ac 4444     		add	r4, r4, r8
 217              	.LVL20:
  86:functions.c   ****             int newY = y + dy[i];
 218              		.loc 1 86 0
 219 00ae 0DF6FC03 		addw	r3, sp, #2300
 220 00b2 53F82560 		ldr	r6, [r3, r5, lsl #2]
 221 00b6 3E44     		add	r6, r6, r7
 222              	.LVL21:
  87:functions.c   **** 
  88:functions.c   ****             if (isValidCell(newX, newY) && map[newX][newY] == 0) {
 223              		.loc 1 88 0
 224 00b8 3146     		mov	r1, r6
 225 00ba 2046     		mov	r0, r4
 226 00bc FFF7FEFF 		bl	isValidCell
 227              	.LVL22:
 228 00c0 60B3     		cbz	r0, .L15
 229              		.loc 1 88 0 is_stmt 0 discriminator 1
 230 00c2 04EBC403 		add	r3, r4, r4, lsl #3
 231 00c6 04EB4303 		add	r3, r4, r3, lsl #1
 232 00ca 3344     		add	r3, r3, r6
 233 00cc 4F4A     		ldr	r2, .L29+4
 234 00ce 52F82330 		ldr	r3, [r2, r3, lsl #2]
 235 00d2 1BBB     		cbnz	r3, .L15
 236              	.LBB8:
  89:functions.c   ****                 int newCost = grid[x][y].cost + 1;
 237              		.loc 1 89 0 is_stmt 1
 238 00d4 0DF62410 		addw	r0, sp, #2340
 239 00d8 07EB4702 		add	r2, r7, r7, lsl #1
 240 00dc E423     		movs	r3, #228
 241 00de 03FB08F1 		mul	r1, r3, r8
 242 00e2 01EB8202 		add	r2, r1, r2, lsl #2
 243 00e6 8258     		ldr	r2, [r0, r2]
 244 00e8 0132     		adds	r2, r2, #1
 245              	.LVL23:
  90:functions.c   ****                 if (newCost < grid[newX][newY].cost) {
 246              		.loc 1 90 0
 247 00ea 06EB4601 		add	r1, r6, r6, lsl #1
 248 00ee 03FB04F3 		mul	r3, r3, r4
ARM GAS  C:\Users\dulan\AppData\Local\Temp\cc2rW5FH.s 			page 7


 249 00f2 03EB8103 		add	r3, r3, r1, lsl #2
 250 00f6 C358     		ldr	r3, [r0, r3]
 251 00f8 9A42     		cmp	r2, r3
 252 00fa 0FDA     		bge	.L15
  91:functions.c   ****                     grid[newX][newY].cost = newCost;
 253              		.loc 1 91 0
 254 00fc 0346     		mov	r3, r0
 255 00fe 7000     		lsls	r0, r6, #1
 256 0100 8119     		adds	r1, r0, r6
 257 0102 4FF0E40E 		mov	lr, #228
 258 0106 0EFB04F4 		mul	r4, lr, r4
 259              	.LVL24:
 260 010a 04EB8101 		add	r1, r4, r1, lsl #2
 261 010e 03EB010E 		add	lr, r3, r1
 262 0112 5A50     		str	r2, [r3, r1]
  92:functions.c   ****                     grid[newX][newY].parent.x = x;
 263              		.loc 1 92 0
 264 0114 CEF80480 		str	r8, [lr, #4]
  93:functions.c   ****                     grid[newX][newY].parent.y = y;
 265              		.loc 1 93 0
 266 0118 CEF80870 		str	r7, [lr, #8]
 267              	.LVL25:
 268              	.L15:
 269              	.LBE8:
 270              	.LBE7:
  84:functions.c   ****             int newX = x + dx[i];
 271              		.loc 1 84 0 discriminator 2
 272 011c 0135     		adds	r5, r5, #1
 273              	.LVL26:
 274              	.L14:
  84:functions.c   ****             int newX = x + dx[i];
 275              		.loc 1 84 0 is_stmt 0 discriminator 1
 276 011e 032D     		cmp	r5, #3
 277 0120 C0DD     		ble	.L16
 278 0122 0020     		movs	r0, #0
 279 0124 6FF00044 		mvn	r4, #-2147483648
 280 0128 19E0     		b	.L17
 281              	.LVL27:
 282              	.L19:
 283              	.LBE6:
 284              	.LBB9:
 285              	.LBB10:
  94:functions.c   ****                 }
  95:functions.c   ****             }
  96:functions.c   ****         }
  97:functions.c   **** 
  98:functions.c   ****         // Find the next unvisited cell with the lowest cost
  99:functions.c   ****         int minCost = INT_MAX;
 100:functions.c   ****         for (int i = 0; i < ROWS; i++) {
 101:functions.c   ****             for (int j = 0; j < COLS; j++) {
 102:functions.c   ****                 if (grid[i][j].cost != -1 && grid[i][j].cost < minCost) {
 286              		.loc 1 102 0 is_stmt 1
 287 012a 01EB4103 		add	r3, r1, r1, lsl #1
 288 012e E422     		movs	r2, #228
 289 0130 02FB00F2 		mul	r2, r2, r0
 290 0134 02EB8303 		add	r3, r2, r3, lsl #2
 291 0138 0DF62412 		addw	r2, sp, #2340
ARM GAS  C:\Users\dulan\AppData\Local\Temp\cc2rW5FH.s 			page 8


 292 013c D358     		ldr	r3, [r2, r3]
 293 013e B3F1FF3F 		cmp	r3, #-1
 294 0142 06D0     		beq	.L18
 295              		.loc 1 102 0 is_stmt 0 discriminator 1
 296 0144 9C42     		cmp	r4, r3
 297 0146 04DD     		ble	.L18
 298              	.LVL28:
 103:functions.c   ****                     minCost = grid[i][j].cost;
 104:functions.c   ****                     currentNode.x = i;
 299              		.loc 1 104 0 is_stmt 1
 300 0148 CDF81C09 		str	r0, [sp, #2332]
 105:functions.c   ****                     currentNode.y = j;
 301              		.loc 1 105 0
 302 014c CDF82019 		str	r1, [sp, #2336]
 103:functions.c   ****                     minCost = grid[i][j].cost;
 303              		.loc 1 103 0
 304 0150 1C46     		mov	r4, r3
 305              	.LVL29:
 306              	.L18:
 101:functions.c   ****                 if (grid[i][j].cost != -1 && grid[i][j].cost < minCost) {
 307              		.loc 1 101 0 discriminator 2
 308 0152 0131     		adds	r1, r1, #1
 309              	.LVL30:
 310 0154 00E0     		b	.L20
 311              	.LVL31:
 312              	.L27:
 313              	.LBE10:
 314 0156 0021     		movs	r1, #0
 315              	.L20:
 316              	.LVL32:
 317              	.LBB11:
 101:functions.c   ****                 if (grid[i][j].cost != -1 && grid[i][j].cost < minCost) {
 318              		.loc 1 101 0 is_stmt 0 discriminator 1
 319 0158 1229     		cmp	r1, #18
 320 015a E6DD     		ble	.L19
 321              	.LBE11:
 100:functions.c   ****             for (int j = 0; j < COLS; j++) {
 322              		.loc 1 100 0 is_stmt 1 discriminator 2
 323 015c 0130     		adds	r0, r0, #1
 324              	.LVL33:
 325              	.L17:
 100:functions.c   ****             for (int j = 0; j < COLS; j++) {
 326              		.loc 1 100 0 is_stmt 0 discriminator 1
 327 015e 0E28     		cmp	r0, #14
 328 0160 F9DD     		ble	.L27
 329              	.LVL34:
 330              	.L13:
 331              	.LBE9:
 332              	.LBE5:
  77:functions.c   ****         // Mark the current cell as visited
 333              		.loc 1 77 0 is_stmt 1
 334 0162 DDF81C89 		ldr	r8, [sp, #2332]
 335 0166 D045     		cmp	r8, r10
 336 0168 8CD1     		bne	.L21
  77:functions.c   ****         // Mark the current cell as visited
 337              		.loc 1 77 0 is_stmt 0 discriminator 1
 338 016a DDF82039 		ldr	r3, [sp, #2336]
ARM GAS  C:\Users\dulan\AppData\Local\Temp\cc2rW5FH.s 			page 9


 339 016e 019A     		ldr	r2, [sp, #4]
 340 0170 9342     		cmp	r3, r2
 341 0172 87D1     		bne	.L21
 106:functions.c   ****                 }
 107:functions.c   ****             }
 108:functions.c   ****         }
 109:functions.c   ****     }
 110:functions.c   ****     // Store the path in a temporary array
 111:functions.c   ****     // Store the starting point in the path
 112:functions.c   ****     pathLength=0;
 113:functions.c   ****     Node tempPath[ROWS * COLS];
 114:functions.c   ****     tempPath[pathLength++] = currentNode;
 342              		.loc 1 114 0 is_stmt 1
 343 0174 0122     		movs	r2, #1
 344 0176 264B     		ldr	r3, .L29+8
 345 0178 1A60     		str	r2, [r3]
 346 017a 05AB     		add	r3, sp, #20
 347 017c 0DF61C12 		addw	r2, sp, #2332
 348 0180 92E80300 		ldmia	r2, {r0, r1}
 349 0184 83E80300 		stmia	r3, {r0, r1}
 115:functions.c   ****     // Trace the path from target to start
 116:functions.c   ****     Node current = {targetX, targetY};
 350              		.loc 1 116 0
 351 0188 CDF80CA0 		str	r10, [sp, #12]
 352 018c 019B     		ldr	r3, [sp, #4]
 353 018e 0493     		str	r3, [sp, #16]
 117:functions.c   ****     while (current.x != startX || current.y != startY) {
 354              		.loc 1 117 0
 355 0190 1AE0     		b	.L22
 356              	.L23:
 118:functions.c   ****         tempPath[pathLength++] = current;
 357              		.loc 1 118 0
 358 0192 1F49     		ldr	r1, .L29+8
 359 0194 0A68     		ldr	r2, [r1]
 360 0196 501C     		adds	r0, r2, #1
 361 0198 0860     		str	r0, [r1]
 362 019a 03AC     		add	r4, sp, #12
 363 019c 05A9     		add	r1, sp, #20
 364 019e 01EBC202 		add	r2, r1, r2, lsl #3
 365 01a2 94E80300 		ldmia	r4, {r0, r1}
 366 01a6 82E80300 		stmia	r2, {r0, r1}
 119:functions.c   ****         current = grid[current.x][current.y].parent;// Move to the parent cell
 367              		.loc 1 119 0
 368 01aa 01EB4101 		add	r1, r1, r1, lsl #1
 369 01ae E422     		movs	r2, #228
 370 01b0 02FB03F3 		mul	r3, r2, r3
 371 01b4 03EB8103 		add	r3, r3, r1, lsl #2
 372 01b8 0DF62412 		addw	r2, sp, #2340
 373 01bc 1344     		add	r3, r3, r2
 374 01be 0433     		adds	r3, r3, #4
 375 01c0 93E80300 		ldmia	r3, {r0, r1}
 376 01c4 84E80300 		stmia	r4, {r0, r1}
 377              	.L22:
 117:functions.c   ****     while (current.x != startX || current.y != startY) {
 378              		.loc 1 117 0
 379 01c8 039B     		ldr	r3, [sp, #12]
 380 01ca 9945     		cmp	r9, r3
ARM GAS  C:\Users\dulan\AppData\Local\Temp\cc2rW5FH.s 			page 10


 381 01cc E1D1     		bne	.L23
 117:functions.c   ****     while (current.x != startX || current.y != startY) {
 382              		.loc 1 117 0 is_stmt 0 discriminator 1
 383 01ce 049A     		ldr	r2, [sp, #16]
 384 01d0 9345     		cmp	fp, r2
 385 01d2 DED1     		bne	.L23
 386              	.LBB12:
 120:functions.c   ****     }
 121:functions.c   ****    
 122:functions.c   **** 
 123:functions.c   ****    
 124:functions.c   **** 
 125:functions.c   ****     // Reverse the path and store it in pathCoordinates
 126:functions.c   ****     for (int j = pathLength - 1, k = 0; j >= 0; j--, k++) {
 387              		.loc 1 126 0 is_stmt 1
 388 01d4 0E4B     		ldr	r3, .L29+8
 389 01d6 1B68     		ldr	r3, [r3]
 390 01d8 013B     		subs	r3, r3, #1
 391              	.LVL35:
 392 01da 0020     		movs	r0, #0
 393 01dc 0DE0     		b	.L24
 394              	.LVL36:
 395              	.L25:
 127:functions.c   ****         path[k].x = tempPath[j].x;
 396              		.loc 1 127 0 discriminator 3
 397 01de 05A9     		add	r1, sp, #20
 398 01e0 51F83340 		ldr	r4, [r1, r3, lsl #3]
 399 01e4 0B4A     		ldr	r2, .L29+12
 400 01e6 42F83040 		str	r4, [r2, r0, lsl #3]
 128:functions.c   ****         path[k].y = tempPath[j].y;
 401              		.loc 1 128 0 discriminator 3
 402 01ea 01EBC301 		add	r1, r1, r3, lsl #3
 403 01ee 4968     		ldr	r1, [r1, #4]
 404 01f0 02EBC002 		add	r2, r2, r0, lsl #3
 405 01f4 5160     		str	r1, [r2, #4]
 126:functions.c   ****         path[k].x = tempPath[j].x;
 406              		.loc 1 126 0 discriminator 3
 407 01f6 013B     		subs	r3, r3, #1
 408              	.LVL37:
 409 01f8 0130     		adds	r0, r0, #1
 410              	.LVL38:
 411              	.L24:
 126:functions.c   ****         path[k].x = tempPath[j].x;
 412              		.loc 1 126 0 is_stmt 0 discriminator 1
 413 01fa 002B     		cmp	r3, #0
 414 01fc EFDA     		bge	.L25
 415              	.LBE12:
 129:functions.c   ****     }
 130:functions.c   ****    
 131:functions.c   **** 
 132:functions.c   **** }
 416              		.loc 1 132 0 is_stmt 1
 417 01fe 0DF5B45D 		add	sp, sp, #5760
 418 0202 01B0     		add	sp, sp, #4
 419              		.cfi_def_cfa_offset 36
 420              		@ sp needed
 421 0204 BDE8F08F 		pop	{r4, r5, r6, r7, r8, r9, r10, fp, pc}
ARM GAS  C:\Users\dulan\AppData\Local\Temp\cc2rW5FH.s 			page 11


 422              	.LVL39:
 423              	.L30:
 424              		.align	2
 425              	.L29:
 426 0208 00000000 		.word	.LANCHOR0
 427 020c 00000000 		.word	.LANCHOR1
 428 0210 00000000 		.word	.LANCHOR2
 429 0214 00000000 		.word	path
 430              		.cfi_endproc
 431              	.LFE66:
 432              		.size	dijkstra, .-dijkstra
 433              		.global	__aeabi_i2d
 434              		.global	__aeabi_dmul
 435              		.global	__aeabi_d2iz
 436              		.section	.text.getDistance_H,"ax",%progbits
 437              		.align	2
 438              		.global	getDistance_H
 439              		.thumb
 440              		.thumb_func
 441              		.type	getDistance_H, %function
 442              	getDistance_H:
 443              	.LFB67:
 133:functions.c   **** 
 134:functions.c   **** int getDistance_H(int stepCount){
 444              		.loc 1 134 0
 445              		.cfi_startproc
 446              		@ args = 0, pretend = 0, frame = 0
 447              		@ frame_needed = 0, uses_anonymous_args = 0
 448              	.LVL40:
 449 0000 08B5     		push	{r3, lr}
 450              		.cfi_def_cfa_offset 8
 451              		.cfi_offset 3, -8
 452              		.cfi_offset 14, -4
 135:functions.c   ****     if(stepCount<4){
 453              		.loc 1 135 0
 454 0002 0328     		cmp	r0, #3
 455 0004 09DC     		bgt	.L32
 136:functions.c   ****         return stepCount*7.9;
 456              		.loc 1 136 0
 457 0006 FFF7FEFF 		bl	__aeabi_i2d
 458              	.LVL41:
 459 000a 19A3     		adr	r3, .L38
 460 000c D3E90023 		ldrd	r2, [r3]
 461 0010 FFF7FEFF 		bl	__aeabi_dmul
 462              	.LVL42:
 463 0014 FFF7FEFF 		bl	__aeabi_d2iz
 464              	.LVL43:
 465 0018 08BD     		pop	{r3, pc}
 466              	.LVL44:
 467              	.L32:
 137:functions.c   ****     }else if(stepCount<6){
 468              		.loc 1 137 0
 469 001a 0528     		cmp	r0, #5
 470 001c 09DC     		bgt	.L34
 138:functions.c   ****         return stepCount*9.8;
 471              		.loc 1 138 0
 472 001e FFF7FEFF 		bl	__aeabi_i2d
ARM GAS  C:\Users\dulan\AppData\Local\Temp\cc2rW5FH.s 			page 12


 473              	.LVL45:
 474 0022 15A3     		adr	r3, .L38+8
 475 0024 D3E90023 		ldrd	r2, [r3]
 476 0028 FFF7FEFF 		bl	__aeabi_dmul
 477              	.LVL46:
 478 002c FFF7FEFF 		bl	__aeabi_d2iz
 479              	.LVL47:
 480 0030 08BD     		pop	{r3, pc}
 481              	.LVL48:
 482              	.L34:
 139:functions.c   ****     }else if(stepCount<8){
 483              		.loc 1 139 0
 484 0032 0728     		cmp	r0, #7
 485 0034 09DC     		bgt	.L35
 140:functions.c   ****         return stepCount*10.7;
 486              		.loc 1 140 0
 487 0036 FFF7FEFF 		bl	__aeabi_i2d
 488              	.LVL49:
 489 003a 11A3     		adr	r3, .L38+16
 490 003c D3E90023 		ldrd	r2, [r3]
 491 0040 FFF7FEFF 		bl	__aeabi_dmul
 492              	.LVL50:
 493 0044 FFF7FEFF 		bl	__aeabi_d2iz
 494              	.LVL51:
 495 0048 08BD     		pop	{r3, pc}
 496              	.LVL52:
 497              	.L35:
 141:functions.c   ****     }else if(stepCount<10){
 498              		.loc 1 141 0
 499 004a 0928     		cmp	r0, #9
 500 004c 09DC     		bgt	.L36
 142:functions.c   ****         return stepCount*11.1;
 501              		.loc 1 142 0
 502 004e FFF7FEFF 		bl	__aeabi_i2d
 503              	.LVL53:
 504 0052 0DA3     		adr	r3, .L38+24
 505 0054 D3E90023 		ldrd	r2, [r3]
 506 0058 FFF7FEFF 		bl	__aeabi_dmul
 507              	.LVL54:
 508 005c FFF7FEFF 		bl	__aeabi_d2iz
 509              	.LVL55:
 510 0060 08BD     		pop	{r3, pc}
 511              	.LVL56:
 512              	.L36:
 143:functions.c   ****     }else{
 144:functions.c   ****         return stepCount*11;
 513              		.loc 1 144 0
 514 0062 00EB8003 		add	r3, r0, r0, lsl #2
 515 0066 00EB4300 		add	r0, r0, r3, lsl #1
 516              	.LVL57:
 145:functions.c   ****     }
 146:functions.c   ****     
 147:functions.c   **** }
 517              		.loc 1 147 0
 518 006a 08BD     		pop	{r3, pc}
 519              	.L39:
 520 006c AFF30080 		.align	3
ARM GAS  C:\Users\dulan\AppData\Local\Temp\cc2rW5FH.s 			page 13


 521              	.L38:
 522 0070 9A999999 		.word	-1717986918
 523 0074 99991F40 		.word	1075812761
 524 0078 9A999999 		.word	-1717986918
 525 007c 99992340 		.word	1076074905
 526 0080 66666666 		.word	1717986918
 527 0084 66662540 		.word	1076192870
 528 0088 33333333 		.word	858993459
 529 008c 33332640 		.word	1076245299
 530              		.cfi_endproc
 531              	.LFE67:
 532              		.size	getDistance_H, .-getDistance_H
 533              		.section	.text.getDistance_V,"ax",%progbits
 534              		.align	2
 535              		.global	getDistance_V
 536              		.thumb
 537              		.thumb_func
 538              		.type	getDistance_V, %function
 539              	getDistance_V:
 540              	.LFB68:
 148:functions.c   **** 
 149:functions.c   **** 
 150:functions.c   **** int getDistance_V(int stepCount){
 541              		.loc 1 150 0
 542              		.cfi_startproc
 543              		@ args = 0, pretend = 0, frame = 0
 544              		@ frame_needed = 0, uses_anonymous_args = 0
 545              	.LVL58:
 546 0000 08B5     		push	{r3, lr}
 547              		.cfi_def_cfa_offset 8
 548              		.cfi_offset 3, -8
 549              		.cfi_offset 14, -4
 151:functions.c   ****     if(stepCount<4){
 550              		.loc 1 151 0
 551 0002 0328     		cmp	r0, #3
 552 0004 08DC     		bgt	.L41
 152:functions.c   ****         return stepCount*5.5;
 553              		.loc 1 152 0
 554 0006 FFF7FEFF 		bl	__aeabi_i2d
 555              	.LVL59:
 556 000a 0022     		movs	r2, #0
 557 000c 1C4B     		ldr	r3, .L47+24
 558 000e FFF7FEFF 		bl	__aeabi_dmul
 559              	.LVL60:
 560 0012 FFF7FEFF 		bl	__aeabi_d2iz
 561              	.LVL61:
 562 0016 08BD     		pop	{r3, pc}
 563              	.LVL62:
 564              	.L41:
 153:functions.c   ****     }else if(stepCount<6){
 565              		.loc 1 153 0
 566 0018 0528     		cmp	r0, #5
 567 001a 09DC     		bgt	.L43
 154:functions.c   ****         return stepCount*6.9;
 568              		.loc 1 154 0
 569 001c FFF7FEFF 		bl	__aeabi_i2d
 570              	.LVL63:
ARM GAS  C:\Users\dulan\AppData\Local\Temp\cc2rW5FH.s 			page 14


 571 0020 11A3     		adr	r3, .L47
 572 0022 D3E90023 		ldrd	r2, [r3]
 573 0026 FFF7FEFF 		bl	__aeabi_dmul
 574              	.LVL64:
 575 002a FFF7FEFF 		bl	__aeabi_d2iz
 576              	.LVL65:
 577 002e 08BD     		pop	{r3, pc}
 578              	.LVL66:
 579              	.L43:
 155:functions.c   ****     }else if(stepCount<8){
 580              		.loc 1 155 0
 581 0030 0728     		cmp	r0, #7
 582 0032 09DC     		bgt	.L44
 156:functions.c   ****         return stepCount*7.3;
 583              		.loc 1 156 0
 584 0034 FFF7FEFF 		bl	__aeabi_i2d
 585              	.LVL67:
 586 0038 0DA3     		adr	r3, .L47+8
 587 003a D3E90023 		ldrd	r2, [r3]
 588 003e FFF7FEFF 		bl	__aeabi_dmul
 589              	.LVL68:
 590 0042 FFF7FEFF 		bl	__aeabi_d2iz
 591              	.LVL69:
 592 0046 08BD     		pop	{r3, pc}
 593              	.LVL70:
 594              	.L44:
 157:functions.c   ****     }else if(stepCount<10){
 595              		.loc 1 157 0
 596 0048 0928     		cmp	r0, #9
 597 004a 09DC     		bgt	.L45
 158:functions.c   ****         return stepCount*7.7;
 598              		.loc 1 158 0
 599 004c FFF7FEFF 		bl	__aeabi_i2d
 600              	.LVL71:
 601 0050 09A3     		adr	r3, .L47+16
 602 0052 D3E90023 		ldrd	r2, [r3]
 603 0056 FFF7FEFF 		bl	__aeabi_dmul
 604              	.LVL72:
 605 005a FFF7FEFF 		bl	__aeabi_d2iz
 606              	.LVL73:
 607 005e 08BD     		pop	{r3, pc}
 608              	.LVL74:
 609              	.L45:
 159:functions.c   ****     }else{
 160:functions.c   ****         return stepCount*8;
 610              		.loc 1 160 0
 611 0060 C000     		lsls	r0, r0, #3
 612              	.LVL75:
 161:functions.c   ****     }
 162:functions.c   ****     
 163:functions.c   **** }
 613              		.loc 1 163 0
 614 0062 08BD     		pop	{r3, pc}
 615              	.L48:
 616 0064 AFF30080 		.align	3
 617              	.L47:
 618 0068 9A999999 		.word	-1717986918
ARM GAS  C:\Users\dulan\AppData\Local\Temp\cc2rW5FH.s 			page 15


 619 006c 99991B40 		.word	1075550617
 620 0070 33333333 		.word	858993459
 621 0074 33331D40 		.word	1075655475
 622 0078 CDCCCCCC 		.word	-858993459
 623 007c CCCC1E40 		.word	1075760332
 624 0080 00001640 		.word	1075183616
 625              		.cfi_endproc
 626              	.LFE68:
 627              		.size	getDistance_V, .-getDistance_V
 628              		.section	.text.getMovementArray,"ax",%progbits
 629              		.align	2
 630              		.global	getMovementArray
 631              		.thumb
 632              		.thumb_func
 633              		.type	getMovementArray, %function
 634              	getMovementArray:
 635              	.LFB69:
 164:functions.c   **** 
 165:functions.c   **** //input order are start row, column, target row, column
 166:functions.c   **** //input order are start row, column, target row, column
 167:functions.c   **** void getMovementArray(int start_row,int start_column,int target_row,int target_column,RobotDirectio
 636              		.loc 1 167 0
 637              		.cfi_startproc
 638              		@ args = 4, pretend = 0, frame = 0
 639              		@ frame_needed = 0, uses_anonymous_args = 0
 640              	.LVL76:
 641 0000 2DE9F047 		push	{r4, r5, r6, r7, r8, r9, r10, lr}
 642              		.cfi_def_cfa_offset 32
 643              		.cfi_offset 4, -32
 644              		.cfi_offset 5, -28
 645              		.cfi_offset 6, -24
 646              		.cfi_offset 7, -20
 647              		.cfi_offset 8, -16
 648              		.cfi_offset 9, -12
 649              		.cfi_offset 10, -8
 650              		.cfi_offset 14, -4
 651 0004 1746     		mov	r7, r2
 652 0006 9946     		mov	r9, r3
 653 0008 9DF82060 		ldrb	r6, [sp, #32]	@ zero_extendqisi2
 654              	.LVL77:
 655              	.LBB13:
 168:functions.c   **** 
 169:functions.c   ****     int stepCount = -1;
 170:functions.c   ****     int position = -1;
 171:functions.c   ****     
 172:functions.c   ****     //naming error
 173:functions.c   ****     int current_row=start_row;
 174:functions.c   ****     int current_column=start_column;
 175:functions.c   **** 
 176:functions.c   ****     for (int i = 0; i < pathLength; i++) {
 656              		.loc 1 176 0
 657 000c 0024     		movs	r4, #0
 658              	.LBE13:
 170:functions.c   ****     
 659              		.loc 1 170 0
 660 000e 4FF0FF38 		mov	r8, #-1
 169:functions.c   ****     int position = -1;
ARM GAS  C:\Users\dulan\AppData\Local\Temp\cc2rW5FH.s 			page 16


 661              		.loc 1 169 0
 662 0012 4246     		mov	r2, r8
 663              	.LVL78:
 664              	.LBB15:
 665              		.loc 1 176 0
 666 0014 F7E0     		b	.L50
 667              	.LVL79:
 668              	.L70:
 669              	.LBB14:
 177:functions.c   ****         int next_row = path[i].x;
 670              		.loc 1 177 0
 671 0016 7F4B     		ldr	r3, .L72
 672 0018 53F83450 		ldr	r5, [r3, r4, lsl #3]
 673              	.LVL80:
 178:functions.c   ****         int next_column = path[i].y;
 674              		.loc 1 178 0
 675 001c 03EBC403 		add	r3, r3, r4, lsl #3
 676 0020 D3F804A0 		ldr	r10, [r3, #4]
 677              	.LVL81:
 179:functions.c   **** 
 180:functions.c   **** 
 181:functions.c   **** 
 182:functions.c   ****         if(current_row == target_row && current_column == target_column ){
 678              		.loc 1 182 0
 679 0024 B842     		cmp	r0, r7
 680 0026 1DD1     		bne	.L51
 681              		.loc 1 182 0 is_stmt 0 discriminator 1
 682 0028 4945     		cmp	r1, r9
 683 002a 1BD1     		bne	.L51
 183:functions.c   ****                     stepCount+=2;
 684              		.loc 1 183 0 is_stmt 1
 685 002c 901C     		adds	r0, r2, #2
 686              	.LVL82:
 184:functions.c   ****                     position++;
 687              		.loc 1 184 0
 688 002e 08F10108 		add	r8, r8, #1
 689              	.LVL83:
 185:functions.c   ****                     if(current_direction==EAST ||current_direction==WEST){
 690              		.loc 1 185 0
 691 0032 012E     		cmp	r6, #1
 692 0034 01D0     		beq	.L52
 693              		.loc 1 185 0 is_stmt 0 discriminator 1
 694 0036 032E     		cmp	r6, #3
 695 0038 05D1     		bne	.L53
 696              	.L52:
 186:functions.c   ****                         movementArray[position].distance = getDistance_H(stepCount);
 697              		.loc 1 186 0 is_stmt 1
 698 003a FFF7FEFF 		bl	getDistance_H
 699              	.LVL84:
 700 003e 764B     		ldr	r3, .L72+4
 701 0040 43F83800 		str	r0, [r3, r8, lsl #3]
 702 0044 04E0     		b	.L54
 703              	.LVL85:
 704              	.L53:
 187:functions.c   ****                     }else{
 188:functions.c   ****                         movementArray[position].distance = getDistance_V(stepCount);
 705              		.loc 1 188 0
ARM GAS  C:\Users\dulan\AppData\Local\Temp\cc2rW5FH.s 			page 17


 706 0046 FFF7FEFF 		bl	getDistance_V
 707              	.LVL86:
 708 004a 734B     		ldr	r3, .L72+4
 709 004c 43F83800 		str	r0, [r3, r8, lsl #3]
 710              	.L54:
 189:functions.c   ****                     }
 190:functions.c   ****                     movementArray[position].turnDirection = 'E';
 711              		.loc 1 190 0
 712 0050 714B     		ldr	r3, .L72+4
 713 0052 03EBC808 		add	r8, r3, r8, lsl #3
 714              	.LVL87:
 715 0056 4523     		movs	r3, #69
 716 0058 88F80430 		strb	r3, [r8, #4]
 191:functions.c   ****                     robot_direction=current_direction;
 717              		.loc 1 191 0
 718 005c 6F4B     		ldr	r3, .L72+8
 719 005e 1E70     		strb	r6, [r3]
 192:functions.c   ****                     break;
 720              		.loc 1 192 0
 721 0060 BDE8F087 		pop	{r4, r5, r6, r7, r8, r9, r10, pc}
 722              	.LVL88:
 723              	.L51:
 193:functions.c   ****         }
 194:functions.c   ****         
 195:functions.c   **** 
 196:functions.c   ****         switch (current_direction) {
 724              		.loc 1 196 0
 725 0064 032E     		cmp	r6, #3
 726 0066 00F2CD80 		bhi	.L56
 727 006a DFE806F0 		tbb	[pc, r6]
 728              	.L58:
 729 006e 02       		.byte	(.L57-.L58)/2
 730 006f 36       		.byte	(.L59-.L58)/2
 731 0070 68       		.byte	(.L60-.L58)/2
 732 0071 9A       		.byte	(.L61-.L58)/2
 733              		.p2align 1
 734              	.L57:
 197:functions.c   ****             case NORTH:
 198:functions.c   ****                 if (next_row<current_row && next_column == current_column) { 
 735              		.loc 1 198 0
 736 0072 A842     		cmp	r0, r5
 737 0074 05DD     		ble	.L62
 738              		.loc 1 198 0 is_stmt 0 discriminator 1
 739 0076 5145     		cmp	r1, r10
 740 0078 03D1     		bne	.L62
 199:functions.c   ****                     // Go straight
 200:functions.c   ****                     stepCount++;
 741              		.loc 1 200 0 is_stmt 1
 742 007a 0132     		adds	r2, r2, #1
 743              	.LVL89:
 201:functions.c   ****                     current_row = next_row; // Update coordinates
 202:functions.c   ****                     current_column = next_column;
 744              		.loc 1 202 0
 745 007c 5146     		mov	r1, r10
 201:functions.c   ****                     current_row = next_row; // Update coordinates
 746              		.loc 1 201 0
 747 007e 2846     		mov	r0, r5
ARM GAS  C:\Users\dulan\AppData\Local\Temp\cc2rW5FH.s 			page 18


 203:functions.c   ****                     continue; 
 748              		.loc 1 203 0
 749 0080 C0E0     		b	.L56
 750              	.LVL90:
 751              	.L62:
 204:functions.c   ****                 } else if (next_row==current_row && next_column > current_column) {
 752              		.loc 1 204 0
 753 0082 A842     		cmp	r0, r5
 754 0084 12D1     		bne	.L63
 755              		.loc 1 204 0 is_stmt 0 discriminator 1
 756 0086 5145     		cmp	r1, r10
 757 0088 10DA     		bge	.L63
 758              	.LVL91:
 205:functions.c   ****                     // Turn right
 206:functions.c   ****                     stepCount+=2;
 207:functions.c   ****                     position++;
 759              		.loc 1 207 0 is_stmt 1
 760 008a 08F10108 		add	r8, r8, #1
 761              	.LVL92:
 208:functions.c   ****                     movementArray[position].distance = getDistance_V(stepCount);
 762              		.loc 1 208 0
 763 008e 901C     		adds	r0, r2, #2
 764              	.LVL93:
 765 0090 FFF7FEFF 		bl	getDistance_V
 766              	.LVL94:
 767 0094 604B     		ldr	r3, .L72+4
 768 0096 43F83800 		str	r0, [r3, r8, lsl #3]
 209:functions.c   ****                     movementArray[position].turnDirection = 'R';
 769              		.loc 1 209 0
 770 009a 03EBC803 		add	r3, r3, r8, lsl #3
 771 009e 5222     		movs	r2, #82
 772 00a0 1A71     		strb	r2, [r3, #4]
 773              	.LVL95:
 210:functions.c   ****                     current_row = next_row; // Update coordinates
 211:functions.c   ****                     current_column = next_column;
 774              		.loc 1 211 0
 775 00a2 5146     		mov	r1, r10
 210:functions.c   ****                     current_row = next_row; // Update coordinates
 776              		.loc 1 210 0
 777 00a4 2846     		mov	r0, r5
 212:functions.c   ****                     stepCount = 0;
 778              		.loc 1 212 0
 779 00a6 0022     		movs	r2, #0
 213:functions.c   ****                     current_direction = EAST;
 780              		.loc 1 213 0
 781 00a8 0126     		movs	r6, #1
 782 00aa ABE0     		b	.L56
 783              	.LVL96:
 784              	.L63:
 214:functions.c   ****                 } else if (next_row==current_row && next_column < current_column) {
 785              		.loc 1 214 0
 786 00ac A842     		cmp	r0, r5
 787 00ae 40F0A980 		bne	.L56
 788              		.loc 1 214 0 is_stmt 0 discriminator 1
 789 00b2 5145     		cmp	r1, r10
 790 00b4 40F3A680 		ble	.L56
 791              	.LVL97:
ARM GAS  C:\Users\dulan\AppData\Local\Temp\cc2rW5FH.s 			page 19


 215:functions.c   ****                     // Turn left
 216:functions.c   ****                     stepCount+=2;
 217:functions.c   ****                     position++;
 792              		.loc 1 217 0 is_stmt 1
 793 00b8 08F10108 		add	r8, r8, #1
 794              	.LVL98:
 218:functions.c   ****                     movementArray[position].distance =getDistance_V(stepCount);
 795              		.loc 1 218 0
 796 00bc 901C     		adds	r0, r2, #2
 797              	.LVL99:
 798 00be FFF7FEFF 		bl	getDistance_V
 799              	.LVL100:
 800 00c2 554B     		ldr	r3, .L72+4
 801 00c4 43F83800 		str	r0, [r3, r8, lsl #3]
 219:functions.c   ****                     movementArray[position].turnDirection = 'L';
 802              		.loc 1 219 0
 803 00c8 03EBC803 		add	r3, r3, r8, lsl #3
 804 00cc 4C22     		movs	r2, #76
 805 00ce 1A71     		strb	r2, [r3, #4]
 806              	.LVL101:
 220:functions.c   ****                     current_row = next_row; // Update coordinates
 221:functions.c   ****                     current_column = next_column;
 807              		.loc 1 221 0
 808 00d0 5146     		mov	r1, r10
 220:functions.c   ****                     current_row = next_row; // Update coordinates
 809              		.loc 1 220 0
 810 00d2 2846     		mov	r0, r5
 222:functions.c   ****                     stepCount = 0;
 811              		.loc 1 222 0
 812 00d4 0022     		movs	r2, #0
 223:functions.c   ****                     current_direction = WEST;
 813              		.loc 1 223 0
 814 00d6 0326     		movs	r6, #3
 815 00d8 94E0     		b	.L56
 816              	.LVL102:
 817              	.L59:
 224:functions.c   ****                 }
 225:functions.c   ****                 break;
 226:functions.c   ****                 
 227:functions.c   ****                 
 228:functions.c   ****             case EAST:
 229:functions.c   ****                 if (next_row==current_row && next_column > current_column) { 
 818              		.loc 1 229 0
 819 00da A842     		cmp	r0, r5
 820 00dc 05D1     		bne	.L64
 821              		.loc 1 229 0 is_stmt 0 discriminator 1
 822 00de 5145     		cmp	r1, r10
 823 00e0 03DA     		bge	.L64
 230:functions.c   ****                     // Go straight
 231:functions.c   ****                     stepCount++;
 824              		.loc 1 231 0 is_stmt 1
 825 00e2 0132     		adds	r2, r2, #1
 826              	.LVL103:
 232:functions.c   ****                     current_row = next_row; // Update coordinates
 233:functions.c   ****                     current_column = next_column;
 827              		.loc 1 233 0
 828 00e4 5146     		mov	r1, r10
ARM GAS  C:\Users\dulan\AppData\Local\Temp\cc2rW5FH.s 			page 20


 232:functions.c   ****                     current_row = next_row; // Update coordinates
 829              		.loc 1 232 0
 830 00e6 2846     		mov	r0, r5
 234:functions.c   ****                     continue; // Skip the rest of this iteration and go to the next
 831              		.loc 1 234 0
 832 00e8 8CE0     		b	.L56
 833              	.LVL104:
 834              	.L64:
 235:functions.c   ****                 } else if (next_row>current_row && next_column == current_column) {
 835              		.loc 1 235 0
 836 00ea A842     		cmp	r0, r5
 837 00ec 12DA     		bge	.L65
 838              		.loc 1 235 0 is_stmt 0 discriminator 1
 839 00ee 5145     		cmp	r1, r10
 840 00f0 10D1     		bne	.L65
 841              	.LVL105:
 236:functions.c   ****                     // Turn right
 237:functions.c   ****                     stepCount+=2;
 238:functions.c   ****                     position++;
 842              		.loc 1 238 0 is_stmt 1
 843 00f2 08F10108 		add	r8, r8, #1
 844              	.LVL106:
 239:functions.c   ****                     movementArray[position].distance = getDistance_H(stepCount);
 845              		.loc 1 239 0
 846 00f6 901C     		adds	r0, r2, #2
 847              	.LVL107:
 848 00f8 FFF7FEFF 		bl	getDistance_H
 849              	.LVL108:
 850 00fc 464B     		ldr	r3, .L72+4
 851 00fe 43F83800 		str	r0, [r3, r8, lsl #3]
 240:functions.c   ****                     movementArray[position].turnDirection = 'R';
 852              		.loc 1 240 0
 853 0102 03EBC803 		add	r3, r3, r8, lsl #3
 854 0106 5222     		movs	r2, #82
 855 0108 1A71     		strb	r2, [r3, #4]
 856              	.LVL109:
 241:functions.c   ****                     current_row = next_row; // Update coordinates
 242:functions.c   ****                     current_column = next_column;
 857              		.loc 1 242 0
 858 010a 5146     		mov	r1, r10
 241:functions.c   ****                     current_row = next_row; // Update coordinates
 859              		.loc 1 241 0
 860 010c 2846     		mov	r0, r5
 243:functions.c   ****                     stepCount = 0;
 861              		.loc 1 243 0
 862 010e 0022     		movs	r2, #0
 244:functions.c   ****                     current_direction = SOUTH;   
 863              		.loc 1 244 0
 864 0110 0226     		movs	r6, #2
 865 0112 77E0     		b	.L56
 866              	.LVL110:
 867              	.L65:
 245:functions.c   ****                 } else if (next_row<current_row && next_column == current_column) {
 868              		.loc 1 245 0
 869 0114 A842     		cmp	r0, r5
 870 0116 75DD     		ble	.L56
 871              		.loc 1 245 0 is_stmt 0 discriminator 1
ARM GAS  C:\Users\dulan\AppData\Local\Temp\cc2rW5FH.s 			page 21


 872 0118 5145     		cmp	r1, r10
 873 011a 73D1     		bne	.L56
 874              	.LVL111:
 246:functions.c   ****                     // Turn left
 247:functions.c   ****                     stepCount+=2;
 248:functions.c   ****                     position++;
 875              		.loc 1 248 0 is_stmt 1
 876 011c 08F10108 		add	r8, r8, #1
 877              	.LVL112:
 249:functions.c   ****                     movementArray[position].distance = getDistance_H(stepCount);
 878              		.loc 1 249 0
 879 0120 901C     		adds	r0, r2, #2
 880              	.LVL113:
 881 0122 FFF7FEFF 		bl	getDistance_H
 882              	.LVL114:
 883 0126 3C4B     		ldr	r3, .L72+4
 884 0128 43F83800 		str	r0, [r3, r8, lsl #3]
 250:functions.c   ****                     movementArray[position].turnDirection = 'L';
 885              		.loc 1 250 0
 886 012c 03EBC803 		add	r3, r3, r8, lsl #3
 887 0130 4C22     		movs	r2, #76
 888 0132 1A71     		strb	r2, [r3, #4]
 889              	.LVL115:
 251:functions.c   ****                     current_row = next_row; // Update coordinates
 252:functions.c   ****                     current_column = next_column;
 890              		.loc 1 252 0
 891 0134 5146     		mov	r1, r10
 251:functions.c   ****                     current_row = next_row; // Update coordinates
 892              		.loc 1 251 0
 893 0136 2846     		mov	r0, r5
 253:functions.c   ****                     stepCount = 0;
 894              		.loc 1 253 0
 895 0138 0022     		movs	r2, #0
 254:functions.c   ****                     current_direction = NORTH;
 896              		.loc 1 254 0
 897 013a 1646     		mov	r6, r2
 898 013c 62E0     		b	.L56
 899              	.LVL116:
 900              	.L60:
 255:functions.c   ****                 }
 256:functions.c   ****                 break;
 257:functions.c   **** 
 258:functions.c   ****             case SOUTH:
 259:functions.c   ****                 if (next_row>current_row && next_column == current_column) { 
 901              		.loc 1 259 0
 902 013e A842     		cmp	r0, r5
 903 0140 05DA     		bge	.L66
 904              		.loc 1 259 0 is_stmt 0 discriminator 1
 905 0142 5145     		cmp	r1, r10
 906 0144 03D1     		bne	.L66
 260:functions.c   ****                     // Go straight
 261:functions.c   ****                     stepCount++;
 907              		.loc 1 261 0 is_stmt 1
 908 0146 0132     		adds	r2, r2, #1
 909              	.LVL117:
 262:functions.c   ****                     current_row = next_row; // Update coordinates
 263:functions.c   ****                     current_column = next_column;
ARM GAS  C:\Users\dulan\AppData\Local\Temp\cc2rW5FH.s 			page 22


 910              		.loc 1 263 0
 911 0148 5146     		mov	r1, r10
 262:functions.c   ****                     current_row = next_row; // Update coordinates
 912              		.loc 1 262 0
 913 014a 2846     		mov	r0, r5
 264:functions.c   ****                     continue; 
 914              		.loc 1 264 0
 915 014c 5AE0     		b	.L56
 916              	.LVL118:
 917              	.L66:
 265:functions.c   ****                 } else if (next_row==current_row && next_column < current_column) {
 918              		.loc 1 265 0
 919 014e A842     		cmp	r0, r5
 920 0150 12D1     		bne	.L67
 921              		.loc 1 265 0 is_stmt 0 discriminator 1
 922 0152 5145     		cmp	r1, r10
 923 0154 10DD     		ble	.L67
 924              	.LVL119:
 266:functions.c   ****                     // Turn right
 267:functions.c   ****                     stepCount+=2;
 268:functions.c   ****                     position++;
 925              		.loc 1 268 0 is_stmt 1
 926 0156 08F10108 		add	r8, r8, #1
 927              	.LVL120:
 269:functions.c   ****                     movementArray[position].distance = getDistance_V(stepCount);
 928              		.loc 1 269 0
 929 015a 901C     		adds	r0, r2, #2
 930              	.LVL121:
 931 015c FFF7FEFF 		bl	getDistance_V
 932              	.LVL122:
 933 0160 2D4B     		ldr	r3, .L72+4
 934 0162 43F83800 		str	r0, [r3, r8, lsl #3]
 270:functions.c   ****                     movementArray[position].turnDirection = 'R';
 935              		.loc 1 270 0
 936 0166 03EBC803 		add	r3, r3, r8, lsl #3
 937 016a 5222     		movs	r2, #82
 938 016c 1A71     		strb	r2, [r3, #4]
 939              	.LVL123:
 271:functions.c   ****                     current_row = next_row; // Update coordinates
 272:functions.c   ****                     current_column = next_column;
 940              		.loc 1 272 0
 941 016e 5146     		mov	r1, r10
 271:functions.c   ****                     current_row = next_row; // Update coordinates
 942              		.loc 1 271 0
 943 0170 2846     		mov	r0, r5
 273:functions.c   ****                     stepCount = 0;
 944              		.loc 1 273 0
 945 0172 0022     		movs	r2, #0
 274:functions.c   ****                     current_direction = WEST;
 946              		.loc 1 274 0
 947 0174 0326     		movs	r6, #3
 948 0176 45E0     		b	.L56
 949              	.LVL124:
 950              	.L67:
 275:functions.c   ****                 } else if (next_row==current_row && next_column > current_column) {
 951              		.loc 1 275 0
 952 0178 A842     		cmp	r0, r5
ARM GAS  C:\Users\dulan\AppData\Local\Temp\cc2rW5FH.s 			page 23


 953 017a 43D1     		bne	.L56
 954              		.loc 1 275 0 is_stmt 0 discriminator 1
 955 017c 5145     		cmp	r1, r10
 956 017e 41DA     		bge	.L56
 957              	.LVL125:
 276:functions.c   ****                     // Turn left
 277:functions.c   ****                     stepCount+=2;
 278:functions.c   ****                     position++;
 958              		.loc 1 278 0 is_stmt 1
 959 0180 08F10108 		add	r8, r8, #1
 960              	.LVL126:
 279:functions.c   ****                     movementArray[position].distance = getDistance_V(stepCount);
 961              		.loc 1 279 0
 962 0184 901C     		adds	r0, r2, #2
 963              	.LVL127:
 964 0186 FFF7FEFF 		bl	getDistance_V
 965              	.LVL128:
 966 018a 234B     		ldr	r3, .L72+4
 967 018c 43F83800 		str	r0, [r3, r8, lsl #3]
 280:functions.c   ****                     movementArray[position].turnDirection = 'L';
 968              		.loc 1 280 0
 969 0190 03EBC803 		add	r3, r3, r8, lsl #3
 970 0194 4C22     		movs	r2, #76
 971 0196 1A71     		strb	r2, [r3, #4]
 972              	.LVL129:
 281:functions.c   ****                     current_row = next_row; // Update coordinates
 282:functions.c   ****                     current_column = next_column;
 973              		.loc 1 282 0
 974 0198 5146     		mov	r1, r10
 281:functions.c   ****                     current_row = next_row; // Update coordinates
 975              		.loc 1 281 0
 976 019a 2846     		mov	r0, r5
 283:functions.c   ****                     stepCount = 0;
 977              		.loc 1 283 0
 978 019c 0022     		movs	r2, #0
 284:functions.c   ****                     current_direction = EAST;
 979              		.loc 1 284 0
 980 019e 0126     		movs	r6, #1
 981 01a0 30E0     		b	.L56
 982              	.LVL130:
 983              	.L61:
 285:functions.c   ****                 }
 286:functions.c   ****                 break;
 287:functions.c   ****                 
 288:functions.c   ****                 
 289:functions.c   ****             case WEST:
 290:functions.c   ****                 if (next_row==current_row && next_column < current_column) { 
 984              		.loc 1 290 0
 985 01a2 A842     		cmp	r0, r5
 986 01a4 05D1     		bne	.L68
 987              		.loc 1 290 0 is_stmt 0 discriminator 1
 988 01a6 5145     		cmp	r1, r10
 989 01a8 03DD     		ble	.L68
 291:functions.c   ****                     // Go straight
 292:functions.c   ****                     stepCount++;
 990              		.loc 1 292 0 is_stmt 1
 991 01aa 0132     		adds	r2, r2, #1
ARM GAS  C:\Users\dulan\AppData\Local\Temp\cc2rW5FH.s 			page 24


 992              	.LVL131:
 293:functions.c   ****                     current_row = next_row; // Update coordinates
 294:functions.c   ****                     current_column = next_column;
 993              		.loc 1 294 0
 994 01ac 5146     		mov	r1, r10
 293:functions.c   ****                     current_row = next_row; // Update coordinates
 995              		.loc 1 293 0
 996 01ae 2846     		mov	r0, r5
 295:functions.c   ****                     continue; 
 997              		.loc 1 295 0
 998 01b0 28E0     		b	.L56
 999              	.LVL132:
 1000              	.L68:
 296:functions.c   ****                 } else if (next_row<current_row && next_column == current_column) {
 1001              		.loc 1 296 0
 1002 01b2 A842     		cmp	r0, r5
 1003 01b4 12DD     		ble	.L69
 1004              		.loc 1 296 0 is_stmt 0 discriminator 1
 1005 01b6 5145     		cmp	r1, r10
 1006 01b8 10D1     		bne	.L69
 1007              	.LVL133:
 297:functions.c   ****                     // Turn right
 298:functions.c   ****                     stepCount+=2;
 299:functions.c   ****                     position++;
 1008              		.loc 1 299 0 is_stmt 1
 1009 01ba 08F10108 		add	r8, r8, #1
 1010              	.LVL134:
 300:functions.c   ****                     movementArray[position].distance = getDistance_H(stepCount);
 1011              		.loc 1 300 0
 1012 01be 901C     		adds	r0, r2, #2
 1013              	.LVL135:
 1014 01c0 FFF7FEFF 		bl	getDistance_H
 1015              	.LVL136:
 1016 01c4 144B     		ldr	r3, .L72+4
 1017 01c6 43F83800 		str	r0, [r3, r8, lsl #3]
 301:functions.c   ****                     movementArray[position].turnDirection = 'R';
 1018              		.loc 1 301 0
 1019 01ca 03EBC803 		add	r3, r3, r8, lsl #3
 1020 01ce 5222     		movs	r2, #82
 1021 01d0 1A71     		strb	r2, [r3, #4]
 1022              	.LVL137:
 302:functions.c   ****                     current_row = next_row; // Update coordinates
 303:functions.c   ****                     current_column = next_column;
 1023              		.loc 1 303 0
 1024 01d2 5146     		mov	r1, r10
 302:functions.c   ****                     current_row = next_row; // Update coordinates
 1025              		.loc 1 302 0
 1026 01d4 2846     		mov	r0, r5
 304:functions.c   ****                     stepCount = 0;
 1027              		.loc 1 304 0
 1028 01d6 0022     		movs	r2, #0
 305:functions.c   ****                     current_direction = NORTH;
 1029              		.loc 1 305 0
 1030 01d8 1646     		mov	r6, r2
 1031 01da 13E0     		b	.L56
 1032              	.LVL138:
 1033              	.L69:
ARM GAS  C:\Users\dulan\AppData\Local\Temp\cc2rW5FH.s 			page 25


 306:functions.c   ****                 } else if (next_row>current_row && next_column == current_column) {
 1034              		.loc 1 306 0
 1035 01dc A842     		cmp	r0, r5
 1036 01de 11DA     		bge	.L56
 1037              		.loc 1 306 0 is_stmt 0 discriminator 1
 1038 01e0 5145     		cmp	r1, r10
 1039 01e2 0FD1     		bne	.L56
 1040              	.LVL139:
 307:functions.c   ****                     // Turn left
 308:functions.c   ****                     stepCount+=2;
 309:functions.c   ****                     position++;
 1041              		.loc 1 309 0 is_stmt 1
 1042 01e4 08F10108 		add	r8, r8, #1
 1043              	.LVL140:
 310:functions.c   ****                     movementArray[position].distance = getDistance_H(stepCount);
 1044              		.loc 1 310 0
 1045 01e8 901C     		adds	r0, r2, #2
 1046              	.LVL141:
 1047 01ea FFF7FEFF 		bl	getDistance_H
 1048              	.LVL142:
 1049 01ee 0A4B     		ldr	r3, .L72+4
 1050 01f0 43F83800 		str	r0, [r3, r8, lsl #3]
 311:functions.c   ****                     movementArray[position].turnDirection = 'L';
 1051              		.loc 1 311 0
 1052 01f4 03EBC803 		add	r3, r3, r8, lsl #3
 1053 01f8 4C22     		movs	r2, #76
 1054 01fa 1A71     		strb	r2, [r3, #4]
 1055              	.LVL143:
 312:functions.c   ****                     current_row = next_row; // Update coordinates
 313:functions.c   ****                     current_column = next_column;
 1056              		.loc 1 313 0
 1057 01fc 5146     		mov	r1, r10
 312:functions.c   ****                     current_row = next_row; // Update coordinates
 1058              		.loc 1 312 0
 1059 01fe 2846     		mov	r0, r5
 314:functions.c   ****                     stepCount = 0;
 1060              		.loc 1 314 0
 1061 0200 0022     		movs	r2, #0
 315:functions.c   ****                     current_direction = SOUTH;
 1062              		.loc 1 315 0
 1063 0202 0226     		movs	r6, #2
 1064              	.LVL144:
 1065              	.L56:
 1066              	.LBE14:
 176:functions.c   ****         int next_row = path[i].x;
 1067              		.loc 1 176 0 discriminator 2
 1068 0204 0134     		adds	r4, r4, #1
 1069              	.LVL145:
 1070              	.L50:
 176:functions.c   ****         int next_row = path[i].x;
 1071              		.loc 1 176 0 is_stmt 0 discriminator 1
 1072 0206 064B     		ldr	r3, .L72+12
 1073 0208 1B68     		ldr	r3, [r3]
 1074 020a 9C42     		cmp	r4, r3
 1075 020c FFF603AF 		blt	.L70
 1076 0210 BDE8F087 		pop	{r4, r5, r6, r7, r8, r9, r10, pc}
 1077              	.LVL146:
ARM GAS  C:\Users\dulan\AppData\Local\Temp\cc2rW5FH.s 			page 26


 1078              	.L73:
 1079              		.align	2
 1080              	.L72:
 1081 0214 00000000 		.word	path
 1082 0218 00000000 		.word	movementArray
 1083 021c 00000000 		.word	robot_direction
 1084 0220 00000000 		.word	.LANCHOR2
 1085              	.LBE15:
 1086              		.cfi_endproc
 1087              	.LFE69:
 1088              		.size	getMovementArray, .-getMovementArray
 1089              		.comm	path,2280,4
 1090              		.global	pathLength
 1091              		.global	map
 1092              		.comm	robot_direction,1,1
 1093              		.comm	movementArray,200,4
 1094              		.section	.rodata
 1095              		.align	2
 1096              		.set	.LANCHOR0,. + 0
 1097              	.LC0:
 1098 0000 01000000 		.word	1
 1099 0004 FFFFFFFF 		.word	-1
 1100 0008 00000000 		.word	0
 1101 000c 00000000 		.word	0
 1102              	.LC1:
 1103 0010 00000000 		.word	0
 1104 0014 00000000 		.word	0
 1105 0018 01000000 		.word	1
 1106 001c FFFFFFFF 		.word	-1
 1107              		.data
 1108              		.align	2
 1109              		.set	.LANCHOR1,. + 0
 1110              		.type	map, %object
 1111              		.size	map, 1140
 1112              	map:
 1113 0000 01000000 		.word	1
 1114 0004 01000000 		.word	1
 1115 0008 01000000 		.word	1
 1116 000c 01000000 		.word	1
 1117 0010 01000000 		.word	1
 1118 0014 01000000 		.word	1
 1119 0018 01000000 		.word	1
 1120 001c 01000000 		.word	1
 1121 0020 01000000 		.word	1
 1122 0024 01000000 		.word	1
 1123 0028 01000000 		.word	1
 1124 002c 01000000 		.word	1
 1125 0030 01000000 		.word	1
 1126 0034 01000000 		.word	1
 1127 0038 01000000 		.word	1
 1128 003c 01000000 		.word	1
 1129 0040 01000000 		.word	1
 1130 0044 01000000 		.word	1
 1131 0048 01000000 		.word	1
 1132 004c 01000000 		.word	1
 1133 0050 00000000 		.word	0
 1134 0054 01000000 		.word	1
ARM GAS  C:\Users\dulan\AppData\Local\Temp\cc2rW5FH.s 			page 27


 1135 0058 00000000 		.word	0
 1136 005c 00000000 		.word	0
 1137 0060 00000000 		.word	0
 1138 0064 00000000 		.word	0
 1139 0068 00000000 		.word	0
 1140 006c 00000000 		.word	0
 1141 0070 00000000 		.word	0
 1142 0074 00000000 		.word	0
 1143 0078 00000000 		.word	0
 1144 007c 00000000 		.word	0
 1145 0080 00000000 		.word	0
 1146 0084 00000000 		.word	0
 1147 0088 00000000 		.word	0
 1148 008c 00000000 		.word	0
 1149 0090 00000000 		.word	0
 1150 0094 01000000 		.word	1
 1151 0098 01000000 		.word	1
 1152 009c 00000000 		.word	0
 1153 00a0 01000000 		.word	1
 1154 00a4 00000000 		.word	0
 1155 00a8 01000000 		.word	1
 1156 00ac 01000000 		.word	1
 1157 00b0 01000000 		.word	1
 1158 00b4 01000000 		.word	1
 1159 00b8 01000000 		.word	1
 1160 00bc 00000000 		.word	0
 1161 00c0 01000000 		.word	1
 1162 00c4 01000000 		.word	1
 1163 00c8 01000000 		.word	1
 1164 00cc 00000000 		.word	0
 1165 00d0 01000000 		.word	1
 1166 00d4 01000000 		.word	1
 1167 00d8 01000000 		.word	1
 1168 00dc 00000000 		.word	0
 1169 00e0 01000000 		.word	1
 1170 00e4 01000000 		.word	1
 1171 00e8 00000000 		.word	0
 1172 00ec 00000000 		.word	0
 1173 00f0 00000000 		.word	0
 1174 00f4 01000000 		.word	1
 1175 00f8 00000000 		.word	0
 1176 00fc 00000000 		.word	0
 1177 0100 00000000 		.word	0
 1178 0104 01000000 		.word	1
 1179 0108 00000000 		.word	0
 1180 010c 00000000 		.word	0
 1181 0110 00000000 		.word	0
 1182 0114 00000000 		.word	0
 1183 0118 00000000 		.word	0
 1184 011c 00000000 		.word	0
 1185 0120 00000000 		.word	0
 1186 0124 01000000 		.word	1
 1187 0128 00000000 		.word	0
 1188 012c 01000000 		.word	1
 1189 0130 01000000 		.word	1
 1190 0134 01000000 		.word	1
 1191 0138 01000000 		.word	1
ARM GAS  C:\Users\dulan\AppData\Local\Temp\cc2rW5FH.s 			page 28


 1192 013c 00000000 		.word	0
 1193 0140 01000000 		.word	1
 1194 0144 00000000 		.word	0
 1195 0148 01000000 		.word	1
 1196 014c 00000000 		.word	0
 1197 0150 01000000 		.word	1
 1198 0154 01000000 		.word	1
 1199 0158 01000000 		.word	1
 1200 015c 00000000 		.word	0
 1201 0160 01000000 		.word	1
 1202 0164 00000000 		.word	0
 1203 0168 01000000 		.word	1
 1204 016c 01000000 		.word	1
 1205 0170 01000000 		.word	1
 1206 0174 00000000 		.word	0
 1207 0178 01000000 		.word	1
 1208 017c 01000000 		.word	1
 1209 0180 00000000 		.word	0
 1210 0184 00000000 		.word	0
 1211 0188 00000000 		.word	0
 1212 018c 01000000 		.word	1
 1213 0190 00000000 		.word	0
 1214 0194 01000000 		.word	1
 1215 0198 00000000 		.word	0
 1216 019c 00000000 		.word	0
 1217 01a0 00000000 		.word	0
 1218 01a4 01000000 		.word	1
 1219 01a8 00000000 		.word	0
 1220 01ac 01000000 		.word	1
 1221 01b0 00000000 		.word	0
 1222 01b4 00000000 		.word	0
 1223 01b8 00000000 		.word	0
 1224 01bc 00000000 		.word	0
 1225 01c0 00000000 		.word	0
 1226 01c4 01000000 		.word	1
 1227 01c8 01000000 		.word	1
 1228 01cc 00000000 		.word	0
 1229 01d0 01000000 		.word	1
 1230 01d4 01000000 		.word	1
 1231 01d8 01000000 		.word	1
 1232 01dc 00000000 		.word	0
 1233 01e0 01000000 		.word	1
 1234 01e4 00000000 		.word	0
 1235 01e8 01000000 		.word	1
 1236 01ec 00000000 		.word	0
 1237 01f0 01000000 		.word	1
 1238 01f4 00000000 		.word	0
 1239 01f8 01000000 		.word	1
 1240 01fc 00000000 		.word	0
 1241 0200 01000000 		.word	1
 1242 0204 01000000 		.word	1
 1243 0208 01000000 		.word	1
 1244 020c 00000000 		.word	0
 1245 0210 01000000 		.word	1
 1246 0214 01000000 		.word	1
 1247 0218 00000000 		.word	0
 1248 021c 01000000 		.word	1
ARM GAS  C:\Users\dulan\AppData\Local\Temp\cc2rW5FH.s 			page 29


 1249 0220 00000000 		.word	0
 1250 0224 01000000 		.word	1
 1251 0228 00000000 		.word	0
 1252 022c 00000000 		.word	0
 1253 0230 00000000 		.word	0
 1254 0234 01000000 		.word	1
 1255 0238 00000000 		.word	0
 1256 023c 01000000 		.word	1
 1257 0240 00000000 		.word	0
 1258 0244 01000000 		.word	1
 1259 0248 00000000 		.word	0
 1260 024c 01000000 		.word	1
 1261 0250 00000000 		.word	0
 1262 0254 00000000 		.word	0
 1263 0258 00000000 		.word	0
 1264 025c 01000000 		.word	1
 1265 0260 01000000 		.word	1
 1266 0264 00000000 		.word	0
 1267 0268 01000000 		.word	1
 1268 026c 00000000 		.word	0
 1269 0270 01000000 		.word	1
 1270 0274 00000000 		.word	0
 1271 0278 01000000 		.word	1
 1272 027c 01000000 		.word	1
 1273 0280 01000000 		.word	1
 1274 0284 00000000 		.word	0
 1275 0288 01000000 		.word	1
 1276 028c 00000000 		.word	0
 1277 0290 01000000 		.word	1
 1278 0294 00000000 		.word	0
 1279 0298 01000000 		.word	1
 1280 029c 00000000 		.word	0
 1281 02a0 01000000 		.word	1
 1282 02a4 01000000 		.word	1
 1283 02a8 01000000 		.word	1
 1284 02ac 01000000 		.word	1
 1285 02b0 00000000 		.word	0
 1286 02b4 00000000 		.word	0
 1287 02b8 00000000 		.word	0
 1288 02bc 01000000 		.word	1
 1289 02c0 00000000 		.word	0
 1290 02c4 01000000 		.word	1
 1291 02c8 00000000 		.word	0
 1292 02cc 00000000 		.word	0
 1293 02d0 00000000 		.word	0
 1294 02d4 01000000 		.word	1
 1295 02d8 00000000 		.word	0
 1296 02dc 00000000 		.word	0
 1297 02e0 00000000 		.word	0
 1298 02e4 01000000 		.word	1
 1299 02e8 00000000 		.word	0
 1300 02ec 00000000 		.word	0
 1301 02f0 00000000 		.word	0
 1302 02f4 01000000 		.word	1
 1303 02f8 01000000 		.word	1
 1304 02fc 01000000 		.word	1
 1305 0300 01000000 		.word	1
ARM GAS  C:\Users\dulan\AppData\Local\Temp\cc2rW5FH.s 			page 30


 1306 0304 00000000 		.word	0
 1307 0308 01000000 		.word	1
 1308 030c 00000000 		.word	0
 1309 0310 01000000 		.word	1
 1310 0314 01000000 		.word	1
 1311 0318 01000000 		.word	1
 1312 031c 01000000 		.word	1
 1313 0320 01000000 		.word	1
 1314 0324 01000000 		.word	1
 1315 0328 01000000 		.word	1
 1316 032c 01000000 		.word	1
 1317 0330 01000000 		.word	1
 1318 0334 01000000 		.word	1
 1319 0338 01000000 		.word	1
 1320 033c 00000000 		.word	0
 1321 0340 01000000 		.word	1
 1322 0344 01000000 		.word	1
 1323 0348 00000000 		.word	0
 1324 034c 00000000 		.word	0
 1325 0350 00000000 		.word	0
 1326 0354 00000000 		.word	0
 1327 0358 00000000 		.word	0
 1328 035c 00000000 		.word	0
 1329 0360 00000000 		.word	0
 1330 0364 00000000 		.word	0
 1331 0368 00000000 		.word	0
 1332 036c 00000000 		.word	0
 1333 0370 00000000 		.word	0
 1334 0374 00000000 		.word	0
 1335 0378 00000000 		.word	0
 1336 037c 00000000 		.word	0
 1337 0380 00000000 		.word	0
 1338 0384 00000000 		.word	0
 1339 0388 00000000 		.word	0
 1340 038c 01000000 		.word	1
 1341 0390 01000000 		.word	1
 1342 0394 00000000 		.word	0
 1343 0398 01000000 		.word	1
 1344 039c 01000000 		.word	1
 1345 03a0 01000000 		.word	1
 1346 03a4 01000000 		.word	1
 1347 03a8 01000000 		.word	1
 1348 03ac 01000000 		.word	1
 1349 03b0 01000000 		.word	1
 1350 03b4 01000000 		.word	1
 1351 03b8 01000000 		.word	1
 1352 03bc 01000000 		.word	1
 1353 03c0 01000000 		.word	1
 1354 03c4 00000000 		.word	0
 1355 03c8 01000000 		.word	1
 1356 03cc 01000000 		.word	1
 1357 03d0 01000000 		.word	1
 1358 03d4 01000000 		.word	1
 1359 03d8 01000000 		.word	1
 1360 03dc 01000000 		.word	1
 1361 03e0 00000000 		.word	0
 1362 03e4 00000000 		.word	0
ARM GAS  C:\Users\dulan\AppData\Local\Temp\cc2rW5FH.s 			page 31


 1363 03e8 00000000 		.word	0
 1364 03ec 00000000 		.word	0
 1365 03f0 00000000 		.word	0
 1366 03f4 00000000 		.word	0
 1367 03f8 00000000 		.word	0
 1368 03fc 01000000 		.word	1
 1369 0400 00000000 		.word	0
 1370 0404 00000000 		.word	0
 1371 0408 00000000 		.word	0
 1372 040c 00000000 		.word	0
 1373 0410 00000000 		.word	0
 1374 0414 00000000 		.word	0
 1375 0418 00000000 		.word	0
 1376 041c 00000000 		.word	0
 1377 0420 00000000 		.word	0
 1378 0424 01000000 		.word	1
 1379 0428 01000000 		.word	1
 1380 042c 01000000 		.word	1
 1381 0430 01000000 		.word	1
 1382 0434 01000000 		.word	1
 1383 0438 01000000 		.word	1
 1384 043c 01000000 		.word	1
 1385 0440 01000000 		.word	1
 1386 0444 01000000 		.word	1
 1387 0448 01000000 		.word	1
 1388 044c 01000000 		.word	1
 1389 0450 01000000 		.word	1
 1390 0454 01000000 		.word	1
 1391 0458 01000000 		.word	1
 1392 045c 01000000 		.word	1
 1393 0460 01000000 		.word	1
 1394 0464 01000000 		.word	1
 1395 0468 01000000 		.word	1
 1396 046c 01000000 		.word	1
 1397 0470 01000000 		.word	1
 1398              		.bss
 1399              		.align	2
 1400              		.set	.LANCHOR2,. + 0
 1401              		.type	pathLength, %object
 1402              		.size	pathLength, 4
 1403              	pathLength:
 1404 0000 00000000 		.space	4
 1405              		.text
 1406              	.Letext0:
 1407              		.file 2 "c:\\program files (x86)\\cypress\\psoc creator\\4.4\\psoc creator\\import\\gnu\\arm\\5.4.
 1408              		.file 3 "c:\\program files (x86)\\cypress\\psoc creator\\4.4\\psoc creator\\import\\gnu\\arm\\5.4.
 1409              		.file 4 "program.h"
 1410              		.file 5 "Generated_Source\\PSoC5/core_cm3.h"