ARM GAS  C:\Users\umasu\AppData\Local\Temp\ccJmFo3c.s 			page 1


   1              		.syntax unified
   2              		.cpu cortex-m3
   3              		.fpu softvfp
   4              		.eabi_attribute 20, 1
   5              		.eabi_attribute 21, 1
   6              		.eabi_attribute 23, 3
   7              		.eabi_attribute 24, 1
   8              		.eabi_attribute 25, 1
   9              		.eabi_attribute 26, 1
  10              		.eabi_attribute 30, 1
  11              		.eabi_attribute 34, 1
  12              		.eabi_attribute 18, 4
  13              		.thumb
  14              		.syntax unified
  15              		.file	"main.c"
  16              		.text
  17              	.Ltext0:
  18              		.cfi_sections	.debug_frame
  19              		.section	.text.isr_1_handler,"ax",%progbits
  20              		.align	2
  21              		.global	isr_1_handler
  22              		.thumb
  23              		.thumb_func
  24              		.type	isr_1_handler, %function
  25              	isr_1_handler:
  26              	.LFB64:
  27              		.file 1 "main.c"
   1:main.c        **** /* ========================================
   2:main.c        ****  *
   3:main.c        ****  * Copyright YOUR COMPANY, THE YEAR
   4:main.c        ****  * All Rights Reserved
   5:main.c        ****  * UNPUBLISHED, LICENSED SOFTWARE.
   6:main.c        ****  *
   7:main.c        ****  * CONFIDENTIAL AND PROPRIETARY INFORMATION
   8:main.c        ****  * WHICH IS THE PROPERTY OF your company.
   9:main.c        ****  *
  10:main.c        ****  * ========================================
  11:main.c        **** */
  12:main.c        **** /* ========================================
  13:main.c        ****  * Fully working code: 
  14:main.c        ****  * PWM      : 
  15:main.c        ****  * Encoder  : 
  16:main.c        ****  * ADC      :
  17:main.c        ****  * USB      : port displays speed and position.
  18:main.c        ****  * CMD: "PW xx"
  19:main.c        ****  * Copyright Univ of Auckland, 2016
  20:main.c        ****  * All Rights Reserved
  21:main.c        ****  * UNPUBLISHED, LICENSED SOFTWARE.
  22:main.c        ****  *
  23:main.c        ****  * CONFIDENTIAL AND PROPRIETARY INFORMATION
  24:main.c        ****  * WHICH IS THE PROPERTY OF Univ of Auckland.
  25:main.c        ****  *
  26:main.c        ****  * ========================================
  27:main.c        **** */
  28:main.c        **** 
  29:main.c        **** #include "program.h"
  30:main.c        **** 
ARM GAS  C:\Users\umasu\AppData\Local\Temp\ccJmFo3c.s 			page 2


  31:main.c        **** //distance calculation paras
  32:main.c        **** int32 CPR = 228;  // Adjusted for 4x resolution(228/4)
  33:main.c        **** float wheelCircumference_cm = (M_PI*64.46)/10;// wheel circumference wheelDiameter_mm = 64.46)
  34:main.c        **** double timeInterval_s = 10.924;  // Effective time interval( (timer period )2.731*4)
  35:main.c        **** int path_length;
  36:main.c        **** int counter=1;
  37:main.c        **** 
  38:main.c        **** 
  39:main.c        **** uint32 count = 0;
  40:main.c        **** bool isTurning=false;
  41:main.c        **** 
  42:main.c        **** uint8 comp0_sum;
  43:main.c        **** uint8 comp1_sum;
  44:main.c        **** uint8 comp2_sum;
  45:main.c        **** uint8 comp3_sum;
  46:main.c        **** 
  47:main.c        **** 
  48:main.c        **** 
  49:main.c        **** 
  50:main.c        **** //from point 0 to 1
  51:main.c        **** Movement path[10] = {
  52:main.c        **** //    {3*CM_PER_BLOCK_VERT, 'R'}, 
  53:main.c        ****     {3*CM_PER_BLOCK_VERT, 'L'}, 
  54:main.c        ****     {3*CM_PER_BLOCK_HORIZ, 'L'}, 
  55:main.c        ****     {3*CM_PER_BLOCK_VERT, 'R'}, 
  56:main.c        ****     {5*CM_PER_BLOCK_HORIZ, 'N'}, 
  57:main.c        **** //    {2*CM_PER_BLOCK_VERT, 'N'},
  58:main.c        **** };
  59:main.c        **** Movement moveCountArray[10];
  60:main.c        **** 
  61:main.c        **** RobotState current_state = STOP;// intialse state
  62:main.c        **** 
  63:main.c        **** 
  64:main.c        **** //---------------------------------for direction();
  65:main.c        **** int currentX = 2;
  66:main.c        **** int currentY = 2;
  67:main.c        **** int stepCount = 0;
  68:main.c        **** int target[] = {14, 15};
  69:main.c        **** int position = -1;
  70:main.c        **** 
  71:main.c        **** RobotDirection current_direction =  SOUTH;
  72:main.c        **** //-----------------------------------------
  73:main.c        **** 
  74:main.c        **** 
  75:main.c        **** 
  76:main.c        **** CY_ISR(isr_1_handler) {
  28              		.loc 1 76 0
  29              		.cfi_startproc
  30              		@ args = 0, pretend = 0, frame = 0
  31              		@ frame_needed = 0, uses_anonymous_args = 0
  32 0000 08B5     		push	{r3, lr}
  33              		.cfi_def_cfa_offset 8
  34              		.cfi_offset 3, -8
  35              		.cfi_offset 14, -4
  77:main.c        ****         //every 1ms 
  78:main.c        ****     
  79:main.c        ****     //sum up comp values every 1ms
ARM GAS  C:\Users\umasu\AppData\Local\Temp\ccJmFo3c.s 			page 3


  80:main.c        ****     comp0_sum+=Comp_0_GetCompare();
  36              		.loc 1 80 0
  37 0002 FFF7FEFF 		bl	Comp_0_GetCompare
  38              	.LVL0:
  39 0006 164A     		ldr	r2, .L4
  40 0008 1378     		ldrb	r3, [r2]	@ zero_extendqisi2
  41 000a 1844     		add	r0, r0, r3
  42 000c 1070     		strb	r0, [r2]
  81:main.c        ****     comp1_sum+=Comp_1_GetCompare();
  43              		.loc 1 81 0
  44 000e FFF7FEFF 		bl	Comp_1_GetCompare
  45              	.LVL1:
  46 0012 144A     		ldr	r2, .L4+4
  47 0014 1378     		ldrb	r3, [r2]	@ zero_extendqisi2
  48 0016 1844     		add	r0, r0, r3
  49 0018 1070     		strb	r0, [r2]
  82:main.c        ****     comp2_sum+=Comp_2_GetCompare();
  50              		.loc 1 82 0
  51 001a FFF7FEFF 		bl	Comp_2_GetCompare
  52              	.LVL2:
  53 001e 124A     		ldr	r2, .L4+8
  54 0020 1378     		ldrb	r3, [r2]	@ zero_extendqisi2
  55 0022 1844     		add	r0, r0, r3
  56 0024 1070     		strb	r0, [r2]
  83:main.c        ****     comp3_sum+=Comp_3_GetCompare();
  57              		.loc 1 83 0
  58 0026 FFF7FEFF 		bl	Comp_3_GetCompare
  59              	.LVL3:
  60 002a 104A     		ldr	r2, .L4+12
  61 002c 1378     		ldrb	r3, [r2]	@ zero_extendqisi2
  62 002e 1844     		add	r0, r0, r3
  63 0030 1070     		strb	r0, [r2]
  84:main.c        ****       
  85:main.c        ****     if(count==8){
  64              		.loc 1 85 0
  65 0032 0F4B     		ldr	r3, .L4+16
  66 0034 1B68     		ldr	r3, [r3]
  67 0036 082B     		cmp	r3, #8
  68 0038 0AD1     		bne	.L2
  86:main.c        ****         //reset to check again every 8ms
  87:main.c        ****         comp0_sum=0;
  69              		.loc 1 87 0
  70 003a 0023     		movs	r3, #0
  71 003c 084A     		ldr	r2, .L4
  72 003e 1370     		strb	r3, [r2]
  88:main.c        ****         comp1_sum=0;
  73              		.loc 1 88 0
  74 0040 084A     		ldr	r2, .L4+4
  75 0042 1370     		strb	r3, [r2]
  89:main.c        ****         comp2_sum=0;
  76              		.loc 1 89 0
  77 0044 084A     		ldr	r2, .L4+8
  78 0046 1370     		strb	r3, [r2]
  90:main.c        ****         comp3_sum=0;
  79              		.loc 1 90 0
  80 0048 084A     		ldr	r2, .L4+12
  81 004a 1370     		strb	r3, [r2]
ARM GAS  C:\Users\umasu\AppData\Local\Temp\ccJmFo3c.s 			page 4


  91:main.c        ****         count=0;
  82              		.loc 1 91 0
  83 004c 084A     		ldr	r2, .L4+16
  84 004e 1360     		str	r3, [r2]
  85              	.L2:
  92:main.c        ****     }
  93:main.c        ****    
  94:main.c        ****     count++;
  86              		.loc 1 94 0
  87 0050 074A     		ldr	r2, .L4+16
  88 0052 1368     		ldr	r3, [r2]
  89 0054 0133     		adds	r3, r3, #1
  90 0056 1360     		str	r3, [r2]
  95:main.c        ****     Timer_1_ReadStatusRegister();
  91              		.loc 1 95 0
  92 0058 FFF7FEFF 		bl	Timer_1_ReadStatusRegister
  93              	.LVL4:
  94 005c 08BD     		pop	{r3, pc}
  95              	.L5:
  96 005e 00BF     		.align	2
  97              	.L4:
  98 0060 00000000 		.word	comp0_sum
  99 0064 00000000 		.word	comp1_sum
 100 0068 00000000 		.word	comp2_sum
 101 006c 00000000 		.word	comp3_sum
 102 0070 00000000 		.word	.LANCHOR0
 103              		.cfi_endproc
 104              	.LFE64:
 105              		.size	isr_1_handler, .-isr_1_handler
 106              		.section	.text.stop,"ax",%progbits
 107              		.align	2
 108              		.global	stop
 109              		.thumb
 110              		.thumb_func
 111              		.type	stop, %function
 112              	stop:
 113              	.LFB65:
  96:main.c        **** }
  97:main.c        **** 
  98:main.c        **** 
  99:main.c        **** void stop(){
 114              		.loc 1 99 0
 115              		.cfi_startproc
 116              		@ args = 0, pretend = 0, frame = 0
 117              		@ frame_needed = 0, uses_anonymous_args = 0
 118 0000 08B5     		push	{r3, lr}
 119              		.cfi_def_cfa_offset 8
 120              		.cfi_offset 3, -8
 121              		.cfi_offset 14, -4
 100:main.c        ****     PWM_1_WriteCompare(50);
 122              		.loc 1 100 0
 123 0002 3220     		movs	r0, #50
 124 0004 FFF7FEFF 		bl	PWM_1_WriteCompare
 125              	.LVL5:
 101:main.c        ****     PWM_2_WriteCompare(50);
 126              		.loc 1 101 0
 127 0008 3220     		movs	r0, #50
ARM GAS  C:\Users\umasu\AppData\Local\Temp\ccJmFo3c.s 			page 5


 128 000a FFF7FEFF 		bl	PWM_2_WriteCompare
 129              	.LVL6:
 130 000e 08BD     		pop	{r3, pc}
 131              		.cfi_endproc
 132              	.LFE65:
 133              		.size	stop, .-stop
 134              		.section	.text.turnLeft,"ax",%progbits
 135              		.align	2
 136              		.global	turnLeft
 137              		.thumb
 138              		.thumb_func
 139              		.type	turnLeft, %function
 140              	turnLeft:
 141              	.LFB66:
 102:main.c        **** }
 103:main.c        **** 
 104:main.c        **** void turnLeft(){
 142              		.loc 1 104 0
 143              		.cfi_startproc
 144              		@ args = 0, pretend = 0, frame = 0
 145              		@ frame_needed = 0, uses_anonymous_args = 0
 146 0000 08B5     		push	{r3, lr}
 147              		.cfi_def_cfa_offset 8
 148              		.cfi_offset 3, -8
 149              		.cfi_offset 14, -4
 105:main.c        ****     PWM_1_WriteCompare(68);
 150              		.loc 1 105 0
 151 0002 4420     		movs	r0, #68
 152 0004 FFF7FEFF 		bl	PWM_1_WriteCompare
 153              	.LVL7:
 106:main.c        ****     PWM_2_WriteCompare(33);
 154              		.loc 1 106 0
 155 0008 2120     		movs	r0, #33
 156 000a FFF7FEFF 		bl	PWM_2_WriteCompare
 157              	.LVL8:
 158              	.L9:
 107:main.c        **** //    CyDelay(350);
 108:main.c        ****     while(Sout_L_Read()==0){//wait while left is on line
 159              		.loc 1 108 0 discriminator 1
 160 000e FFF7FEFF 		bl	Sout_L_Read
 161              	.LVL9:
 162 0012 0028     		cmp	r0, #0
 163 0014 FBD0     		beq	.L9
 164              	.L10:
 109:main.c        ****        ;;
 110:main.c        ****     }
 111:main.c        ****     while(!(Sout_M1_Read()==0 &&Sout_M1_Read()==0)){//wait while middle sensors off line
 165              		.loc 1 111 0 discriminator 3
 166 0016 FFF7FEFF 		bl	Sout_M1_Read
 167              	.LVL10:
 168 001a 0028     		cmp	r0, #0
 169 001c FBD1     		bne	.L10
 170              		.loc 1 111 0 is_stmt 0 discriminator 2
 171 001e FFF7FEFF 		bl	Sout_M1_Read
 172              	.LVL11:
 173 0022 0028     		cmp	r0, #0
 174 0024 F7D1     		bne	.L10
ARM GAS  C:\Users\umasu\AppData\Local\Temp\ccJmFo3c.s 			page 6


 112:main.c        ****        ;;
 113:main.c        ****     }
 114:main.c        ****     isTurning=false;
 175              		.loc 1 114 0 is_stmt 1
 176 0026 0022     		movs	r2, #0
 177 0028 044B     		ldr	r3, .L13
 178 002a 1A71     		strb	r2, [r3, #4]
 115:main.c        ****     PWM_1_WriteCompare(65);
 179              		.loc 1 115 0
 180 002c 4120     		movs	r0, #65
 181 002e FFF7FEFF 		bl	PWM_1_WriteCompare
 182              	.LVL12:
 116:main.c        ****     PWM_2_WriteCompare(66);
 183              		.loc 1 116 0
 184 0032 4220     		movs	r0, #66
 185 0034 FFF7FEFF 		bl	PWM_2_WriteCompare
 186              	.LVL13:
 187 0038 08BD     		pop	{r3, pc}
 188              	.L14:
 189 003a 00BF     		.align	2
 190              	.L13:
 191 003c 00000000 		.word	.LANCHOR0
 192              		.cfi_endproc
 193              	.LFE66:
 194              		.size	turnLeft, .-turnLeft
 195              		.section	.text.turnRight,"ax",%progbits
 196              		.align	2
 197              		.global	turnRight
 198              		.thumb
 199              		.thumb_func
 200              		.type	turnRight, %function
 201              	turnRight:
 202              	.LFB67:
 117:main.c        **** 
 118:main.c        **** }
 119:main.c        **** 
 120:main.c        **** void turnRight(){
 203              		.loc 1 120 0
 204              		.cfi_startproc
 205              		@ args = 0, pretend = 0, frame = 0
 206              		@ frame_needed = 0, uses_anonymous_args = 0
 207 0000 08B5     		push	{r3, lr}
 208              		.cfi_def_cfa_offset 8
 209              		.cfi_offset 3, -8
 210              		.cfi_offset 14, -4
 121:main.c        ****     PWM_1_WriteCompare(33);
 211              		.loc 1 121 0
 212 0002 2120     		movs	r0, #33
 213 0004 FFF7FEFF 		bl	PWM_1_WriteCompare
 214              	.LVL14:
 122:main.c        ****     PWM_2_WriteCompare(68);
 215              		.loc 1 122 0
 216 0008 4420     		movs	r0, #68
 217 000a FFF7FEFF 		bl	PWM_2_WriteCompare
 218              	.LVL15:
 219              	.L16:
 123:main.c        ****     while(Sout_R_Read()==0){//wait while right is on line
ARM GAS  C:\Users\umasu\AppData\Local\Temp\ccJmFo3c.s 			page 7


 220              		.loc 1 123 0 discriminator 1
 221 000e FFF7FEFF 		bl	Sout_R_Read
 222              	.LVL16:
 223 0012 0028     		cmp	r0, #0
 224 0014 FBD0     		beq	.L16
 225              	.L17:
 124:main.c        ****        ;;
 125:main.c        ****     }
 126:main.c        ****     while(!(Sout_M1_Read()==0 &&Sout_M1_Read()==0)){//wait while middle sensors off line
 226              		.loc 1 126 0 discriminator 3
 227 0016 FFF7FEFF 		bl	Sout_M1_Read
 228              	.LVL17:
 229 001a 0028     		cmp	r0, #0
 230 001c FBD1     		bne	.L17
 231              		.loc 1 126 0 is_stmt 0 discriminator 2
 232 001e FFF7FEFF 		bl	Sout_M1_Read
 233              	.LVL18:
 234 0022 0028     		cmp	r0, #0
 235 0024 F7D1     		bne	.L17
 127:main.c        ****        ;;
 128:main.c        ****     }
 129:main.c        ****     isTurning=false;
 236              		.loc 1 129 0 is_stmt 1
 237 0026 0022     		movs	r2, #0
 238 0028 044B     		ldr	r3, .L20
 239 002a 1A71     		strb	r2, [r3, #4]
 130:main.c        ****     PWM_1_WriteCompare(65);
 240              		.loc 1 130 0
 241 002c 4120     		movs	r0, #65
 242 002e FFF7FEFF 		bl	PWM_1_WriteCompare
 243              	.LVL19:
 131:main.c        ****     PWM_2_WriteCompare(66);
 244              		.loc 1 131 0
 245 0032 4220     		movs	r0, #66
 246 0034 FFF7FEFF 		bl	PWM_2_WriteCompare
 247              	.LVL20:
 248 0038 08BD     		pop	{r3, pc}
 249              	.L21:
 250 003a 00BF     		.align	2
 251              	.L20:
 252 003c 00000000 		.word	.LANCHOR0
 253              		.cfi_endproc
 254              	.LFE67:
 255              		.size	turnRight, .-turnRight
 256              		.section	.text.reverse,"ax",%progbits
 257              		.align	2
 258              		.global	reverse
 259              		.thumb
 260              		.thumb_func
 261              		.type	reverse, %function
 262              	reverse:
 263              	.LFB68:
 132:main.c        **** }
 133:main.c        **** 
 134:main.c        **** 
 135:main.c        **** void reverse(){
 264              		.loc 1 135 0
ARM GAS  C:\Users\umasu\AppData\Local\Temp\ccJmFo3c.s 			page 8


 265              		.cfi_startproc
 266              		@ args = 0, pretend = 0, frame = 0
 267              		@ frame_needed = 0, uses_anonymous_args = 0
 268 0000 08B5     		push	{r3, lr}
 269              		.cfi_def_cfa_offset 8
 270              		.cfi_offset 3, -8
 271              		.cfi_offset 14, -4
 136:main.c        ****     PWM_1_WriteCompare(30);
 272              		.loc 1 136 0
 273 0002 1E20     		movs	r0, #30
 274 0004 FFF7FEFF 		bl	PWM_1_WriteCompare
 275              	.LVL21:
 137:main.c        ****     PWM_2_WriteCompare(30);
 276              		.loc 1 137 0
 277 0008 1E20     		movs	r0, #30
 278 000a FFF7FEFF 		bl	PWM_2_WriteCompare
 279              	.LVL22:
 280 000e 08BD     		pop	{r3, pc}
 281              		.cfi_endproc
 282              	.LFE68:
 283              		.size	reverse, .-reverse
 284              		.global	__aeabi_i2d
 285              		.global	__aeabi_dmul
 286              		.global	__aeabi_dcmplt
 287              		.section	.text.goStraight_cm,"ax",%progbits
 288              		.align	2
 289              		.global	goStraight_cm
 290              		.thumb
 291              		.thumb_func
 292              		.type	goStraight_cm, %function
 293              	goStraight_cm:
 294              	.LFB69:
 138:main.c        **** }
 139:main.c        **** 
 140:main.c        **** void goStraight_cm(int distance){
 295              		.loc 1 140 0
 296              		.cfi_startproc
 297              		@ args = 0, pretend = 0, frame = 0
 298              		@ frame_needed = 0, uses_anonymous_args = 0
 299              	.LVL23:
 300 0000 70B5     		push	{r4, r5, r6, lr}
 301              		.cfi_def_cfa_offset 16
 302              		.cfi_offset 4, -16
 303              		.cfi_offset 5, -12
 304              		.cfi_offset 6, -8
 305              		.cfi_offset 14, -4
 306 0002 0646     		mov	r6, r0
 141:main.c        ****     
 142:main.c        ****     QuadDec_M1_SetCounter(0);
 307              		.loc 1 142 0
 308 0004 0020     		movs	r0, #0
 309              	.LVL24:
 310 0006 FFF7FEFF 		bl	QuadDec_M1_SetCounter
 311              	.LVL25:
 143:main.c        ****     
 144:main.c        ****     while(QuadDec_M1_GetCounter()<(distance*ENC_VALUE_PER_CM)){
 312              		.loc 1 144 0
ARM GAS  C:\Users\umasu\AppData\Local\Temp\ccJmFo3c.s 			page 9


 313 000a 24E0     		b	.L25
 314              	.L30:
 145:main.c        ****             //comp0==>middle left comp1==>middle right
 146:main.c        ****         if(comp0_sum>0 && comp1_sum==0){//s_ML out of line
 315              		.loc 1 146 0
 316 000c 204B     		ldr	r3, .L32+8
 317 000e 1B78     		ldrb	r3, [r3]	@ zero_extendqisi2
 318 0010 4BB1     		cbz	r3, .L26
 319              		.loc 1 146 0 is_stmt 0 discriminator 1
 320 0012 204A     		ldr	r2, .L32+12
 321 0014 1278     		ldrb	r2, [r2]	@ zero_extendqisi2
 322 0016 32B9     		cbnz	r2, .L26
 147:main.c        ****             PWM_2_WriteCompare(PWM_2_ReadCompare() +1);
 323              		.loc 1 147 0 is_stmt 1
 324 0018 FFF7FEFF 		bl	PWM_2_ReadCompare
 325              	.LVL26:
 326 001c 0130     		adds	r0, r0, #1
 327 001e C0B2     		uxtb	r0, r0
 328 0020 FFF7FEFF 		bl	PWM_2_WriteCompare
 329              	.LVL27:
 330 0024 17E0     		b	.L25
 331              	.L26:
 148:main.c        ****         }else if(comp0_sum==0 && comp1_sum>0){//s_MR out of line
 332              		.loc 1 148 0
 333 0026 4BB9     		cbnz	r3, .L28
 334              		.loc 1 148 0 is_stmt 0 discriminator 1
 335 0028 1A4A     		ldr	r2, .L32+12
 336 002a 1278     		ldrb	r2, [r2]	@ zero_extendqisi2
 337 002c 32B1     		cbz	r2, .L28
 149:main.c        ****             PWM_1_WriteCompare(PWM_1_ReadCompare() +1);
 338              		.loc 1 149 0 is_stmt 1
 339 002e FFF7FEFF 		bl	PWM_1_ReadCompare
 340              	.LVL28:
 341 0032 0130     		adds	r0, r0, #1
 342 0034 C0B2     		uxtb	r0, r0
 343 0036 FFF7FEFF 		bl	PWM_1_WriteCompare
 344              	.LVL29:
 345 003a 0CE0     		b	.L25
 346              	.L28:
 150:main.c        ****             
 151:main.c        ****         }else if(comp1_sum==0 && comp0_sum==0){
 347              		.loc 1 151 0
 348 003c 154A     		ldr	r2, .L32+12
 349 003e 1278     		ldrb	r2, [r2]	@ zero_extendqisi2
 350 0040 3AB9     		cbnz	r2, .L29
 351              		.loc 1 151 0 is_stmt 0 discriminator 1
 352 0042 33B9     		cbnz	r3, .L29
 152:main.c        ****             PWM_1_WriteCompare(68);
 353              		.loc 1 152 0 is_stmt 1
 354 0044 4420     		movs	r0, #68
 355 0046 FFF7FEFF 		bl	PWM_1_WriteCompare
 356              	.LVL30:
 153:main.c        ****             PWM_2_WriteCompare(69);
 357              		.loc 1 153 0
 358 004a 4520     		movs	r0, #69
 359 004c FFF7FEFF 		bl	PWM_2_WriteCompare
 360              	.LVL31:
ARM GAS  C:\Users\umasu\AppData\Local\Temp\ccJmFo3c.s 			page 10


 361 0050 01E0     		b	.L25
 362              	.L29:
 154:main.c        ****         }else{
 155:main.c        ****             reverse();
 363              		.loc 1 155 0
 364 0052 FFF7FEFF 		bl	reverse
 365              	.LVL32:
 366              	.L25:
 144:main.c        ****             //comp0==>middle left comp1==>middle right
 367              		.loc 1 144 0
 368 0056 FFF7FEFF 		bl	QuadDec_M1_GetCounter
 369              	.LVL33:
 370 005a FFF7FEFF 		bl	__aeabi_i2d
 371              	.LVL34:
 372 005e 0446     		mov	r4, r0
 373 0060 0D46     		mov	r5, r1
 374 0062 3046     		mov	r0, r6
 375 0064 FFF7FEFF 		bl	__aeabi_i2d
 376              	.LVL35:
 377 0068 07A3     		adr	r3, .L32
 378 006a D3E90023 		ldrd	r2, [r3]
 379 006e FFF7FEFF 		bl	__aeabi_dmul
 380              	.LVL36:
 381 0072 0246     		mov	r2, r0
 382 0074 0B46     		mov	r3, r1
 383 0076 2046     		mov	r0, r4
 384 0078 2946     		mov	r1, r5
 385 007a FFF7FEFF 		bl	__aeabi_dcmplt
 386              	.LVL37:
 387 007e 0028     		cmp	r0, #0
 388 0080 C4D1     		bne	.L30
 156:main.c        ****         }
 157:main.c        ****     }
 158:main.c        ****     stop();
 389              		.loc 1 158 0
 390 0082 FFF7FEFF 		bl	stop
 391              	.LVL38:
 392 0086 70BD     		pop	{r4, r5, r6, pc}
 393              	.LVL39:
 394              	.L33:
 395              		.align	3
 396              	.L32:
 397 0088 9A999999 		.word	-1717986918
 398 008c 99992640 		.word	1076271513
 399 0090 00000000 		.word	comp0_sum
 400 0094 00000000 		.word	comp1_sum
 401              		.cfi_endproc
 402              	.LFE69:
 403              		.size	goStraight_cm, .-goStraight_cm
 404              		.section	.text.goStraight,"ax",%progbits
 405              		.align	2
 406              		.global	goStraight
 407              		.thumb
 408              		.thumb_func
 409              		.type	goStraight, %function
 410              	goStraight:
 411              	.LFB70:
ARM GAS  C:\Users\umasu\AppData\Local\Temp\ccJmFo3c.s 			page 11


 159:main.c        ****     
 160:main.c        **** }
 161:main.c        **** 
 162:main.c        **** void goStraight(){
 412              		.loc 1 162 0
 413              		.cfi_startproc
 414              		@ args = 0, pretend = 0, frame = 0
 415              		@ frame_needed = 0, uses_anonymous_args = 0
 416 0000 08B5     		push	{r3, lr}
 417              		.cfi_def_cfa_offset 8
 418              		.cfi_offset 3, -8
 419              		.cfi_offset 14, -4
 163:main.c        ****     
 164:main.c        ****         //comp0==>middle left comp1==>middle right
 165:main.c        ****     if(comp0_sum>0 && comp1_sum==0){//s_ML out of line
 420              		.loc 1 165 0
 421 0002 134B     		ldr	r3, .L40
 422 0004 1B78     		ldrb	r3, [r3]	@ zero_extendqisi2
 423 0006 4BB1     		cbz	r3, .L35
 424              		.loc 1 165 0 is_stmt 0 discriminator 1
 425 0008 124A     		ldr	r2, .L40+4
 426 000a 1278     		ldrb	r2, [r2]	@ zero_extendqisi2
 427 000c 32B9     		cbnz	r2, .L35
 166:main.c        ****         PWM_2_WriteCompare(PWM_2_ReadCompare() +1);
 428              		.loc 1 166 0 is_stmt 1
 429 000e FFF7FEFF 		bl	PWM_2_ReadCompare
 430              	.LVL40:
 431 0012 0130     		adds	r0, r0, #1
 432 0014 C0B2     		uxtb	r0, r0
 433 0016 FFF7FEFF 		bl	PWM_2_WriteCompare
 434              	.LVL41:
 435 001a 08BD     		pop	{r3, pc}
 436              	.L35:
 167:main.c        ****     }else if(comp0_sum==0 && comp1_sum>0){//s_MR out of line
 437              		.loc 1 167 0
 438 001c 4BB9     		cbnz	r3, .L37
 439              		.loc 1 167 0 is_stmt 0 discriminator 1
 440 001e 0D4A     		ldr	r2, .L40+4
 441 0020 1278     		ldrb	r2, [r2]	@ zero_extendqisi2
 442 0022 32B1     		cbz	r2, .L37
 168:main.c        ****         PWM_1_WriteCompare(PWM_1_ReadCompare() +1);
 443              		.loc 1 168 0 is_stmt 1
 444 0024 FFF7FEFF 		bl	PWM_1_ReadCompare
 445              	.LVL42:
 446 0028 0130     		adds	r0, r0, #1
 447 002a C0B2     		uxtb	r0, r0
 448 002c FFF7FEFF 		bl	PWM_1_WriteCompare
 449              	.LVL43:
 450 0030 08BD     		pop	{r3, pc}
 451              	.L37:
 169:main.c        ****         
 170:main.c        ****     }else if(comp1_sum==0 && comp0_sum==0){
 452              		.loc 1 170 0
 453 0032 084A     		ldr	r2, .L40+4
 454 0034 1278     		ldrb	r2, [r2]	@ zero_extendqisi2
 455 0036 3AB9     		cbnz	r2, .L38
 456              		.loc 1 170 0 is_stmt 0 discriminator 1
ARM GAS  C:\Users\umasu\AppData\Local\Temp\ccJmFo3c.s 			page 12


 457 0038 33B9     		cbnz	r3, .L38
 171:main.c        ****         PWM_1_WriteCompare(68);
 458              		.loc 1 171 0 is_stmt 1
 459 003a 4420     		movs	r0, #68
 460 003c FFF7FEFF 		bl	PWM_1_WriteCompare
 461              	.LVL44:
 172:main.c        ****         PWM_2_WriteCompare(69);
 462              		.loc 1 172 0
 463 0040 4520     		movs	r0, #69
 464 0042 FFF7FEFF 		bl	PWM_2_WriteCompare
 465              	.LVL45:
 466 0046 08BD     		pop	{r3, pc}
 467              	.L38:
 173:main.c        ****     }else{
 174:main.c        ****         reverse();
 468              		.loc 1 174 0
 469 0048 FFF7FEFF 		bl	reverse
 470              	.LVL46:
 471 004c 08BD     		pop	{r3, pc}
 472              	.L41:
 473 004e 00BF     		.align	2
 474              	.L40:
 475 0050 00000000 		.word	comp0_sum
 476 0054 00000000 		.word	comp1_sum
 477              		.cfi_endproc
 478              	.LFE70:
 479              		.size	goStraight, .-goStraight
 480              		.section	.text.main,"ax",%progbits
 481              		.align	2
 482              		.global	main
 483              		.thumb
 484              		.thumb_func
 485              		.type	main, %function
 486              	main:
 487              	.LFB71:
 175:main.c        ****     }
 176:main.c        ****     
 177:main.c        ****     
 178:main.c        **** }
 179:main.c        **** 
 180:main.c        **** int main(void)
 181:main.c        **** {
 488              		.loc 1 181 0
 489              		.cfi_startproc
 490              		@ args = 0, pretend = 0, frame = 0
 491              		@ frame_needed = 0, uses_anonymous_args = 0
 492 0000 10B5     		push	{r4, lr}
 493              		.cfi_def_cfa_offset 8
 494              		.cfi_offset 4, -8
 495              		.cfi_offset 14, -4
 496 0002 82B0     		sub	sp, sp, #8
 497              		.cfi_def_cfa_offset 16
 182:main.c        ****     CyGlobalIntEnable; /* Enable global interrupts. */
 498              		.loc 1 182 0
 499              		.syntax unified
 500              	@ 182 "main.c" 1
 501 0004 62B6     		CPSIE   i
ARM GAS  C:\Users\umasu\AppData\Local\Temp\ccJmFo3c.s 			page 13


 502              	@ 0 "" 2
 183:main.c        **** 
 184:main.c        ****     /* Place your initialization/startup code here (e.g. MyInst_Start()) */
 185:main.c        ****     Timer_1_Start(); 
 503              		.loc 1 185 0
 504              		.thumb
 505              		.syntax unified
 506 0006 FFF7FEFF 		bl	Timer_1_Start
 507              	.LVL47:
 186:main.c        ****     isr_1_StartEx(isr_1_handler);
 508              		.loc 1 186 0
 509 000a 2B48     		ldr	r0, .L57
 510 000c FFF7FEFF 		bl	isr_1_StartEx
 511              	.LVL48:
 187:main.c        ****     
 188:main.c        ****     //start comparators
 189:main.c        ****     Comp_0_Start();
 512              		.loc 1 189 0
 513 0010 FFF7FEFF 		bl	Comp_0_Start
 514              	.LVL49:
 190:main.c        ****     Comp_1_Start();
 515              		.loc 1 190 0
 516 0014 FFF7FEFF 		bl	Comp_1_Start
 517              	.LVL50:
 191:main.c        ****     Comp_2_Start();
 518              		.loc 1 191 0
 519 0018 FFF7FEFF 		bl	Comp_2_Start
 520              	.LVL51:
 192:main.c        ****     Comp_3_Start();
 521              		.loc 1 192 0
 522 001c FFF7FEFF 		bl	Comp_3_Start
 523              	.LVL52:
 193:main.c        ****     
 194:main.c        ****     /*Start PWM Clk*/
 195:main.c        ****     Clock_PWM_Start(); 
 524              		.loc 1 195 0
 525 0020 FFF7FEFF 		bl	Clock_PWM_Start
 526              	.LVL53:
 196:main.c        ****     //Start PWM
 197:main.c        ****     PWM_1_Start();
 527              		.loc 1 197 0
 528 0024 FFF7FEFF 		bl	PWM_1_Start
 529              	.LVL54:
 198:main.c        ****     PWM_2_Start();
 530              		.loc 1 198 0
 531 0028 FFF7FEFF 		bl	PWM_2_Start
 532              	.LVL55:
 199:main.c        ****      
 200:main.c        ****     // write comparision int for MC33926 duty cycle must me larger than 10% and less than 90%   
 201:main.c        ****     PWM_1_WritePeriod(100);
 533              		.loc 1 201 0
 534 002c 6420     		movs	r0, #100
 535 002e FFF7FEFF 		bl	PWM_1_WritePeriod
 536              	.LVL56:
 202:main.c        ****     PWM_2_WritePeriod(100);
 537              		.loc 1 202 0
 538 0032 6420     		movs	r0, #100
ARM GAS  C:\Users\umasu\AppData\Local\Temp\ccJmFo3c.s 			page 14


 539 0034 FFF7FEFF 		bl	PWM_2_WritePeriod
 540              	.LVL57:
 203:main.c        ****     
 204:main.c        ****     PWM_1_WriteCompare(50);
 541              		.loc 1 204 0
 542 0038 3220     		movs	r0, #50
 543 003a FFF7FEFF 		bl	PWM_1_WriteCompare
 544              	.LVL58:
 205:main.c        ****     PWM_2_WriteCompare(50);
 545              		.loc 1 205 0
 546 003e 3220     		movs	r0, #50
 547 0040 FFF7FEFF 		bl	PWM_2_WriteCompare
 548              	.LVL59:
 206:main.c        ****     QuadDec_M1_Start();
 549              		.loc 1 206 0
 550 0044 FFF7FEFF 		bl	QuadDec_M1_Start
 551              	.LVL60:
 207:main.c        ****     QuadDec_M2_Start();
 552              		.loc 1 207 0
 553 0048 FFF7FEFF 		bl	QuadDec_M2_Start
 554              	.LVL61:
 208:main.c        ****     
 209:main.c        ****     
 210:main.c        **** //**********************************calculate path    
 211:main.c        **** //    int startX = 0, startY = 0;
 212:main.c        **** //    int targetX = 4, targetY = 4;
 213:main.c        **** //
 214:main.c        **** //    Node* endNode = AStar(startX, startY, targetX, targetY);
 215:main.c        **** //
 216:main.c        **** //    // Print the path
 217:main.c        **** //    printPath(endNode);
 218:main.c        **** //**************************************************    
 219:main.c        ****     
 220:main.c        ****    getMovementArray(2,2,4,10,SOUTH);
 555              		.loc 1 220 0
 556 004c 0220     		movs	r0, #2
 557 004e 0090     		str	r0, [sp]
 558 0050 0A23     		movs	r3, #10
 559 0052 0422     		movs	r2, #4
 560 0054 0146     		mov	r1, r0
 561 0056 FFF7FEFF 		bl	getMovementArray
 562              	.LVL62:
 563              	.LBB2:
 221:main.c        ****     
 222:main.c        ****     //this loops through all the movement required in the path
 223:main.c        ****     //movement contains distance for going straight and a turn
 224:main.c        ****     for(int i=0; i<16;i++){//length should be how many movements there should be
 564              		.loc 1 224 0
 565 005a 0024     		movs	r4, #0
 566 005c 26E0     		b	.L43
 567              	.LVL63:
 568              	.L52:
 225:main.c        **** //       if(i!=0){
 226:main.c        **** //            goStraight_cm(moveCountArray[i].distance-6);//if not the first movement remove 5 cm a
 227:main.c        **** //       }else{
 228:main.c        ****             goStraight_cm(path[i].distance);
 569              		.loc 1 228 0
ARM GAS  C:\Users\umasu\AppData\Local\Temp\ccJmFo3c.s 			page 15


 570 005e 174B     		ldr	r3, .L57+4
 571 0060 53F83400 		ldr	r0, [r3, r4, lsl #3]
 572 0064 FFF7FEFF 		bl	goStraight_cm
 573              	.LVL64:
 229:main.c        **** //       }
 230:main.c        ****         if(moveCountArray[i].turnDirection=='R'){
 574              		.loc 1 230 0
 575 0068 154B     		ldr	r3, .L57+8
 576 006a 03EBC403 		add	r3, r3, r4, lsl #3
 577 006e 1B79     		ldrb	r3, [r3, #4]	@ zero_extendqisi2
 578 0070 522B     		cmp	r3, #82
 579 0072 09D1     		bne	.L54
 580 0074 01E0     		b	.L44
 581              	.L46:
 231:main.c        ****            while(Sout_R_Read()!=0){
 232:main.c        ****              goStraight();
 582              		.loc 1 232 0
 583 0076 FFF7FEFF 		bl	goStraight
 584              	.LVL65:
 585              	.L44:
 231:main.c        ****            while(Sout_R_Read()!=0){
 586              		.loc 1 231 0
 587 007a FFF7FEFF 		bl	Sout_R_Read
 588              	.LVL66:
 589 007e 0028     		cmp	r0, #0
 590 0080 F9D1     		bne	.L46
 233:main.c        ****            }
 234:main.c        ****            turnRight();
 591              		.loc 1 234 0
 592 0082 FFF7FEFF 		bl	turnRight
 593              	.LVL67:
 594 0086 10E0     		b	.L47
 595              	.L54:
 235:main.c        ****         }else if(moveCountArray[i].turnDirection=='L'){
 596              		.loc 1 235 0
 597 0088 4C2B     		cmp	r3, #76
 598 008a 09D1     		bne	.L55
 599 008c 01E0     		b	.L48
 600              	.L50:
 236:main.c        ****            while(Sout_L_Read()!=0){
 237:main.c        ****              goStraight();
 601              		.loc 1 237 0
 602 008e FFF7FEFF 		bl	goStraight
 603              	.LVL68:
 604              	.L48:
 236:main.c        ****            while(Sout_L_Read()!=0){
 605              		.loc 1 236 0
 606 0092 FFF7FEFF 		bl	Sout_L_Read
 607              	.LVL69:
 608 0096 0028     		cmp	r0, #0
 609 0098 F9D1     		bne	.L50
 238:main.c        ****            }
 239:main.c        ****            turnLeft();
 610              		.loc 1 239 0
 611 009a FFF7FEFF 		bl	turnLeft
 612              	.LVL70:
 613 009e 04E0     		b	.L47
ARM GAS  C:\Users\umasu\AppData\Local\Temp\ccJmFo3c.s 			page 16


 614              	.L55:
 240:main.c        ****         }else if(moveCountArray[i].turnDirection=='E'){
 615              		.loc 1 240 0
 616 00a0 452B     		cmp	r3, #69
 617 00a2 02D1     		bne	.L47
 241:main.c        ****             stop();
 618              		.loc 1 241 0
 619 00a4 FFF7FEFF 		bl	stop
 620              	.LVL71:
 242:main.c        ****             break;
 621              		.loc 1 242 0
 622 00a8 02E0     		b	.L51
 623              	.L47:
 224:main.c        **** //       if(i!=0){
 624              		.loc 1 224 0 discriminator 2
 625 00aa 0134     		adds	r4, r4, #1
 626              	.LVL72:
 627              	.L43:
 224:main.c        **** //       if(i!=0){
 628              		.loc 1 224 0 is_stmt 0 discriminator 1
 629 00ac 0F2C     		cmp	r4, #15
 630 00ae D6DD     		ble	.L52
 631              	.L51:
 632              	.LBE2:
 243:main.c        ****         }
 244:main.c        ****     }
 245:main.c        ****     stop();
 633              		.loc 1 245 0 is_stmt 1
 634 00b0 FFF7FEFF 		bl	stop
 635              	.LVL73:
 636              	.L53:
 637 00b4 FEE7     		b	.L53
 638              	.L58:
 639 00b6 00BF     		.align	2
 640              	.L57:
 641 00b8 00000000 		.word	isr_1_handler
 642 00bc 00000000 		.word	.LANCHOR1
 643 00c0 00000000 		.word	moveCountArray
 644              		.cfi_endproc
 645              	.LFE71:
 646              		.size	main, .-main
 647              		.global	current_direction
 648              		.global	position
 649              		.global	target
 650              		.global	stepCount
 651              		.global	currentY
 652              		.global	currentX
 653              		.global	current_state
 654              		.comm	moveCountArray,80,4
 655              		.global	path
 656              		.comm	comp3_sum,1,1
 657              		.comm	comp2_sum,1,1
 658              		.comm	comp1_sum,1,1
 659              		.comm	comp0_sum,1,1
 660              		.global	isTurning
 661              		.global	count
 662              		.global	counter
ARM GAS  C:\Users\umasu\AppData\Local\Temp\ccJmFo3c.s 			page 17


 663              		.comm	path_length,4,4
 664              		.global	timeInterval_s
 665              		.global	wheelCircumference_cm
 666              		.global	CPR
 667              		.comm	movementArray,80,4
 668              		.data
 669              		.align	3
 670              		.set	.LANCHOR1,. + 0
 671              		.type	path, %object
 672              		.size	path, 80
 673              	path:
 674 0000 12000000 		.word	18
 675 0004 4C       		.byte	76
 676 0005 000000   		.space	3
 677 0008 1E000000 		.word	30
 678 000c 4C       		.byte	76
 679 000d 000000   		.space	3
 680 0010 12000000 		.word	18
 681 0014 52       		.byte	82
 682 0015 000000   		.space	3
 683 0018 32000000 		.word	50
 684 001c 4E       		.byte	78
 685 001d 000000   		.space	3
 686 0020 00000000 		.space	48
 686      00000000 
 686      00000000 
 686      00000000 
 686      00000000 
 687              		.type	current_direction, %object
 688              		.size	current_direction, 1
 689              	current_direction:
 690 0050 02       		.byte	2
 691 0051 000000   		.space	3
 692              		.type	position, %object
 693              		.size	position, 4
 694              	position:
 695 0054 FFFFFFFF 		.word	-1
 696              		.type	target, %object
 697              		.size	target, 8
 698              	target:
 699 0058 0E000000 		.word	14
 700 005c 0F000000 		.word	15
 701              		.type	currentY, %object
 702              		.size	currentY, 4
 703              	currentY:
 704 0060 02000000 		.word	2
 705              		.type	currentX, %object
 706              		.size	currentX, 4
 707              	currentX:
 708 0064 02000000 		.word	2
 709              		.type	current_state, %object
 710              		.size	current_state, 1
 711              	current_state:
 712 0068 03       		.byte	3
 713 0069 000000   		.space	3
 714              		.type	counter, %object
 715              		.size	counter, 4
ARM GAS  C:\Users\umasu\AppData\Local\Temp\ccJmFo3c.s 			page 18


 716              	counter:
 717 006c 01000000 		.word	1
 718              		.type	timeInterval_s, %object
 719              		.size	timeInterval_s, 8
 720              	timeInterval_s:
 721 0070 0C022B87 		.word	-2027224564
 722 0074 16D92540 		.word	1076222230
 723              		.type	wheelCircumference_cm, %object
 724              		.size	wheelCircumference_cm, 4
 725              	wheelCircumference_cm:
 726 0078 7201A241 		.word	1101136242
 727              		.type	CPR, %object
 728              		.size	CPR, 4
 729              	CPR:
 730 007c E4000000 		.word	228
 731              		.bss
 732              		.align	2
 733              		.set	.LANCHOR0,. + 0
 734              		.type	count, %object
 735              		.size	count, 4
 736              	count:
 737 0000 00000000 		.space	4
 738              		.type	isTurning, %object
 739              		.size	isTurning, 1
 740              	isTurning:
 741 0004 00       		.space	1
 742 0005 000000   		.space	3
 743              		.type	stepCount, %object
 744              		.size	stepCount, 4
 745              	stepCount:
 746 0008 00000000 		.space	4
 747              		.text
 748              	.Letext0:
 749              		.file 2 "c:\\program files (x86)\\cypress\\psoc creator\\4.2\\psoc creator\\import\\gnu\\arm\\5.4.
 750              		.file 3 "c:\\program files (x86)\\cypress\\psoc creator\\4.2\\psoc creator\\import\\gnu\\arm\\5.4.
 751              		.file 4 "Generated_Source\\PSoC5/cytypes.h"
 752              		.file 5 "program.h"
 753              		.file 6 "Generated_Source\\PSoC5/core_cm3.h"
 754              		.file 7 "Generated_Source\\PSoC5/Comp_0.h"
 755              		.file 8 "Generated_Source\\PSoC5/Comp_1.h"
 756              		.file 9 "Generated_Source\\PSoC5/Comp_2.h"
 757              		.file 10 "Generated_Source\\PSoC5/Comp_3.h"
 758              		.file 11 "Generated_Source\\PSoC5/Timer_1.h"
 759              		.file 12 "Generated_Source\\PSoC5/PWM_1.h"
 760              		.file 13 "Generated_Source\\PSoC5/PWM_2.h"
 761              		.file 14 "Generated_Source\\PSoC5/Sout_L.h"
 762              		.file 15 "Generated_Source\\PSoC5/Sout_M1.h"
 763              		.file 16 "Generated_Source\\PSoC5/Sout_R.h"
 764              		.file 17 "Generated_Source\\PSoC5/QuadDec_M1.h"
 765              		.file 18 "Generated_Source\\PSoC5/isr_1.h"
 766              		.file 19 "Generated_Source\\PSoC5/Clock_PWM.h"
 767              		.file 20 "Generated_Source\\PSoC5/QuadDec_M2.h"