ARM GAS  C:\Users\dulan\AppData\Local\Temp\ccHxS1uX.s 			page 1


   1              		.syntax unified
   2              		.cpu cortex-m3
   3              		.fpu softvfp
   4              		.eabi_attribute 20, 1
   5              		.eabi_attribute 21, 1
   6              		.eabi_attribute 23, 3
   7              		.eabi_attribute 24, 1
   8              		.eabi_attribute 25, 1
   9              		.eabi_attribute 26, 1
  10              		.eabi_attribute 30, 1
  11              		.eabi_attribute 34, 1
  12              		.eabi_attribute 18, 4
  13              		.thumb
  14              		.syntax unified
  15              		.file	"functions.c"
  16              		.text
  17              	.Ltext0:
  18              		.cfi_sections	.debug_frame
  19              		.section	.text.isValidCell,"ax",%progbits
  20              		.align	2
  21              		.global	isValidCell
  22              		.thumb
  23              		.thumb_func
  24              		.type	isValidCell, %function
  25              	isValidCell:
  26              	.LFB64:
  27              		.file 1 "functions.c"
   1:functions.c   **** 
   2:functions.c   **** #include "program.h"
   3:functions.c   **** 
   4:functions.c   **** Movement movementArray[25];
   5:functions.c   **** 
   6:functions.c   **** 
   7:functions.c   **** // Define the grid map with obstacles (1) and open cells (0)
   8:functions.c   **** int map[ROWS][COLS] = {
   9:functions.c   ****     {1,1,1,1,1,1,1,1,1,1,1,1,1,1,1,1,1,1,1},
  10:functions.c   ****     {1,0,1,0,0,0,0,0,0,0,0,0,0,0,0,0,0,0,1},
  11:functions.c   ****     {1,0,1,0,1,1,1,1,1,0,1,1,1,0,1,1,1,0,1},
  12:functions.c   ****     {1,0,0,0,1,0,0,0,1,0,0,0,0,0,0,0,1,0,1},
  13:functions.c   ****     {1,1,1,0,1,0,1,0,1,1,1,0,1,0,1,1,1,0,1},
  14:functions.c   ****     {1,0,0,0,1,0,1,0,0,0,1,0,1,0,0,0,0,0,1},
  15:functions.c   ****     {1,0,1,1,1,0,1,0,1,0,1,0,1,0,1,1,1,0,1},
  16:functions.c   ****     {1,0,1,0,1,0,0,0,1,0,1,0,1,0,1,0,0,0,1},
  17:functions.c   ****     {1,0,1,0,1,0,1,1,1,0,1,0,1,0,1,0,1,1,1},
  18:functions.c   ****     {1,0,0,0,1,0,1,0,0,0,1,0,0,0,1,0,0,0,1},
  19:functions.c   ****     {1,1,1,0,1,0,1,1,1,1,1,1,1,1,1,1,1,0,1},
  20:functions.c   ****     {1,0,0,0,0,0,0,0,0,0,0,0,0,0,0,0,0,0,1},
  21:functions.c   ****     {1,0,1,1,1,1,1,1,1,1,1,1,1,0,1,1,1,1,1},
  22:functions.c   ****     {1,0,0,0,0,0,0,0,1,0,0,0,0,0,0,0,0,0,1},
  23:functions.c   ****     {1,1,1,1,1,1,1,1,1,1,1,1,1,1,1,1,1,1,1},
  24:functions.c   **** };
  25:functions.c   **** 
  26:functions.c   **** // Structure to represent a node in the grid
  27:functions.c   **** typedef struct {
  28:functions.c   ****     int x, y;
  29:functions.c   **** } Node;
  30:functions.c   **** 
ARM GAS  C:\Users\dulan\AppData\Local\Temp\ccHxS1uX.s 			page 2


  31:functions.c   **** // Structure to represent a cell in the grid
  32:functions.c   **** typedef struct {
  33:functions.c   ****     int cost;
  34:functions.c   ****     Node parent;
  35:functions.c   **** } Cell;
  36:functions.c   **** 
  37:functions.c   **** // Initialize the path length
  38:functions.c   **** int pathLength = 0;
  39:functions.c   **** 
  40:functions.c   **** // Trace the path from target to start
  41:functions.c   **** Node path[ROWS * COLS];
  42:functions.c   **** 
  43:functions.c   **** 
  44:functions.c   **** // Function to check if a cell is within the map boundaries
  45:functions.c   **** bool isValidCell(int x, int y) {
  28              		.loc 1 45 0
  29              		.cfi_startproc
  30              		@ args = 0, pretend = 0, frame = 0
  31              		@ frame_needed = 0, uses_anonymous_args = 0
  32              		@ link register save eliminated.
  33              	.LVL0:
  46:functions.c   ****     return (x >= 0 && x < ROWS && y >= 0 && y < COLS);
  34              		.loc 1 46 0
  35 0000 0E28     		cmp	r0, #14
  36 0002 05D8     		bhi	.L3
  37              		.loc 1 46 0 is_stmt 0 discriminator 1
  38 0004 0029     		cmp	r1, #0
  39 0006 05DB     		blt	.L4
  40              		.loc 1 46 0 discriminator 3
  41 0008 1229     		cmp	r1, #18
  42 000a 05DD     		ble	.L5
  43              		.loc 1 46 0
  44 000c 0020     		movs	r0, #0
  45              	.LVL1:
  46 000e 7047     		bx	lr
  47              	.LVL2:
  48              	.L3:
  49 0010 0020     		movs	r0, #0
  50              	.LVL3:
  51 0012 7047     		bx	lr
  52              	.LVL4:
  53              	.L4:
  54 0014 0020     		movs	r0, #0
  55              	.LVL5:
  56 0016 7047     		bx	lr
  57              	.LVL6:
  58              	.L5:
  59 0018 0120     		movs	r0, #1
  60              	.LVL7:
  47:functions.c   **** }
  61              		.loc 1 47 0 is_stmt 1
  62 001a 7047     		bx	lr
  63              		.cfi_endproc
  64              	.LFE64:
  65              		.size	isValidCell, .-isValidCell
  66              		.section	.text.dijkstra,"ax",%progbits
  67              		.align	2
ARM GAS  C:\Users\dulan\AppData\Local\Temp\ccHxS1uX.s 			page 3


  68              		.global	dijkstra
  69              		.thumb
  70              		.thumb_func
  71              		.type	dijkstra, %function
  72              	dijkstra:
  73              	.LFB65:
  48:functions.c   **** 
  49:functions.c   **** // Function to find the shortest path using Dijkstra's algorithm
  50:functions.c   **** void dijkstra(int startX, int startY, int targetX, int targetY) {
  74              		.loc 1 50 0
  75              		.cfi_startproc
  76              		@ args = 0, pretend = 0, frame = 5760
  77              		@ frame_needed = 0, uses_anonymous_args = 0
  78              	.LVL8:
  79 0000 2DE9F04F 		push	{r4, r5, r6, r7, r8, r9, r10, fp, lr}
  80              		.cfi_def_cfa_offset 36
  81              		.cfi_offset 4, -36
  82              		.cfi_offset 5, -32
  83              		.cfi_offset 6, -28
  84              		.cfi_offset 7, -24
  85              		.cfi_offset 8, -20
  86              		.cfi_offset 9, -16
  87              		.cfi_offset 10, -12
  88              		.cfi_offset 11, -8
  89              		.cfi_offset 14, -4
  90 0004 ADF5B45D 		sub	sp, sp, #5760
  91              		.cfi_def_cfa_offset 5796
  92 0008 81B0     		sub	sp, sp, #4
  93              		.cfi_def_cfa_offset 5800
  94 000a 8146     		mov	r9, r0
  95 000c 8B46     		mov	fp, r1
  96 000e 9246     		mov	r10, r2
  97 0010 0193     		str	r3, [sp, #4]
  98              	.LVL9:
  99              	.LBB2:
  51:functions.c   ****     // Create an array to store visited status and cell information
  52:functions.c   ****     Cell grid[ROWS][COLS];
  53:functions.c   **** 
  54:functions.c   ****     // Initialize all cells with maximum cost and invalid parent
  55:functions.c   ****     for (int i = 0; i < ROWS; i++) {
 100              		.loc 1 55 0
 101 0012 0025     		movs	r5, #0
 102 0014 16E0     		b	.L7
 103              	.LVL10:
 104              	.L8:
 105              	.LBB3:
  56:functions.c   ****         for (int j = 0; j < COLS; j++) {
  57:functions.c   ****             grid[i][j].cost = INT_MAX;
 106              		.loc 1 57 0 discriminator 3
 107 0016 0DF62410 		addw	r0, sp, #2340
 108 001a 02EB4201 		add	r1, r2, r2, lsl #1
 109 001e E423     		movs	r3, #228
 110 0020 03FB05F3 		mul	r3, r3, r5
 111 0024 03EB8103 		add	r3, r3, r1, lsl #2
 112 0028 C118     		adds	r1, r0, r3
 113 002a 6FF00044 		mvn	r4, #-2147483648
 114 002e C450     		str	r4, [r0, r3]
ARM GAS  C:\Users\dulan\AppData\Local\Temp\ccHxS1uX.s 			page 4


  58:functions.c   ****             grid[i][j].parent.x = -1;
 115              		.loc 1 58 0 discriminator 3
 116 0030 4FF0FF33 		mov	r3, #-1
 117 0034 4B60     		str	r3, [r1, #4]
  59:functions.c   ****             grid[i][j].parent.y = -1;
 118              		.loc 1 59 0 discriminator 3
 119 0036 8B60     		str	r3, [r1, #8]
  56:functions.c   ****         for (int j = 0; j < COLS; j++) {
 120              		.loc 1 56 0 discriminator 3
 121 0038 0132     		adds	r2, r2, #1
 122              	.LVL11:
 123 003a 00E0     		b	.L9
 124              	.LVL12:
 125              	.L23:
 126              	.LBE3:
 127 003c 0022     		movs	r2, #0
 128              	.L9:
 129              	.LVL13:
 130              	.LBB4:
  56:functions.c   ****         for (int j = 0; j < COLS; j++) {
 131              		.loc 1 56 0 is_stmt 0 discriminator 1
 132 003e 122A     		cmp	r2, #18
 133 0040 E9DD     		ble	.L8
 134              	.LBE4:
  55:functions.c   ****         for (int j = 0; j < COLS; j++) {
 135              		.loc 1 55 0 is_stmt 1 discriminator 2
 136 0042 0135     		adds	r5, r5, #1
 137              	.LVL14:
 138              	.L7:
  55:functions.c   ****         for (int j = 0; j < COLS; j++) {
 139              		.loc 1 55 0 is_stmt 0 discriminator 1
 140 0044 0E2D     		cmp	r5, #14
 141 0046 F9DD     		ble	.L23
 142              	.LBE2:
  60:functions.c   ****         }
  61:functions.c   ****     }
  62:functions.c   **** 
  63:functions.c   ****     // Initialize the starting cell
  64:functions.c   ****     grid[startX][startY].cost = 0;
 143              		.loc 1 64 0 is_stmt 1
 144 0048 0BEB4B02 		add	r2, fp, fp, lsl #1
 145 004c E423     		movs	r3, #228
 146 004e 03FB09F3 		mul	r3, r3, r9
 147 0052 03EB8203 		add	r3, r3, r2, lsl #2
 148 0056 0021     		movs	r1, #0
 149 0058 0DF62412 		addw	r2, sp, #2340
 150 005c D150     		str	r1, [r2, r3]
  65:functions.c   ****     Node currentNode = {startX, startY};
 151              		.loc 1 65 0
 152 005e CDF81C99 		str	r9, [sp, #2332]
 153 0062 CDF820B9 		str	fp, [sp, #2336]
  66:functions.c   **** 
  67:functions.c   ****    
  68:functions.c   ****     // Create an array to store possible movement directions
  69:functions.c   ****     int dx[] = {1, -1, 0, 0};
 154              		.loc 1 69 0
 155 0066 0DF60C15 		addw	r5, sp, #2316
ARM GAS  C:\Users\dulan\AppData\Local\Temp\ccHxS1uX.s 			page 5


 156              	.LVL15:
 157 006a 674C     		ldr	r4, .L26
 158 006c 94E80F00 		ldmia	r4, {r0, r1, r2, r3}
 159 0070 85E80F00 		stmia	r5, {r0, r1, r2, r3}
  70:functions.c   ****     int dy[] = {0, 0, 1, -1};
 160              		.loc 1 70 0
 161 0074 0DF6FC05 		addw	r5, sp, #2300
 162 0078 1034     		adds	r4, r4, #16
 163 007a 94E80F00 		ldmia	r4, {r0, r1, r2, r3}
 164 007e 85E80F00 		stmia	r5, {r0, r1, r2, r3}
  71:functions.c   **** 
  72:functions.c   ****     // Main loop
  73:functions.c   ****     while (currentNode.x != targetX || currentNode.y != targetY) {
 165              		.loc 1 73 0
 166 0082 6EE0     		b	.L10
 167              	.L18:
 168              	.LVL16:
 169              	.LBB5:
  74:functions.c   ****         // Mark the current cell as visited
  75:functions.c   ****         int x = currentNode.x;
  76:functions.c   ****         int y = currentNode.y;
 170              		.loc 1 76 0
 171 0084 DDF82079 		ldr	r7, [sp, #2336]
 172              	.LVL17:
  77:functions.c   ****         grid[x][y].cost = -1;
 173              		.loc 1 77 0
 174 0088 07EB4702 		add	r2, r7, r7, lsl #1
 175 008c E423     		movs	r3, #228
 176 008e 03FB08F3 		mul	r3, r3, r8
 177 0092 03EB8203 		add	r3, r3, r2, lsl #2
 178 0096 4FF0FF31 		mov	r1, #-1
 179 009a 0DF62412 		addw	r2, sp, #2340
 180 009e D150     		str	r1, [r2, r3]
 181              	.LVL18:
 182              	.LBB6:
  78:functions.c   **** 
  79:functions.c   ****         // Check neighbors
  80:functions.c   ****         for (int i = 0; i < 4; i++) {
 183              		.loc 1 80 0
 184 00a0 0025     		movs	r5, #0
 185 00a2 3CE0     		b	.L11
 186              	.LVL19:
 187              	.L13:
 188              	.LBB7:
  81:functions.c   ****             int newX = x + dx[i];
 189              		.loc 1 81 0
 190 00a4 0DF60C13 		addw	r3, sp, #2316
 191 00a8 53F82540 		ldr	r4, [r3, r5, lsl #2]
 192 00ac 4444     		add	r4, r4, r8
 193              	.LVL20:
  82:functions.c   ****             int newY = y + dy[i];
 194              		.loc 1 82 0
 195 00ae 0DF6FC03 		addw	r3, sp, #2300
 196 00b2 53F82560 		ldr	r6, [r3, r5, lsl #2]
 197 00b6 3E44     		add	r6, r6, r7
 198              	.LVL21:
  83:functions.c   **** 
ARM GAS  C:\Users\dulan\AppData\Local\Temp\ccHxS1uX.s 			page 6


  84:functions.c   ****             if (isValidCell(newX, newY) && map[newX][newY] == 0) {
 199              		.loc 1 84 0
 200 00b8 3146     		mov	r1, r6
 201 00ba 2046     		mov	r0, r4
 202 00bc FFF7FEFF 		bl	isValidCell
 203              	.LVL22:
 204 00c0 60B3     		cbz	r0, .L12
 205              		.loc 1 84 0 is_stmt 0 discriminator 1
 206 00c2 04EBC403 		add	r3, r4, r4, lsl #3
 207 00c6 04EB4303 		add	r3, r4, r3, lsl #1
 208 00ca 3344     		add	r3, r3, r6
 209 00cc 4F4A     		ldr	r2, .L26+4
 210 00ce 52F82330 		ldr	r3, [r2, r3, lsl #2]
 211 00d2 1BBB     		cbnz	r3, .L12
 212              	.LBB8:
  85:functions.c   ****                 int newCost = grid[x][y].cost + 1;
 213              		.loc 1 85 0 is_stmt 1
 214 00d4 0DF62410 		addw	r0, sp, #2340
 215 00d8 07EB4702 		add	r2, r7, r7, lsl #1
 216 00dc E423     		movs	r3, #228
 217 00de 03FB08F1 		mul	r1, r3, r8
 218 00e2 01EB8202 		add	r2, r1, r2, lsl #2
 219 00e6 8258     		ldr	r2, [r0, r2]
 220 00e8 0132     		adds	r2, r2, #1
 221              	.LVL23:
  86:functions.c   ****                 if (newCost < grid[newX][newY].cost) {
 222              		.loc 1 86 0
 223 00ea 06EB4601 		add	r1, r6, r6, lsl #1
 224 00ee 03FB04F3 		mul	r3, r3, r4
 225 00f2 03EB8103 		add	r3, r3, r1, lsl #2
 226 00f6 C358     		ldr	r3, [r0, r3]
 227 00f8 9A42     		cmp	r2, r3
 228 00fa 0FDA     		bge	.L12
  87:functions.c   ****                     grid[newX][newY].cost = newCost;
 229              		.loc 1 87 0
 230 00fc 0346     		mov	r3, r0
 231 00fe 7000     		lsls	r0, r6, #1
 232 0100 8119     		adds	r1, r0, r6
 233 0102 4FF0E40E 		mov	lr, #228
 234 0106 0EFB04F4 		mul	r4, lr, r4
 235              	.LVL24:
 236 010a 04EB8101 		add	r1, r4, r1, lsl #2
 237 010e 03EB010E 		add	lr, r3, r1
 238 0112 5A50     		str	r2, [r3, r1]
  88:functions.c   ****                     grid[newX][newY].parent.x = x;
 239              		.loc 1 88 0
 240 0114 CEF80480 		str	r8, [lr, #4]
  89:functions.c   ****                     grid[newX][newY].parent.y = y;
 241              		.loc 1 89 0
 242 0118 CEF80870 		str	r7, [lr, #8]
 243              	.LVL25:
 244              	.L12:
 245              	.LBE8:
 246              	.LBE7:
  80:functions.c   ****             int newX = x + dx[i];
 247              		.loc 1 80 0 discriminator 2
 248 011c 0135     		adds	r5, r5, #1
ARM GAS  C:\Users\dulan\AppData\Local\Temp\ccHxS1uX.s 			page 7


 249              	.LVL26:
 250              	.L11:
  80:functions.c   ****             int newX = x + dx[i];
 251              		.loc 1 80 0 is_stmt 0 discriminator 1
 252 011e 032D     		cmp	r5, #3
 253 0120 C0DD     		ble	.L13
 254 0122 0020     		movs	r0, #0
 255 0124 6FF00044 		mvn	r4, #-2147483648
 256 0128 19E0     		b	.L14
 257              	.LVL27:
 258              	.L16:
 259              	.LBE6:
 260              	.LBB9:
 261              	.LBB10:
  90:functions.c   ****                 }
  91:functions.c   ****             }
  92:functions.c   ****         }
  93:functions.c   **** 
  94:functions.c   ****         // Find the next unvisited cell with the lowest cost
  95:functions.c   ****         int minCost = INT_MAX;
  96:functions.c   ****         for (int i = 0; i < ROWS; i++) {
  97:functions.c   ****             for (int j = 0; j < COLS; j++) {
  98:functions.c   ****                 if (grid[i][j].cost != -1 && grid[i][j].cost < minCost) {
 262              		.loc 1 98 0 is_stmt 1
 263 012a 01EB4103 		add	r3, r1, r1, lsl #1
 264 012e E422     		movs	r2, #228
 265 0130 02FB00F2 		mul	r2, r2, r0
 266 0134 02EB8303 		add	r3, r2, r3, lsl #2
 267 0138 0DF62412 		addw	r2, sp, #2340
 268 013c D358     		ldr	r3, [r2, r3]
 269 013e B3F1FF3F 		cmp	r3, #-1
 270 0142 06D0     		beq	.L15
 271              		.loc 1 98 0 is_stmt 0 discriminator 1
 272 0144 9C42     		cmp	r4, r3
 273 0146 04DD     		ble	.L15
 274              	.LVL28:
  99:functions.c   ****                     minCost = grid[i][j].cost;
 100:functions.c   ****                     currentNode.x = i;
 275              		.loc 1 100 0 is_stmt 1
 276 0148 CDF81C09 		str	r0, [sp, #2332]
 101:functions.c   ****                     currentNode.y = j;
 277              		.loc 1 101 0
 278 014c CDF82019 		str	r1, [sp, #2336]
  99:functions.c   ****                     minCost = grid[i][j].cost;
 279              		.loc 1 99 0
 280 0150 1C46     		mov	r4, r3
 281              	.LVL29:
 282              	.L15:
  97:functions.c   ****                 if (grid[i][j].cost != -1 && grid[i][j].cost < minCost) {
 283              		.loc 1 97 0 discriminator 2
 284 0152 0131     		adds	r1, r1, #1
 285              	.LVL30:
 286 0154 00E0     		b	.L17
 287              	.LVL31:
 288              	.L24:
 289              	.LBE10:
 290 0156 0021     		movs	r1, #0
ARM GAS  C:\Users\dulan\AppData\Local\Temp\ccHxS1uX.s 			page 8


 291              	.L17:
 292              	.LVL32:
 293              	.LBB11:
  97:functions.c   ****                 if (grid[i][j].cost != -1 && grid[i][j].cost < minCost) {
 294              		.loc 1 97 0 is_stmt 0 discriminator 1
 295 0158 1229     		cmp	r1, #18
 296 015a E6DD     		ble	.L16
 297              	.LBE11:
  96:functions.c   ****             for (int j = 0; j < COLS; j++) {
 298              		.loc 1 96 0 is_stmt 1 discriminator 2
 299 015c 0130     		adds	r0, r0, #1
 300              	.LVL33:
 301              	.L14:
  96:functions.c   ****             for (int j = 0; j < COLS; j++) {
 302              		.loc 1 96 0 is_stmt 0 discriminator 1
 303 015e 0E28     		cmp	r0, #14
 304 0160 F9DD     		ble	.L24
 305              	.LVL34:
 306              	.L10:
 307              	.LBE9:
 308              	.LBE5:
  73:functions.c   ****         // Mark the current cell as visited
 309              		.loc 1 73 0 is_stmt 1
 310 0162 DDF81C89 		ldr	r8, [sp, #2332]
 311 0166 D045     		cmp	r8, r10
 312 0168 8CD1     		bne	.L18
  73:functions.c   ****         // Mark the current cell as visited
 313              		.loc 1 73 0 is_stmt 0 discriminator 1
 314 016a DDF82039 		ldr	r3, [sp, #2336]
 315 016e 019A     		ldr	r2, [sp, #4]
 316 0170 9342     		cmp	r3, r2
 317 0172 87D1     		bne	.L18
 102:functions.c   ****                 }
 103:functions.c   ****             }
 104:functions.c   ****         }
 105:functions.c   ****     }
 106:functions.c   ****     // Store the path in a temporary array
 107:functions.c   ****     // Store the starting point in the path
 108:functions.c   ****     pathLength=0;
 109:functions.c   ****     Node tempPath[ROWS * COLS];
 110:functions.c   ****     tempPath[pathLength++] = currentNode;
 318              		.loc 1 110 0 is_stmt 1
 319 0174 0122     		movs	r2, #1
 320 0176 264B     		ldr	r3, .L26+8
 321 0178 1A60     		str	r2, [r3]
 322 017a 05AB     		add	r3, sp, #20
 323 017c 0DF61C12 		addw	r2, sp, #2332
 324 0180 92E80300 		ldmia	r2, {r0, r1}
 325 0184 83E80300 		stmia	r3, {r0, r1}
 111:functions.c   ****     // Trace the path from target to start
 112:functions.c   ****     Node current = {targetX, targetY};
 326              		.loc 1 112 0
 327 0188 CDF80CA0 		str	r10, [sp, #12]
 328 018c 019B     		ldr	r3, [sp, #4]
 329 018e 0493     		str	r3, [sp, #16]
 113:functions.c   ****     while (current.x != startX || current.y != startY) {
 330              		.loc 1 113 0
ARM GAS  C:\Users\dulan\AppData\Local\Temp\ccHxS1uX.s 			page 9


 331 0190 1AE0     		b	.L19
 332              	.L20:
 114:functions.c   ****         tempPath[pathLength++] = current;
 333              		.loc 1 114 0
 334 0192 1F49     		ldr	r1, .L26+8
 335 0194 0A68     		ldr	r2, [r1]
 336 0196 501C     		adds	r0, r2, #1
 337 0198 0860     		str	r0, [r1]
 338 019a 03AC     		add	r4, sp, #12
 339 019c 05A9     		add	r1, sp, #20
 340 019e 01EBC202 		add	r2, r1, r2, lsl #3
 341 01a2 94E80300 		ldmia	r4, {r0, r1}
 342 01a6 82E80300 		stmia	r2, {r0, r1}
 115:functions.c   ****         current = grid[current.x][current.y].parent;// Move to the parent cell
 343              		.loc 1 115 0
 344 01aa 01EB4101 		add	r1, r1, r1, lsl #1
 345 01ae E422     		movs	r2, #228
 346 01b0 02FB03F3 		mul	r3, r2, r3
 347 01b4 03EB8103 		add	r3, r3, r1, lsl #2
 348 01b8 0DF62412 		addw	r2, sp, #2340
 349 01bc 1344     		add	r3, r3, r2
 350 01be 0433     		adds	r3, r3, #4
 351 01c0 93E80300 		ldmia	r3, {r0, r1}
 352 01c4 84E80300 		stmia	r4, {r0, r1}
 353              	.L19:
 113:functions.c   ****     while (current.x != startX || current.y != startY) {
 354              		.loc 1 113 0
 355 01c8 039B     		ldr	r3, [sp, #12]
 356 01ca 9945     		cmp	r9, r3
 357 01cc E1D1     		bne	.L20
 113:functions.c   ****     while (current.x != startX || current.y != startY) {
 358              		.loc 1 113 0 is_stmt 0 discriminator 1
 359 01ce 049A     		ldr	r2, [sp, #16]
 360 01d0 9345     		cmp	fp, r2
 361 01d2 DED1     		bne	.L20
 362              	.LBB12:
 116:functions.c   ****     }
 117:functions.c   ****    
 118:functions.c   **** 
 119:functions.c   ****    
 120:functions.c   **** 
 121:functions.c   ****     // Reverse the path and store it in pathCoordinates
 122:functions.c   ****     for (int j = pathLength - 1, k = 0; j >= 0; j--, k++) {
 363              		.loc 1 122 0 is_stmt 1
 364 01d4 0E4B     		ldr	r3, .L26+8
 365 01d6 1B68     		ldr	r3, [r3]
 366 01d8 013B     		subs	r3, r3, #1
 367              	.LVL35:
 368 01da 0020     		movs	r0, #0
 369 01dc 0DE0     		b	.L21
 370              	.LVL36:
 371              	.L22:
 123:functions.c   ****         path[k].x = tempPath[j].x;
 372              		.loc 1 123 0 discriminator 3
 373 01de 05A9     		add	r1, sp, #20
 374 01e0 51F83340 		ldr	r4, [r1, r3, lsl #3]
 375 01e4 0B4A     		ldr	r2, .L26+12
ARM GAS  C:\Users\dulan\AppData\Local\Temp\ccHxS1uX.s 			page 10


 376 01e6 42F83040 		str	r4, [r2, r0, lsl #3]
 124:functions.c   ****         path[k].y = tempPath[j].y;
 377              		.loc 1 124 0 discriminator 3
 378 01ea 01EBC301 		add	r1, r1, r3, lsl #3
 379 01ee 4968     		ldr	r1, [r1, #4]
 380 01f0 02EBC002 		add	r2, r2, r0, lsl #3
 381 01f4 5160     		str	r1, [r2, #4]
 122:functions.c   ****         path[k].x = tempPath[j].x;
 382              		.loc 1 122 0 discriminator 3
 383 01f6 013B     		subs	r3, r3, #1
 384              	.LVL37:
 385 01f8 0130     		adds	r0, r0, #1
 386              	.LVL38:
 387              	.L21:
 122:functions.c   ****         path[k].x = tempPath[j].x;
 388              		.loc 1 122 0 is_stmt 0 discriminator 1
 389 01fa 002B     		cmp	r3, #0
 390 01fc EFDA     		bge	.L22
 391              	.LBE12:
 125:functions.c   ****     }
 126:functions.c   ****    
 127:functions.c   **** 
 128:functions.c   **** }
 392              		.loc 1 128 0 is_stmt 1
 393 01fe 0DF5B45D 		add	sp, sp, #5760
 394 0202 01B0     		add	sp, sp, #4
 395              		.cfi_def_cfa_offset 36
 396              		@ sp needed
 397 0204 BDE8F08F 		pop	{r4, r5, r6, r7, r8, r9, r10, fp, pc}
 398              	.LVL39:
 399              	.L27:
 400              		.align	2
 401              	.L26:
 402 0208 00000000 		.word	.LANCHOR0
 403 020c 00000000 		.word	.LANCHOR1
 404 0210 00000000 		.word	.LANCHOR2
 405 0214 00000000 		.word	path
 406              		.cfi_endproc
 407              	.LFE65:
 408              		.size	dijkstra, .-dijkstra
 409              		.global	__aeabi_i2d
 410              		.global	__aeabi_dmul
 411              		.global	__aeabi_d2iz
 412              		.section	.text.getDistance_H,"ax",%progbits
 413              		.align	2
 414              		.global	getDistance_H
 415              		.thumb
 416              		.thumb_func
 417              		.type	getDistance_H, %function
 418              	getDistance_H:
 419              	.LFB66:
 129:functions.c   **** 
 130:functions.c   **** int getDistance_H(int stepCount){
 420              		.loc 1 130 0
 421              		.cfi_startproc
 422              		@ args = 0, pretend = 0, frame = 0
 423              		@ frame_needed = 0, uses_anonymous_args = 0
ARM GAS  C:\Users\dulan\AppData\Local\Temp\ccHxS1uX.s 			page 11


 424              	.LVL40:
 425 0000 08B5     		push	{r3, lr}
 426              		.cfi_def_cfa_offset 8
 427              		.cfi_offset 3, -8
 428              		.cfi_offset 14, -4
 131:functions.c   ****     if(stepCount<4){
 429              		.loc 1 131 0
 430 0002 0328     		cmp	r0, #3
 431 0004 08DC     		bgt	.L29
 132:functions.c   ****         return stepCount*7.5;
 432              		.loc 1 132 0
 433 0006 FFF7FEFF 		bl	__aeabi_i2d
 434              	.LVL41:
 435 000a 0022     		movs	r2, #0
 436 000c 134B     		ldr	r3, .L35
 437 000e FFF7FEFF 		bl	__aeabi_dmul
 438              	.LVL42:
 439 0012 FFF7FEFF 		bl	__aeabi_d2iz
 440              	.LVL43:
 441 0016 08BD     		pop	{r3, pc}
 442              	.LVL44:
 443              	.L29:
 133:functions.c   ****     }else if(stepCount<6){
 444              		.loc 1 133 0
 445 0018 0528     		cmp	r0, #5
 446 001a 08DC     		bgt	.L31
 134:functions.c   ****         return stepCount*9.5;
 447              		.loc 1 134 0
 448 001c FFF7FEFF 		bl	__aeabi_i2d
 449              	.LVL45:
 450 0020 0022     		movs	r2, #0
 451 0022 0F4B     		ldr	r3, .L35+4
 452 0024 FFF7FEFF 		bl	__aeabi_dmul
 453              	.LVL46:
 454 0028 FFF7FEFF 		bl	__aeabi_d2iz
 455              	.LVL47:
 456 002c 08BD     		pop	{r3, pc}
 457              	.LVL48:
 458              	.L31:
 135:functions.c   ****     }else if(stepCount<8){
 459              		.loc 1 135 0
 460 002e 0728     		cmp	r0, #7
 461 0030 08DC     		bgt	.L32
 136:functions.c   ****         return stepCount*10.5;
 462              		.loc 1 136 0
 463 0032 FFF7FEFF 		bl	__aeabi_i2d
 464              	.LVL49:
 465 0036 0022     		movs	r2, #0
 466 0038 0A4B     		ldr	r3, .L35+8
 467 003a FFF7FEFF 		bl	__aeabi_dmul
 468              	.LVL50:
 469 003e FFF7FEFF 		bl	__aeabi_d2iz
 470              	.LVL51:
 471 0042 08BD     		pop	{r3, pc}
 472              	.LVL52:
 473              	.L32:
 137:functions.c   ****     }else if(stepCount<10){
ARM GAS  C:\Users\dulan\AppData\Local\Temp\ccHxS1uX.s 			page 12


 474              		.loc 1 137 0
 475 0044 0928     		cmp	r0, #9
 476 0046 04DC     		bgt	.L33
 138:functions.c   ****         return stepCount*11;
 477              		.loc 1 138 0
 478 0048 00EB8003 		add	r3, r0, r0, lsl #2
 479 004c 00EB4300 		add	r0, r0, r3, lsl #1
 480              	.LVL53:
 481 0050 08BD     		pop	{r3, pc}
 482              	.LVL54:
 483              	.L33:
 139:functions.c   ****     }else{
 140:functions.c   ****         return stepCount*12;
 484              		.loc 1 140 0
 485 0052 00EB4003 		add	r3, r0, r0, lsl #1
 486 0056 9800     		lsls	r0, r3, #2
 487              	.LVL55:
 141:functions.c   ****     }
 142:functions.c   ****     
 143:functions.c   **** }
 488              		.loc 1 143 0
 489 0058 08BD     		pop	{r3, pc}
 490              	.L36:
 491 005a 00BF     		.align	2
 492              	.L35:
 493 005c 00001E40 		.word	1075707904
 494 0060 00002340 		.word	1076035584
 495 0064 00002540 		.word	1076166656
 496              		.cfi_endproc
 497              	.LFE66:
 498              		.size	getDistance_H, .-getDistance_H
 499              		.section	.text.getDistance_V,"ax",%progbits
 500              		.align	2
 501              		.global	getDistance_V
 502              		.thumb
 503              		.thumb_func
 504              		.type	getDistance_V, %function
 505              	getDistance_V:
 506              	.LFB67:
 144:functions.c   **** 
 145:functions.c   **** 
 146:functions.c   **** int getDistance_V(int stepCount){
 507              		.loc 1 146 0
 508              		.cfi_startproc
 509              		@ args = 0, pretend = 0, frame = 0
 510              		@ frame_needed = 0, uses_anonymous_args = 0
 511              	.LVL56:
 147:functions.c   ****     if(stepCount<4){
 512              		.loc 1 147 0
 513 0000 0328     		cmp	r0, #3
 514 0002 02DC     		bgt	.L38
 148:functions.c   ****         return stepCount*3;
 515              		.loc 1 148 0
 516 0004 00EB4000 		add	r0, r0, r0, lsl #1
 517              	.LVL57:
 149:functions.c   ****     }else if(stepCount<6){
 150:functions.c   ****         return stepCount*6.5;
ARM GAS  C:\Users\dulan\AppData\Local\Temp\ccHxS1uX.s 			page 13


 151:functions.c   ****     }else if(stepCount<8){
 152:functions.c   ****         return stepCount*6.4;
 153:functions.c   ****     }else if(stepCount<10){
 154:functions.c   ****         return stepCount*7.4;
 155:functions.c   ****     }else{
 156:functions.c   ****         return stepCount*7.7;
 157:functions.c   ****     }
 158:functions.c   ****     
 159:functions.c   **** }
 518              		.loc 1 159 0
 519 0008 7047     		bx	lr
 520              	.LVL58:
 521              	.L38:
 146:functions.c   ****     if(stepCount<4){
 522              		.loc 1 146 0
 523 000a 08B5     		push	{r3, lr}
 524              		.cfi_def_cfa_offset 8
 525              		.cfi_offset 3, -8
 526              		.cfi_offset 14, -4
 149:functions.c   ****     }else if(stepCount<6){
 527              		.loc 1 149 0
 528 000c 0528     		cmp	r0, #5
 529 000e 08DC     		bgt	.L40
 150:functions.c   ****     }else if(stepCount<8){
 530              		.loc 1 150 0
 531 0010 FFF7FEFF 		bl	__aeabi_i2d
 532              	.LVL59:
 533 0014 0022     		movs	r2, #0
 534 0016 1A4B     		ldr	r3, .L44+24
 535 0018 FFF7FEFF 		bl	__aeabi_dmul
 536              	.LVL60:
 537 001c FFF7FEFF 		bl	__aeabi_d2iz
 538              	.LVL61:
 539 0020 08BD     		pop	{r3, pc}
 540              	.LVL62:
 541              	.L40:
 151:functions.c   ****         return stepCount*6.4;
 542              		.loc 1 151 0
 543 0022 0728     		cmp	r0, #7
 544 0024 09DC     		bgt	.L41
 152:functions.c   ****     }else if(stepCount<10){
 545              		.loc 1 152 0
 546 0026 FFF7FEFF 		bl	__aeabi_i2d
 547              	.LVL63:
 548 002a 0FA3     		adr	r3, .L44
 549 002c D3E90023 		ldrd	r2, [r3]
 550 0030 FFF7FEFF 		bl	__aeabi_dmul
 551              	.LVL64:
 552 0034 FFF7FEFF 		bl	__aeabi_d2iz
 553              	.LVL65:
 554 0038 08BD     		pop	{r3, pc}
 555              	.LVL66:
 556              	.L41:
 153:functions.c   ****         return stepCount*7.4;
 557              		.loc 1 153 0
 558 003a 0928     		cmp	r0, #9
 559 003c 09DC     		bgt	.L42
ARM GAS  C:\Users\dulan\AppData\Local\Temp\ccHxS1uX.s 			page 14


 154:functions.c   ****     }else{
 560              		.loc 1 154 0
 561 003e FFF7FEFF 		bl	__aeabi_i2d
 562              	.LVL67:
 563 0042 0BA3     		adr	r3, .L44+8
 564 0044 D3E90023 		ldrd	r2, [r3]
 565 0048 FFF7FEFF 		bl	__aeabi_dmul
 566              	.LVL68:
 567 004c FFF7FEFF 		bl	__aeabi_d2iz
 568              	.LVL69:
 569 0050 08BD     		pop	{r3, pc}
 570              	.LVL70:
 571              	.L42:
 156:functions.c   ****     }
 572              		.loc 1 156 0
 573 0052 FFF7FEFF 		bl	__aeabi_i2d
 574              	.LVL71:
 575 0056 08A3     		adr	r3, .L44+16
 576 0058 D3E90023 		ldrd	r2, [r3]
 577 005c FFF7FEFF 		bl	__aeabi_dmul
 578              	.LVL72:
 579 0060 FFF7FEFF 		bl	__aeabi_d2iz
 580              	.LVL73:
 581              		.loc 1 159 0
 582 0064 08BD     		pop	{r3, pc}
 583              	.L45:
 584 0066 00BF     		.align	3
 585              	.L44:
 586 0068 9A999999 		.word	-1717986918
 587 006c 99991940 		.word	1075419545
 588 0070 9A999999 		.word	-1717986918
 589 0074 99991D40 		.word	1075681689
 590 0078 CDCCCCCC 		.word	-858993459
 591 007c CCCC1E40 		.word	1075760332
 592 0080 00001A40 		.word	1075445760
 593              		.cfi_endproc
 594              	.LFE67:
 595              		.size	getDistance_V, .-getDistance_V
 596              		.section	.text.getMovementArray,"ax",%progbits
 597              		.align	2
 598              		.global	getMovementArray
 599              		.thumb
 600              		.thumb_func
 601              		.type	getMovementArray, %function
 602              	getMovementArray:
 603              	.LFB68:
 160:functions.c   **** 
 161:functions.c   **** //input order are start row, column, target row, column
 162:functions.c   **** void getMovementArray(int start_row,int start_column,int target_row,int target_column,RobotDirectio
 604              		.loc 1 162 0
 605              		.cfi_startproc
 606              		@ args = 4, pretend = 0, frame = 0
 607              		@ frame_needed = 0, uses_anonymous_args = 0
 608              	.LVL74:
 609 0000 2DE9F843 		push	{r3, r4, r5, r6, r7, r8, r9, lr}
 610              		.cfi_def_cfa_offset 32
 611              		.cfi_offset 3, -32
ARM GAS  C:\Users\dulan\AppData\Local\Temp\ccHxS1uX.s 			page 15


 612              		.cfi_offset 4, -28
 613              		.cfi_offset 5, -24
 614              		.cfi_offset 6, -20
 615              		.cfi_offset 7, -16
 616              		.cfi_offset 8, -12
 617              		.cfi_offset 9, -8
 618              		.cfi_offset 14, -4
 619 0004 1646     		mov	r6, r2
 620 0006 9846     		mov	r8, r3
 621 0008 9DF82020 		ldrb	r2, [sp, #32]	@ zero_extendqisi2
 622              	.LVL75:
 623              	.LBB13:
 163:functions.c   **** 
 164:functions.c   ****     int stepCount = 0;
 165:functions.c   ****     int position = -1;
 166:functions.c   ****     
 167:functions.c   ****     //naming error
 168:functions.c   ****     int current_row=start_row;
 169:functions.c   ****     int current_column=start_column;
 170:functions.c   **** 
 171:functions.c   ****     for (int i = 0; i < pathLength; i++) {
 624              		.loc 1 171 0
 625 000c 0024     		movs	r4, #0
 626              	.LBE13:
 165:functions.c   ****     
 627              		.loc 1 165 0
 628 000e 4FF0FF37 		mov	r7, #-1
 164:functions.c   ****     int position = -1;
 629              		.loc 1 164 0
 630 0012 A646     		mov	lr, r4
 631              	.LBB15:
 632              		.loc 1 171 0
 633 0014 00E1     		b	.L47
 634              	.LVL76:
 635              	.L67:
 636              	.LBB14:
 172:functions.c   ****         int next_row = path[i].x;
 637              		.loc 1 172 0
 638 0016 844B     		ldr	r3, .L69
 639 0018 53F83450 		ldr	r5, [r3, r4, lsl #3]
 640              	.LVL77:
 173:functions.c   ****         int next_column = path[i].y;
 641              		.loc 1 173 0
 642 001c 03EBC403 		add	r3, r3, r4, lsl #3
 643 0020 D3F80490 		ldr	r9, [r3, #4]
 644              	.LVL78:
 174:functions.c   **** 
 175:functions.c   **** 
 176:functions.c   **** 
 177:functions.c   ****         if(current_row == target_row && current_column == target_column ){
 645              		.loc 1 177 0
 646 0024 B042     		cmp	r0, r6
 647 0026 1AD1     		bne	.L48
 648              		.loc 1 177 0 is_stmt 0 discriminator 1
 649 0028 4145     		cmp	r1, r8
 650 002a 18D1     		bne	.L48
 178:functions.c   ****                     stepCount+=2;
ARM GAS  C:\Users\dulan\AppData\Local\Temp\ccHxS1uX.s 			page 16


 651              		.loc 1 178 0 is_stmt 1
 652 002c 0EF10200 		add	r0, lr, #2
 653              	.LVL79:
 179:functions.c   ****                     position++;
 654              		.loc 1 179 0
 655 0030 0137     		adds	r7, r7, #1
 656              	.LVL80:
 180:functions.c   ****                     if(current_direction==EAST ||current_direction==WEST){
 657              		.loc 1 180 0
 658 0032 012A     		cmp	r2, #1
 659 0034 01D0     		beq	.L49
 660              		.loc 1 180 0 is_stmt 0 discriminator 1
 661 0036 032A     		cmp	r2, #3
 662 0038 05D1     		bne	.L50
 663              	.L49:
 181:functions.c   ****                         movementArray[position].distance = getDistance_H(stepCount);
 664              		.loc 1 181 0 is_stmt 1
 665 003a FFF7FEFF 		bl	getDistance_H
 666              	.LVL81:
 667 003e 7B4B     		ldr	r3, .L69+4
 668 0040 43F83700 		str	r0, [r3, r7, lsl #3]
 669 0044 04E0     		b	.L51
 670              	.LVL82:
 671              	.L50:
 182:functions.c   ****                     }else{
 183:functions.c   ****                         movementArray[position].distance = getDistance_V(stepCount);
 672              		.loc 1 183 0
 673 0046 FFF7FEFF 		bl	getDistance_V
 674              	.LVL83:
 675 004a 784B     		ldr	r3, .L69+4
 676 004c 43F83700 		str	r0, [r3, r7, lsl #3]
 677              	.L51:
 184:functions.c   ****                     }
 185:functions.c   ****                     movementArray[position].turnDirection = 'E';
 678              		.loc 1 185 0
 679 0050 764B     		ldr	r3, .L69+4
 680 0052 03EBC707 		add	r7, r3, r7, lsl #3
 681              	.LVL84:
 682 0056 4523     		movs	r3, #69
 683 0058 3B71     		strb	r3, [r7, #4]
 186:functions.c   ****                     //robot_direction=current_direction;
 187:functions.c   ****                     break;
 684              		.loc 1 187 0
 685 005a BDE8F883 		pop	{r3, r4, r5, r6, r7, r8, r9, pc}
 686              	.LVL85:
 687              	.L48:
 188:functions.c   ****         }
 189:functions.c   ****         
 190:functions.c   **** 
 191:functions.c   ****         switch (current_direction) {
 688              		.loc 1 191 0
 689 005e 032A     		cmp	r2, #3
 690 0060 00F2D980 		bhi	.L53
 691 0064 DFE802F0 		tbb	[pc, r2]
 692              	.L55:
 693 0068 02       		.byte	(.L54-.L55)/2
 694 0069 39       		.byte	(.L56-.L55)/2
ARM GAS  C:\Users\dulan\AppData\Local\Temp\ccHxS1uX.s 			page 17


 695 006a 6E       		.byte	(.L57-.L55)/2
 696 006b A3       		.byte	(.L58-.L55)/2
 697              		.p2align 1
 698              	.L54:
 192:functions.c   ****             case NORTH:
 193:functions.c   ****                 if (next_row<current_row && next_column == current_column) { 
 699              		.loc 1 193 0
 700 006c A842     		cmp	r0, r5
 701 006e 06DD     		ble	.L59
 702              		.loc 1 193 0 is_stmt 0 discriminator 1
 703 0070 4945     		cmp	r1, r9
 704 0072 04D1     		bne	.L59
 194:functions.c   ****                     // Go straight
 195:functions.c   ****                     stepCount++;
 705              		.loc 1 195 0 is_stmt 1
 706 0074 0EF1010E 		add	lr, lr, #1
 707              	.LVL86:
 196:functions.c   ****                     current_row = next_row; // Update coordinates
 197:functions.c   ****                     current_column = next_column;
 708              		.loc 1 197 0
 709 0078 4946     		mov	r1, r9
 196:functions.c   ****                     current_row = next_row; // Update coordinates
 710              		.loc 1 196 0
 711 007a 2846     		mov	r0, r5
 198:functions.c   ****                     continue; 
 712              		.loc 1 198 0
 713 007c CBE0     		b	.L53
 714              	.LVL87:
 715              	.L59:
 199:functions.c   ****                 } else if (next_row==current_row && next_column > current_column) {
 716              		.loc 1 199 0
 717 007e A842     		cmp	r0, r5
 718 0080 13D1     		bne	.L60
 719              		.loc 1 199 0 is_stmt 0 discriminator 1
 720 0082 4945     		cmp	r1, r9
 721 0084 11DA     		bge	.L60
 722              	.LVL88:
 200:functions.c   ****                     // Turn right
 201:functions.c   ****                     stepCount++;
 202:functions.c   ****                     position++;
 723              		.loc 1 202 0 is_stmt 1
 724 0086 0137     		adds	r7, r7, #1
 725              	.LVL89:
 203:functions.c   ****                     movementArray[position].distance = getDistance_V(stepCount);
 726              		.loc 1 203 0
 727 0088 0EF10100 		add	r0, lr, #1
 728              	.LVL90:
 729 008c FFF7FEFF 		bl	getDistance_V
 730              	.LVL91:
 731 0090 664B     		ldr	r3, .L69+4
 732 0092 43F83700 		str	r0, [r3, r7, lsl #3]
 204:functions.c   ****                     movementArray[position].turnDirection = 'R';
 733              		.loc 1 204 0
 734 0096 03EBC703 		add	r3, r3, r7, lsl #3
 735 009a 5222     		movs	r2, #82
 736 009c 1A71     		strb	r2, [r3, #4]
 737              	.LVL92:
ARM GAS  C:\Users\dulan\AppData\Local\Temp\ccHxS1uX.s 			page 18


 205:functions.c   ****                     current_row = next_row; // Update coordinates
 206:functions.c   ****                     current_column = next_column;
 738              		.loc 1 206 0
 739 009e 4946     		mov	r1, r9
 205:functions.c   ****                     current_row = next_row; // Update coordinates
 740              		.loc 1 205 0
 741 00a0 2846     		mov	r0, r5
 207:functions.c   ****                     stepCount = 0;
 742              		.loc 1 207 0
 743 00a2 4FF0000E 		mov	lr, #0
 208:functions.c   ****                     current_direction = EAST;
 744              		.loc 1 208 0
 745 00a6 0122     		movs	r2, #1
 746 00a8 B5E0     		b	.L53
 747              	.LVL93:
 748              	.L60:
 209:functions.c   ****                 } else if (next_row==current_row && next_column < current_column) {
 749              		.loc 1 209 0
 750 00aa A842     		cmp	r0, r5
 751 00ac 40F0B380 		bne	.L53
 752              		.loc 1 209 0 is_stmt 0 discriminator 1
 753 00b0 4945     		cmp	r1, r9
 754 00b2 40F3B080 		ble	.L53
 755              	.LVL94:
 210:functions.c   ****                     // Turn left
 211:functions.c   ****                     stepCount++;
 212:functions.c   ****                     position++;
 756              		.loc 1 212 0 is_stmt 1
 757 00b6 0137     		adds	r7, r7, #1
 758              	.LVL95:
 213:functions.c   ****                     movementArray[position].distance =getDistance_V(stepCount);
 759              		.loc 1 213 0
 760 00b8 0EF10100 		add	r0, lr, #1
 761              	.LVL96:
 762 00bc FFF7FEFF 		bl	getDistance_V
 763              	.LVL97:
 764 00c0 5A4B     		ldr	r3, .L69+4
 765 00c2 43F83700 		str	r0, [r3, r7, lsl #3]
 214:functions.c   ****                     movementArray[position].turnDirection = 'L';
 766              		.loc 1 214 0
 767 00c6 03EBC703 		add	r3, r3, r7, lsl #3
 768 00ca 4C22     		movs	r2, #76
 769 00cc 1A71     		strb	r2, [r3, #4]
 770              	.LVL98:
 215:functions.c   ****                     current_row = next_row; // Update coordinates
 216:functions.c   ****                     current_column = next_column;
 771              		.loc 1 216 0
 772 00ce 4946     		mov	r1, r9
 215:functions.c   ****                     current_row = next_row; // Update coordinates
 773              		.loc 1 215 0
 774 00d0 2846     		mov	r0, r5
 217:functions.c   ****                     stepCount = 0;
 775              		.loc 1 217 0
 776 00d2 4FF0000E 		mov	lr, #0
 218:functions.c   ****                     current_direction = WEST;
 777              		.loc 1 218 0
 778 00d6 0322     		movs	r2, #3
ARM GAS  C:\Users\dulan\AppData\Local\Temp\ccHxS1uX.s 			page 19


 779 00d8 9DE0     		b	.L53
 780              	.LVL99:
 781              	.L56:
 219:functions.c   ****                 }
 220:functions.c   ****                 break;
 221:functions.c   ****                 
 222:functions.c   ****                 
 223:functions.c   ****             case EAST:
 224:functions.c   ****                 if (next_row==current_row && next_column > current_column) { 
 782              		.loc 1 224 0
 783 00da A842     		cmp	r0, r5
 784 00dc 06D1     		bne	.L61
 785              		.loc 1 224 0 is_stmt 0 discriminator 1
 786 00de 4945     		cmp	r1, r9
 787 00e0 04DA     		bge	.L61
 225:functions.c   ****                     // Go straight
 226:functions.c   ****                     stepCount++;
 788              		.loc 1 226 0 is_stmt 1
 789 00e2 0EF1010E 		add	lr, lr, #1
 790              	.LVL100:
 227:functions.c   ****                     current_row = next_row; // Update coordinates
 228:functions.c   ****                     current_column = next_column;
 791              		.loc 1 228 0
 792 00e6 4946     		mov	r1, r9
 227:functions.c   ****                     current_row = next_row; // Update coordinates
 793              		.loc 1 227 0
 794 00e8 2846     		mov	r0, r5
 229:functions.c   ****                     continue; // Skip the rest of this iteration and go to the next
 795              		.loc 1 229 0
 796 00ea 94E0     		b	.L53
 797              	.LVL101:
 798              	.L61:
 230:functions.c   ****                 } else if (next_row>current_row && next_column == current_column) {
 799              		.loc 1 230 0
 800 00ec A842     		cmp	r0, r5
 801 00ee 13DA     		bge	.L62
 802              		.loc 1 230 0 is_stmt 0 discriminator 1
 803 00f0 4945     		cmp	r1, r9
 804 00f2 11D1     		bne	.L62
 805              	.LVL102:
 231:functions.c   ****                     // Turn right
 232:functions.c   ****                     stepCount++;
 233:functions.c   ****                     position++;
 806              		.loc 1 233 0 is_stmt 1
 807 00f4 0137     		adds	r7, r7, #1
 808              	.LVL103:
 234:functions.c   ****                     movementArray[position].distance = getDistance_H(stepCount);
 809              		.loc 1 234 0
 810 00f6 0EF10100 		add	r0, lr, #1
 811              	.LVL104:
 812 00fa FFF7FEFF 		bl	getDistance_H
 813              	.LVL105:
 814 00fe 4B4B     		ldr	r3, .L69+4
 815 0100 43F83700 		str	r0, [r3, r7, lsl #3]
 235:functions.c   ****                     movementArray[position].turnDirection = 'R';
 816              		.loc 1 235 0
 817 0104 03EBC703 		add	r3, r3, r7, lsl #3
ARM GAS  C:\Users\dulan\AppData\Local\Temp\ccHxS1uX.s 			page 20


 818 0108 5222     		movs	r2, #82
 819 010a 1A71     		strb	r2, [r3, #4]
 820              	.LVL106:
 236:functions.c   ****                     current_row = next_row; // Update coordinates
 237:functions.c   ****                     current_column = next_column;
 821              		.loc 1 237 0
 822 010c 4946     		mov	r1, r9
 236:functions.c   ****                     current_row = next_row; // Update coordinates
 823              		.loc 1 236 0
 824 010e 2846     		mov	r0, r5
 238:functions.c   ****                     stepCount = 0;
 825              		.loc 1 238 0
 826 0110 4FF0000E 		mov	lr, #0
 239:functions.c   ****                     current_direction = SOUTH;   
 827              		.loc 1 239 0
 828 0114 0222     		movs	r2, #2
 829 0116 7EE0     		b	.L53
 830              	.LVL107:
 831              	.L62:
 240:functions.c   ****                 } else if (next_row<current_row && next_column == current_column) {
 832              		.loc 1 240 0
 833 0118 A842     		cmp	r0, r5
 834 011a 7CDD     		ble	.L53
 835              		.loc 1 240 0 is_stmt 0 discriminator 1
 836 011c 4945     		cmp	r1, r9
 837 011e 7AD1     		bne	.L53
 838              	.LVL108:
 241:functions.c   ****                     // Turn left
 242:functions.c   ****                     stepCount++;
 243:functions.c   ****                     position++;
 839              		.loc 1 243 0 is_stmt 1
 840 0120 0137     		adds	r7, r7, #1
 841              	.LVL109:
 244:functions.c   ****                     movementArray[position].distance = getDistance_H(stepCount);
 842              		.loc 1 244 0
 843 0122 0EF10100 		add	r0, lr, #1
 844              	.LVL110:
 845 0126 FFF7FEFF 		bl	getDistance_H
 846              	.LVL111:
 847 012a 404B     		ldr	r3, .L69+4
 848 012c 43F83700 		str	r0, [r3, r7, lsl #3]
 245:functions.c   ****                     movementArray[position].turnDirection = 'L';
 849              		.loc 1 245 0
 850 0130 03EBC703 		add	r3, r3, r7, lsl #3
 851 0134 4C22     		movs	r2, #76
 852 0136 1A71     		strb	r2, [r3, #4]
 853              	.LVL112:
 246:functions.c   ****                     current_row = next_row; // Update coordinates
 247:functions.c   ****                     current_column = next_column;
 854              		.loc 1 247 0
 855 0138 4946     		mov	r1, r9
 246:functions.c   ****                     current_row = next_row; // Update coordinates
 856              		.loc 1 246 0
 857 013a 2846     		mov	r0, r5
 248:functions.c   ****                     stepCount = 0;
 858              		.loc 1 248 0
 859 013c 4FF0000E 		mov	lr, #0
ARM GAS  C:\Users\dulan\AppData\Local\Temp\ccHxS1uX.s 			page 21


 249:functions.c   ****                     current_direction = NORTH;
 860              		.loc 1 249 0
 861 0140 7246     		mov	r2, lr
 862 0142 68E0     		b	.L53
 863              	.LVL113:
 864              	.L57:
 250:functions.c   ****                 }
 251:functions.c   ****                 break;
 252:functions.c   **** 
 253:functions.c   ****             case SOUTH:
 254:functions.c   ****                 if (next_row>current_row && next_column == current_column) { 
 865              		.loc 1 254 0
 866 0144 A842     		cmp	r0, r5
 867 0146 06DA     		bge	.L63
 868              		.loc 1 254 0 is_stmt 0 discriminator 1
 869 0148 4945     		cmp	r1, r9
 870 014a 04D1     		bne	.L63
 255:functions.c   ****                     // Go straight
 256:functions.c   ****                     stepCount++;
 871              		.loc 1 256 0 is_stmt 1
 872 014c 0EF1010E 		add	lr, lr, #1
 873              	.LVL114:
 257:functions.c   ****                     current_row = next_row; // Update coordinates
 258:functions.c   ****                     current_column = next_column;
 874              		.loc 1 258 0
 875 0150 4946     		mov	r1, r9
 257:functions.c   ****                     current_row = next_row; // Update coordinates
 876              		.loc 1 257 0
 877 0152 2846     		mov	r0, r5
 259:functions.c   ****                     continue; 
 878              		.loc 1 259 0
 879 0154 5FE0     		b	.L53
 880              	.LVL115:
 881              	.L63:
 260:functions.c   ****                 } else if (next_row==current_row && next_column < current_column) {
 882              		.loc 1 260 0
 883 0156 A842     		cmp	r0, r5
 884 0158 13D1     		bne	.L64
 885              		.loc 1 260 0 is_stmt 0 discriminator 1
 886 015a 4945     		cmp	r1, r9
 887 015c 11DD     		ble	.L64
 888              	.LVL116:
 261:functions.c   ****                     // Turn right
 262:functions.c   ****                     stepCount++;
 263:functions.c   ****                     position++;
 889              		.loc 1 263 0 is_stmt 1
 890 015e 0137     		adds	r7, r7, #1
 891              	.LVL117:
 264:functions.c   ****                     movementArray[position].distance = getDistance_V(stepCount);
 892              		.loc 1 264 0
 893 0160 0EF10100 		add	r0, lr, #1
 894              	.LVL118:
 895 0164 FFF7FEFF 		bl	getDistance_V
 896              	.LVL119:
 897 0168 304B     		ldr	r3, .L69+4
 898 016a 43F83700 		str	r0, [r3, r7, lsl #3]
 265:functions.c   ****                     movementArray[position].turnDirection = 'R';
ARM GAS  C:\Users\dulan\AppData\Local\Temp\ccHxS1uX.s 			page 22


 899              		.loc 1 265 0
 900 016e 03EBC703 		add	r3, r3, r7, lsl #3
 901 0172 5222     		movs	r2, #82
 902 0174 1A71     		strb	r2, [r3, #4]
 903              	.LVL120:
 266:functions.c   ****                     current_row = next_row; // Update coordinates
 267:functions.c   ****                     current_column = next_column;
 904              		.loc 1 267 0
 905 0176 4946     		mov	r1, r9
 266:functions.c   ****                     current_row = next_row; // Update coordinates
 906              		.loc 1 266 0
 907 0178 2846     		mov	r0, r5
 268:functions.c   ****                     stepCount = 0;
 908              		.loc 1 268 0
 909 017a 4FF0000E 		mov	lr, #0
 269:functions.c   ****                     current_direction = WEST;
 910              		.loc 1 269 0
 911 017e 0322     		movs	r2, #3
 912 0180 49E0     		b	.L53
 913              	.LVL121:
 914              	.L64:
 270:functions.c   ****                 } else if (next_row==current_row && next_column > current_column) {
 915              		.loc 1 270 0
 916 0182 A842     		cmp	r0, r5
 917 0184 47D1     		bne	.L53
 918              		.loc 1 270 0 is_stmt 0 discriminator 1
 919 0186 4945     		cmp	r1, r9
 920 0188 45DA     		bge	.L53
 921              	.LVL122:
 271:functions.c   ****                     // Turn left
 272:functions.c   ****                     stepCount++;
 273:functions.c   ****                     position++;
 922              		.loc 1 273 0 is_stmt 1
 923 018a 0137     		adds	r7, r7, #1
 924              	.LVL123:
 274:functions.c   ****                     movementArray[position].distance = getDistance_V(stepCount);
 925              		.loc 1 274 0
 926 018c 0EF10100 		add	r0, lr, #1
 927              	.LVL124:
 928 0190 FFF7FEFF 		bl	getDistance_V
 929              	.LVL125:
 930 0194 254B     		ldr	r3, .L69+4
 931 0196 43F83700 		str	r0, [r3, r7, lsl #3]
 275:functions.c   ****                     movementArray[position].turnDirection = 'L';
 932              		.loc 1 275 0
 933 019a 03EBC703 		add	r3, r3, r7, lsl #3
 934 019e 4C22     		movs	r2, #76
 935 01a0 1A71     		strb	r2, [r3, #4]
 936              	.LVL126:
 276:functions.c   ****                     current_row = next_row; // Update coordinates
 277:functions.c   ****                     current_column = next_column;
 937              		.loc 1 277 0
 938 01a2 4946     		mov	r1, r9
 276:functions.c   ****                     current_row = next_row; // Update coordinates
 939              		.loc 1 276 0
 940 01a4 2846     		mov	r0, r5
 278:functions.c   ****                     stepCount = 0;
ARM GAS  C:\Users\dulan\AppData\Local\Temp\ccHxS1uX.s 			page 23


 941              		.loc 1 278 0
 942 01a6 4FF0000E 		mov	lr, #0
 279:functions.c   ****                     current_direction = EAST;
 943              		.loc 1 279 0
 944 01aa 0122     		movs	r2, #1
 945 01ac 33E0     		b	.L53
 946              	.LVL127:
 947              	.L58:
 280:functions.c   ****                 }
 281:functions.c   ****                 break;
 282:functions.c   ****                 
 283:functions.c   ****                 
 284:functions.c   ****             case WEST:
 285:functions.c   ****                 if (next_row==current_row && next_column < current_column) { 
 948              		.loc 1 285 0
 949 01ae A842     		cmp	r0, r5
 950 01b0 06D1     		bne	.L65
 951              		.loc 1 285 0 is_stmt 0 discriminator 1
 952 01b2 4945     		cmp	r1, r9
 953 01b4 04DD     		ble	.L65
 286:functions.c   ****                     // Go straight
 287:functions.c   ****                     stepCount++;
 954              		.loc 1 287 0 is_stmt 1
 955 01b6 0EF1010E 		add	lr, lr, #1
 956              	.LVL128:
 288:functions.c   ****                     current_row = next_row; // Update coordinates
 289:functions.c   ****                     current_column = next_column;
 957              		.loc 1 289 0
 958 01ba 4946     		mov	r1, r9
 288:functions.c   ****                     current_row = next_row; // Update coordinates
 959              		.loc 1 288 0
 960 01bc 2846     		mov	r0, r5
 290:functions.c   ****                     continue; 
 961              		.loc 1 290 0
 962 01be 2AE0     		b	.L53
 963              	.LVL129:
 964              	.L65:
 291:functions.c   ****                 } else if (next_row<current_row && next_column == current_column) {
 965              		.loc 1 291 0
 966 01c0 A842     		cmp	r0, r5
 967 01c2 13DD     		ble	.L66
 968              		.loc 1 291 0 is_stmt 0 discriminator 1
 969 01c4 4945     		cmp	r1, r9
 970 01c6 11D1     		bne	.L66
 971              	.LVL130:
 292:functions.c   ****                     // Turn right
 293:functions.c   ****                     stepCount++;
 294:functions.c   ****                     position++;
 972              		.loc 1 294 0 is_stmt 1
 973 01c8 0137     		adds	r7, r7, #1
 974              	.LVL131:
 295:functions.c   ****                     movementArray[position].distance = getDistance_H(stepCount);
 975              		.loc 1 295 0
 976 01ca 0EF10100 		add	r0, lr, #1
 977              	.LVL132:
 978 01ce FFF7FEFF 		bl	getDistance_H
 979              	.LVL133:
ARM GAS  C:\Users\dulan\AppData\Local\Temp\ccHxS1uX.s 			page 24


 980 01d2 164B     		ldr	r3, .L69+4
 981 01d4 43F83700 		str	r0, [r3, r7, lsl #3]
 296:functions.c   ****                     movementArray[position].turnDirection = 'R';
 982              		.loc 1 296 0
 983 01d8 03EBC703 		add	r3, r3, r7, lsl #3
 984 01dc 5222     		movs	r2, #82
 985 01de 1A71     		strb	r2, [r3, #4]
 986              	.LVL134:
 297:functions.c   ****                     current_row = next_row; // Update coordinates
 298:functions.c   ****                     current_column = next_column;
 987              		.loc 1 298 0
 988 01e0 4946     		mov	r1, r9
 297:functions.c   ****                     current_row = next_row; // Update coordinates
 989              		.loc 1 297 0
 990 01e2 2846     		mov	r0, r5
 299:functions.c   ****                     stepCount = 0;
 991              		.loc 1 299 0
 992 01e4 4FF0000E 		mov	lr, #0
 300:functions.c   ****                     current_direction = NORTH;
 993              		.loc 1 300 0
 994 01e8 7246     		mov	r2, lr
 995 01ea 14E0     		b	.L53
 996              	.LVL135:
 997              	.L66:
 301:functions.c   ****                 } else if (next_row>current_row && next_column == current_column) {
 998              		.loc 1 301 0
 999 01ec A842     		cmp	r0, r5
 1000 01ee 12DA     		bge	.L53
 1001              		.loc 1 301 0 is_stmt 0 discriminator 1
 1002 01f0 4945     		cmp	r1, r9
 1003 01f2 10D1     		bne	.L53
 1004              	.LVL136:
 302:functions.c   ****                     // Turn left
 303:functions.c   ****                     stepCount++;
 304:functions.c   ****                     position++;
 1005              		.loc 1 304 0 is_stmt 1
 1006 01f4 0137     		adds	r7, r7, #1
 1007              	.LVL137:
 305:functions.c   ****                     movementArray[position].distance = getDistance_H(stepCount);
 1008              		.loc 1 305 0
 1009 01f6 0EF10100 		add	r0, lr, #1
 1010              	.LVL138:
 1011 01fa FFF7FEFF 		bl	getDistance_H
 1012              	.LVL139:
 1013 01fe 0B4B     		ldr	r3, .L69+4
 1014 0200 43F83700 		str	r0, [r3, r7, lsl #3]
 306:functions.c   ****                     movementArray[position].turnDirection = 'L';
 1015              		.loc 1 306 0
 1016 0204 03EBC703 		add	r3, r3, r7, lsl #3
 1017 0208 4C22     		movs	r2, #76
 1018 020a 1A71     		strb	r2, [r3, #4]
 1019              	.LVL140:
 307:functions.c   ****                     current_row = next_row; // Update coordinates
 308:functions.c   ****                     current_column = next_column;
 1020              		.loc 1 308 0
 1021 020c 4946     		mov	r1, r9
 307:functions.c   ****                     current_row = next_row; // Update coordinates
ARM GAS  C:\Users\dulan\AppData\Local\Temp\ccHxS1uX.s 			page 25


 1022              		.loc 1 307 0
 1023 020e 2846     		mov	r0, r5
 309:functions.c   ****                     stepCount = 0;
 1024              		.loc 1 309 0
 1025 0210 4FF0000E 		mov	lr, #0
 310:functions.c   ****                     current_direction = SOUTH;
 1026              		.loc 1 310 0
 1027 0214 0222     		movs	r2, #2
 1028              	.LVL141:
 1029              	.L53:
 1030              	.LBE14:
 171:functions.c   ****         int next_row = path[i].x;
 1031              		.loc 1 171 0 discriminator 2
 1032 0216 0134     		adds	r4, r4, #1
 1033              	.LVL142:
 1034              	.L47:
 171:functions.c   ****         int next_row = path[i].x;
 1035              		.loc 1 171 0 is_stmt 0 discriminator 1
 1036 0218 054B     		ldr	r3, .L69+8
 1037 021a 1B68     		ldr	r3, [r3]
 1038 021c 9C42     		cmp	r4, r3
 1039 021e FFF6FAAE 		blt	.L67
 1040 0222 BDE8F883 		pop	{r3, r4, r5, r6, r7, r8, r9, pc}
 1041              	.LVL143:
 1042              	.L70:
 1043 0226 00BF     		.align	2
 1044              	.L69:
 1045 0228 00000000 		.word	path
 1046 022c 00000000 		.word	movementArray
 1047 0230 00000000 		.word	.LANCHOR2
 1048              	.LBE15:
 1049              		.cfi_endproc
 1050              	.LFE68:
 1051              		.size	getMovementArray, .-getMovementArray
 1052              		.comm	path,2280,4
 1053              		.global	pathLength
 1054              		.global	map
 1055              		.comm	movementArray,200,4
 1056              		.section	.rodata
 1057              		.align	2
 1058              		.set	.LANCHOR0,. + 0
 1059              	.LC0:
 1060 0000 01000000 		.word	1
 1061 0004 FFFFFFFF 		.word	-1
 1062 0008 00000000 		.word	0
 1063 000c 00000000 		.word	0
 1064              	.LC1:
 1065 0010 00000000 		.word	0
 1066 0014 00000000 		.word	0
 1067 0018 01000000 		.word	1
 1068 001c FFFFFFFF 		.word	-1
 1069              		.data
 1070              		.align	2
 1071              		.set	.LANCHOR1,. + 0
 1072              		.type	map, %object
 1073              		.size	map, 1140
 1074              	map:
ARM GAS  C:\Users\dulan\AppData\Local\Temp\ccHxS1uX.s 			page 26


 1075 0000 01000000 		.word	1
 1076 0004 01000000 		.word	1
 1077 0008 01000000 		.word	1
 1078 000c 01000000 		.word	1
 1079 0010 01000000 		.word	1
 1080 0014 01000000 		.word	1
 1081 0018 01000000 		.word	1
 1082 001c 01000000 		.word	1
 1083 0020 01000000 		.word	1
 1084 0024 01000000 		.word	1
 1085 0028 01000000 		.word	1
 1086 002c 01000000 		.word	1
 1087 0030 01000000 		.word	1
 1088 0034 01000000 		.word	1
 1089 0038 01000000 		.word	1
 1090 003c 01000000 		.word	1
 1091 0040 01000000 		.word	1
 1092 0044 01000000 		.word	1
 1093 0048 01000000 		.word	1
 1094 004c 01000000 		.word	1
 1095 0050 00000000 		.word	0
 1096 0054 01000000 		.word	1
 1097 0058 00000000 		.word	0
 1098 005c 00000000 		.word	0
 1099 0060 00000000 		.word	0
 1100 0064 00000000 		.word	0
 1101 0068 00000000 		.word	0
 1102 006c 00000000 		.word	0
 1103 0070 00000000 		.word	0
 1104 0074 00000000 		.word	0
 1105 0078 00000000 		.word	0
 1106 007c 00000000 		.word	0
 1107 0080 00000000 		.word	0
 1108 0084 00000000 		.word	0
 1109 0088 00000000 		.word	0
 1110 008c 00000000 		.word	0
 1111 0090 00000000 		.word	0
 1112 0094 01000000 		.word	1
 1113 0098 01000000 		.word	1
 1114 009c 00000000 		.word	0
 1115 00a0 01000000 		.word	1
 1116 00a4 00000000 		.word	0
 1117 00a8 01000000 		.word	1
 1118 00ac 01000000 		.word	1
 1119 00b0 01000000 		.word	1
 1120 00b4 01000000 		.word	1
 1121 00b8 01000000 		.word	1
 1122 00bc 00000000 		.word	0
 1123 00c0 01000000 		.word	1
 1124 00c4 01000000 		.word	1
 1125 00c8 01000000 		.word	1
 1126 00cc 00000000 		.word	0
 1127 00d0 01000000 		.word	1
 1128 00d4 01000000 		.word	1
 1129 00d8 01000000 		.word	1
 1130 00dc 00000000 		.word	0
 1131 00e0 01000000 		.word	1
ARM GAS  C:\Users\dulan\AppData\Local\Temp\ccHxS1uX.s 			page 27


 1132 00e4 01000000 		.word	1
 1133 00e8 00000000 		.word	0
 1134 00ec 00000000 		.word	0
 1135 00f0 00000000 		.word	0
 1136 00f4 01000000 		.word	1
 1137 00f8 00000000 		.word	0
 1138 00fc 00000000 		.word	0
 1139 0100 00000000 		.word	0
 1140 0104 01000000 		.word	1
 1141 0108 00000000 		.word	0
 1142 010c 00000000 		.word	0
 1143 0110 00000000 		.word	0
 1144 0114 00000000 		.word	0
 1145 0118 00000000 		.word	0
 1146 011c 00000000 		.word	0
 1147 0120 00000000 		.word	0
 1148 0124 01000000 		.word	1
 1149 0128 00000000 		.word	0
 1150 012c 01000000 		.word	1
 1151 0130 01000000 		.word	1
 1152 0134 01000000 		.word	1
 1153 0138 01000000 		.word	1
 1154 013c 00000000 		.word	0
 1155 0140 01000000 		.word	1
 1156 0144 00000000 		.word	0
 1157 0148 01000000 		.word	1
 1158 014c 00000000 		.word	0
 1159 0150 01000000 		.word	1
 1160 0154 01000000 		.word	1
 1161 0158 01000000 		.word	1
 1162 015c 00000000 		.word	0
 1163 0160 01000000 		.word	1
 1164 0164 00000000 		.word	0
 1165 0168 01000000 		.word	1
 1166 016c 01000000 		.word	1
 1167 0170 01000000 		.word	1
 1168 0174 00000000 		.word	0
 1169 0178 01000000 		.word	1
 1170 017c 01000000 		.word	1
 1171 0180 00000000 		.word	0
 1172 0184 00000000 		.word	0
 1173 0188 00000000 		.word	0
 1174 018c 01000000 		.word	1
 1175 0190 00000000 		.word	0
 1176 0194 01000000 		.word	1
 1177 0198 00000000 		.word	0
 1178 019c 00000000 		.word	0
 1179 01a0 00000000 		.word	0
 1180 01a4 01000000 		.word	1
 1181 01a8 00000000 		.word	0
 1182 01ac 01000000 		.word	1
 1183 01b0 00000000 		.word	0
 1184 01b4 00000000 		.word	0
 1185 01b8 00000000 		.word	0
 1186 01bc 00000000 		.word	0
 1187 01c0 00000000 		.word	0
 1188 01c4 01000000 		.word	1
ARM GAS  C:\Users\dulan\AppData\Local\Temp\ccHxS1uX.s 			page 28


 1189 01c8 01000000 		.word	1
 1190 01cc 00000000 		.word	0
 1191 01d0 01000000 		.word	1
 1192 01d4 01000000 		.word	1
 1193 01d8 01000000 		.word	1
 1194 01dc 00000000 		.word	0
 1195 01e0 01000000 		.word	1
 1196 01e4 00000000 		.word	0
 1197 01e8 01000000 		.word	1
 1198 01ec 00000000 		.word	0
 1199 01f0 01000000 		.word	1
 1200 01f4 00000000 		.word	0
 1201 01f8 01000000 		.word	1
 1202 01fc 00000000 		.word	0
 1203 0200 01000000 		.word	1
 1204 0204 01000000 		.word	1
 1205 0208 01000000 		.word	1
 1206 020c 00000000 		.word	0
 1207 0210 01000000 		.word	1
 1208 0214 01000000 		.word	1
 1209 0218 00000000 		.word	0
 1210 021c 01000000 		.word	1
 1211 0220 00000000 		.word	0
 1212 0224 01000000 		.word	1
 1213 0228 00000000 		.word	0
 1214 022c 00000000 		.word	0
 1215 0230 00000000 		.word	0
 1216 0234 01000000 		.word	1
 1217 0238 00000000 		.word	0
 1218 023c 01000000 		.word	1
 1219 0240 00000000 		.word	0
 1220 0244 01000000 		.word	1
 1221 0248 00000000 		.word	0
 1222 024c 01000000 		.word	1
 1223 0250 00000000 		.word	0
 1224 0254 00000000 		.word	0
 1225 0258 00000000 		.word	0
 1226 025c 01000000 		.word	1
 1227 0260 01000000 		.word	1
 1228 0264 00000000 		.word	0
 1229 0268 01000000 		.word	1
 1230 026c 00000000 		.word	0
 1231 0270 01000000 		.word	1
 1232 0274 00000000 		.word	0
 1233 0278 01000000 		.word	1
 1234 027c 01000000 		.word	1
 1235 0280 01000000 		.word	1
 1236 0284 00000000 		.word	0
 1237 0288 01000000 		.word	1
 1238 028c 00000000 		.word	0
 1239 0290 01000000 		.word	1
 1240 0294 00000000 		.word	0
 1241 0298 01000000 		.word	1
 1242 029c 00000000 		.word	0
 1243 02a0 01000000 		.word	1
 1244 02a4 01000000 		.word	1
 1245 02a8 01000000 		.word	1
ARM GAS  C:\Users\dulan\AppData\Local\Temp\ccHxS1uX.s 			page 29


 1246 02ac 01000000 		.word	1
 1247 02b0 00000000 		.word	0
 1248 02b4 00000000 		.word	0
 1249 02b8 00000000 		.word	0
 1250 02bc 01000000 		.word	1
 1251 02c0 00000000 		.word	0
 1252 02c4 01000000 		.word	1
 1253 02c8 00000000 		.word	0
 1254 02cc 00000000 		.word	0
 1255 02d0 00000000 		.word	0
 1256 02d4 01000000 		.word	1
 1257 02d8 00000000 		.word	0
 1258 02dc 00000000 		.word	0
 1259 02e0 00000000 		.word	0
 1260 02e4 01000000 		.word	1
 1261 02e8 00000000 		.word	0
 1262 02ec 00000000 		.word	0
 1263 02f0 00000000 		.word	0
 1264 02f4 01000000 		.word	1
 1265 02f8 01000000 		.word	1
 1266 02fc 01000000 		.word	1
 1267 0300 01000000 		.word	1
 1268 0304 00000000 		.word	0
 1269 0308 01000000 		.word	1
 1270 030c 00000000 		.word	0
 1271 0310 01000000 		.word	1
 1272 0314 01000000 		.word	1
 1273 0318 01000000 		.word	1
 1274 031c 01000000 		.word	1
 1275 0320 01000000 		.word	1
 1276 0324 01000000 		.word	1
 1277 0328 01000000 		.word	1
 1278 032c 01000000 		.word	1
 1279 0330 01000000 		.word	1
 1280 0334 01000000 		.word	1
 1281 0338 01000000 		.word	1
 1282 033c 00000000 		.word	0
 1283 0340 01000000 		.word	1
 1284 0344 01000000 		.word	1
 1285 0348 00000000 		.word	0
 1286 034c 00000000 		.word	0
 1287 0350 00000000 		.word	0
 1288 0354 00000000 		.word	0
 1289 0358 00000000 		.word	0
 1290 035c 00000000 		.word	0
 1291 0360 00000000 		.word	0
 1292 0364 00000000 		.word	0
 1293 0368 00000000 		.word	0
 1294 036c 00000000 		.word	0
 1295 0370 00000000 		.word	0
 1296 0374 00000000 		.word	0
 1297 0378 00000000 		.word	0
 1298 037c 00000000 		.word	0
 1299 0380 00000000 		.word	0
 1300 0384 00000000 		.word	0
 1301 0388 00000000 		.word	0
 1302 038c 01000000 		.word	1
ARM GAS  C:\Users\dulan\AppData\Local\Temp\ccHxS1uX.s 			page 30


 1303 0390 01000000 		.word	1
 1304 0394 00000000 		.word	0
 1305 0398 01000000 		.word	1
 1306 039c 01000000 		.word	1
 1307 03a0 01000000 		.word	1
 1308 03a4 01000000 		.word	1
 1309 03a8 01000000 		.word	1
 1310 03ac 01000000 		.word	1
 1311 03b0 01000000 		.word	1
 1312 03b4 01000000 		.word	1
 1313 03b8 01000000 		.word	1
 1314 03bc 01000000 		.word	1
 1315 03c0 01000000 		.word	1
 1316 03c4 00000000 		.word	0
 1317 03c8 01000000 		.word	1
 1318 03cc 01000000 		.word	1
 1319 03d0 01000000 		.word	1
 1320 03d4 01000000 		.word	1
 1321 03d8 01000000 		.word	1
 1322 03dc 01000000 		.word	1
 1323 03e0 00000000 		.word	0
 1324 03e4 00000000 		.word	0
 1325 03e8 00000000 		.word	0
 1326 03ec 00000000 		.word	0
 1327 03f0 00000000 		.word	0
 1328 03f4 00000000 		.word	0
 1329 03f8 00000000 		.word	0
 1330 03fc 01000000 		.word	1
 1331 0400 00000000 		.word	0
 1332 0404 00000000 		.word	0
 1333 0408 00000000 		.word	0
 1334 040c 00000000 		.word	0
 1335 0410 00000000 		.word	0
 1336 0414 00000000 		.word	0
 1337 0418 00000000 		.word	0
 1338 041c 00000000 		.word	0
 1339 0420 00000000 		.word	0
 1340 0424 01000000 		.word	1
 1341 0428 01000000 		.word	1
 1342 042c 01000000 		.word	1
 1343 0430 01000000 		.word	1
 1344 0434 01000000 		.word	1
 1345 0438 01000000 		.word	1
 1346 043c 01000000 		.word	1
 1347 0440 01000000 		.word	1
 1348 0444 01000000 		.word	1
 1349 0448 01000000 		.word	1
 1350 044c 01000000 		.word	1
 1351 0450 01000000 		.word	1
 1352 0454 01000000 		.word	1
 1353 0458 01000000 		.word	1
 1354 045c 01000000 		.word	1
 1355 0460 01000000 		.word	1
 1356 0464 01000000 		.word	1
 1357 0468 01000000 		.word	1
 1358 046c 01000000 		.word	1
 1359 0470 01000000 		.word	1
ARM GAS  C:\Users\dulan\AppData\Local\Temp\ccHxS1uX.s 			page 31


 1360              		.bss
 1361              		.align	2
 1362              		.set	.LANCHOR2,. + 0
 1363              		.type	pathLength, %object
 1364              		.size	pathLength, 4
 1365              	pathLength:
 1366 0000 00000000 		.space	4
 1367              		.text
 1368              	.Letext0:
 1369              		.file 2 "c:\\program files (x86)\\cypress\\psoc creator\\4.4\\psoc creator\\import\\gnu\\arm\\5.4.
 1370              		.file 3 "c:\\program files (x86)\\cypress\\psoc creator\\4.4\\psoc creator\\import\\gnu\\arm\\5.4.
 1371              		.file 4 "program.h"
 1372              		.file 5 "Generated_Source\\PSoC5/core_cm3.h"