ARM GAS  C:\Users\dulan\AppData\Local\Temp\ccUzvfCV.s 			page 1


   1              		.syntax unified
   2              		.cpu cortex-m3
   3              		.fpu softvfp
   4              		.eabi_attribute 20, 1
   5              		.eabi_attribute 21, 1
   6              		.eabi_attribute 23, 3
   7              		.eabi_attribute 24, 1
   8              		.eabi_attribute 25, 1
   9              		.eabi_attribute 26, 1
  10              		.eabi_attribute 30, 1
  11              		.eabi_attribute 34, 1
  12              		.eabi_attribute 18, 4
  13              		.thumb
  14              		.syntax unified
  15              		.file	"main.c"
  16              		.text
  17              	.Ltext0:
  18              		.cfi_sections	.debug_frame
  19              		.section	.text.isr_1_handler,"ax",%progbits
  20              		.align	2
  21              		.global	isr_1_handler
  22              		.thumb
  23              		.thumb_func
  24              		.type	isr_1_handler, %function
  25              	isr_1_handler:
  26              	.LFB64:
  27              		.file 1 "main.c"
   1:main.c        **** /* ========================================
   2:main.c        ****  *
   3:main.c        ****  * Copyright YOUR COMPANY, THE YEAR
   4:main.c        ****  * All Rights Reserved
   5:main.c        ****  * UNPUBLISHED, LICENSED SOFTWARE.
   6:main.c        ****  *
   7:main.c        ****  * CONFIDENTIAL AND PROPRIETARY INFORMATION
   8:main.c        ****  * WHICH IS THE PROPERTY OF your company.
   9:main.c        ****  *
  10:main.c        ****  * ========================================
  11:main.c        **** */
  12:main.c        **** /* ========================================
  13:main.c        ****  * Fully working code: 
  14:main.c        ****  * PWM      : 
  15:main.c        ****  * Encoder  : 
  16:main.c        ****  * ADC      :
  17:main.c        ****  * USB      : port displays speed and position.
  18:main.c        ****  * CMD: "PW xx"
  19:main.c        ****  * Copyright Univ of Auckland, 2016
  20:main.c        ****  * All Rights Reserved
  21:main.c        ****  * UNPUBLISHED, LICENSED SOFTWARE.
  22:main.c        ****  *
  23:main.c        ****  * CONFIDENTIAL AND PROPRIETARY INFORMATION
  24:main.c        ****  * WHICH IS THE PROPERTY OF Univ of Auckland.
  25:main.c        ****  *
  26:main.c        ****  * ========================================
  27:main.c        **** */
  28:main.c        **** 
  29:main.c        **** #include "program.h"
  30:main.c        **** 
ARM GAS  C:\Users\dulan\AppData\Local\Temp\ccUzvfCV.s 			page 2


  31:main.c        **** //distance calculation paras
  32:main.c        **** int32 CPR = 228;  // Adjusted for 4x resolution(228/4)
  33:main.c        **** float wheelCircumference_cm = (M_PI*64.46)/10;// wheel circumference wheelDiameter_mm = 64.46)
  34:main.c        **** double timeInterval_s = 10.924;  // Effective time interval( (timer period )2.731*4)
  35:main.c        **** int path_length;
  36:main.c        **** 
  37:main.c        **** 
  38:main.c        **** uint32 count = 0;
  39:main.c        **** bool isTurning=false;
  40:main.c        **** 
  41:main.c        **** uint8 comp0_sum;
  42:main.c        **** uint8 comp1_sum;
  43:main.c        **** uint8 comp2_sum;
  44:main.c        **** uint8 comp3_sum;
  45:main.c        **** 
  46:main.c        **** //={
  47:main.c        **** //    {15,'L'},
  48:main.c        **** //    {18,'R'},
  49:main.c        **** //    {10,'R'},
  50:main.c        **** //    {18,'L'},
  51:main.c        **** //    {25,'E'},
  52:main.c        **** //    
  53:main.c        **** //};
  54:main.c        **** 
  55:main.c        **** RobotState current_state = STOP;// intialse state
  56:main.c        **** 
  57:main.c        **** 
  58:main.c        **** 
  59:main.c        **** CY_ISR(isr_1_handler) {
  28              		.loc 1 59 0
  29              		.cfi_startproc
  30              		@ args = 0, pretend = 0, frame = 0
  31              		@ frame_needed = 0, uses_anonymous_args = 0
  32 0000 08B5     		push	{r3, lr}
  33              		.cfi_def_cfa_offset 8
  34              		.cfi_offset 3, -8
  35              		.cfi_offset 14, -4
  60:main.c        ****         //every 1ms 
  61:main.c        ****     
  62:main.c        ****     //sum up comp values every 1ms
  63:main.c        ****     comp0_sum+=Comp_0_GetCompare();
  36              		.loc 1 63 0
  37 0002 FFF7FEFF 		bl	Comp_0_GetCompare
  38              	.LVL0:
  39 0006 164A     		ldr	r2, .L4
  40 0008 1378     		ldrb	r3, [r2]	@ zero_extendqisi2
  41 000a 1844     		add	r0, r0, r3
  42 000c 1070     		strb	r0, [r2]
  64:main.c        ****     comp1_sum+=Comp_1_GetCompare();
  43              		.loc 1 64 0
  44 000e FFF7FEFF 		bl	Comp_1_GetCompare
  45              	.LVL1:
  46 0012 144A     		ldr	r2, .L4+4
  47 0014 1378     		ldrb	r3, [r2]	@ zero_extendqisi2
  48 0016 1844     		add	r0, r0, r3
  49 0018 1070     		strb	r0, [r2]
  65:main.c        ****     comp2_sum+=Comp_2_GetCompare();
ARM GAS  C:\Users\dulan\AppData\Local\Temp\ccUzvfCV.s 			page 3


  50              		.loc 1 65 0
  51 001a FFF7FEFF 		bl	Comp_2_GetCompare
  52              	.LVL2:
  53 001e 124A     		ldr	r2, .L4+8
  54 0020 1378     		ldrb	r3, [r2]	@ zero_extendqisi2
  55 0022 1844     		add	r0, r0, r3
  56 0024 1070     		strb	r0, [r2]
  66:main.c        ****     comp3_sum+=Comp_3_GetCompare();
  57              		.loc 1 66 0
  58 0026 FFF7FEFF 		bl	Comp_3_GetCompare
  59              	.LVL3:
  60 002a 104A     		ldr	r2, .L4+12
  61 002c 1378     		ldrb	r3, [r2]	@ zero_extendqisi2
  62 002e 1844     		add	r0, r0, r3
  63 0030 1070     		strb	r0, [r2]
  67:main.c        ****       
  68:main.c        ****     if(count==8){
  64              		.loc 1 68 0
  65 0032 0F4B     		ldr	r3, .L4+16
  66 0034 1B68     		ldr	r3, [r3]
  67 0036 082B     		cmp	r3, #8
  68 0038 0AD1     		bne	.L2
  69:main.c        ****         //reset to check again every 8ms
  70:main.c        ****         comp0_sum=0;
  69              		.loc 1 70 0
  70 003a 0023     		movs	r3, #0
  71 003c 084A     		ldr	r2, .L4
  72 003e 1370     		strb	r3, [r2]
  71:main.c        ****         comp1_sum=0;
  73              		.loc 1 71 0
  74 0040 084A     		ldr	r2, .L4+4
  75 0042 1370     		strb	r3, [r2]
  72:main.c        ****         comp2_sum=0;
  76              		.loc 1 72 0
  77 0044 084A     		ldr	r2, .L4+8
  78 0046 1370     		strb	r3, [r2]
  73:main.c        ****         comp3_sum=0;
  79              		.loc 1 73 0
  80 0048 084A     		ldr	r2, .L4+12
  81 004a 1370     		strb	r3, [r2]
  74:main.c        ****         count=0;
  82              		.loc 1 74 0
  83 004c 084A     		ldr	r2, .L4+16
  84 004e 1360     		str	r3, [r2]
  85              	.L2:
  75:main.c        ****     }
  76:main.c        ****    
  77:main.c        ****     count++;
  86              		.loc 1 77 0
  87 0050 074A     		ldr	r2, .L4+16
  88 0052 1368     		ldr	r3, [r2]
  89 0054 0133     		adds	r3, r3, #1
  90 0056 1360     		str	r3, [r2]
  78:main.c        ****     Timer_1_ReadStatusRegister();
  91              		.loc 1 78 0
  92 0058 FFF7FEFF 		bl	Timer_1_ReadStatusRegister
  93              	.LVL4:
ARM GAS  C:\Users\dulan\AppData\Local\Temp\ccUzvfCV.s 			page 4


  94 005c 08BD     		pop	{r3, pc}
  95              	.L5:
  96 005e 00BF     		.align	2
  97              	.L4:
  98 0060 00000000 		.word	comp0_sum
  99 0064 00000000 		.word	comp1_sum
 100 0068 00000000 		.word	comp2_sum
 101 006c 00000000 		.word	comp3_sum
 102 0070 00000000 		.word	.LANCHOR0
 103              		.cfi_endproc
 104              	.LFE64:
 105              		.size	isr_1_handler, .-isr_1_handler
 106              		.section	.text.stop,"ax",%progbits
 107              		.align	2
 108              		.global	stop
 109              		.thumb
 110              		.thumb_func
 111              		.type	stop, %function
 112              	stop:
 113              	.LFB65:
  79:main.c        **** }
  80:main.c        **** 
  81:main.c        **** 
  82:main.c        **** void stop(){
 114              		.loc 1 82 0
 115              		.cfi_startproc
 116              		@ args = 0, pretend = 0, frame = 0
 117              		@ frame_needed = 0, uses_anonymous_args = 0
 118 0000 08B5     		push	{r3, lr}
 119              		.cfi_def_cfa_offset 8
 120              		.cfi_offset 3, -8
 121              		.cfi_offset 14, -4
  83:main.c        ****     PWM_1_WriteCompare(50);
 122              		.loc 1 83 0
 123 0002 3220     		movs	r0, #50
 124 0004 FFF7FEFF 		bl	PWM_1_WriteCompare
 125              	.LVL5:
  84:main.c        ****     PWM_2_WriteCompare(50);
 126              		.loc 1 84 0
 127 0008 3220     		movs	r0, #50
 128 000a FFF7FEFF 		bl	PWM_2_WriteCompare
 129              	.LVL6:
 130 000e 08BD     		pop	{r3, pc}
 131              		.cfi_endproc
 132              	.LFE65:
 133              		.size	stop, .-stop
 134              		.section	.text.turnLeft,"ax",%progbits
 135              		.align	2
 136              		.global	turnLeft
 137              		.thumb
 138              		.thumb_func
 139              		.type	turnLeft, %function
 140              	turnLeft:
 141              	.LFB66:
  85:main.c        **** }
  86:main.c        **** 
  87:main.c        **** void turnLeft(){
ARM GAS  C:\Users\dulan\AppData\Local\Temp\ccUzvfCV.s 			page 5


 142              		.loc 1 87 0
 143              		.cfi_startproc
 144              		@ args = 0, pretend = 0, frame = 0
 145              		@ frame_needed = 0, uses_anonymous_args = 0
 146 0000 08B5     		push	{r3, lr}
 147              		.cfi_def_cfa_offset 8
 148              		.cfi_offset 3, -8
 149              		.cfi_offset 14, -4
  88:main.c        ****     PWM_1_WriteCompare(68);
 150              		.loc 1 88 0
 151 0002 4420     		movs	r0, #68
 152 0004 FFF7FEFF 		bl	PWM_1_WriteCompare
 153              	.LVL7:
  89:main.c        ****     PWM_2_WriteCompare(33);
 154              		.loc 1 89 0
 155 0008 2120     		movs	r0, #33
 156 000a FFF7FEFF 		bl	PWM_2_WriteCompare
 157              	.LVL8:
 158              	.L9:
  90:main.c        **** //    CyDelay(350);
  91:main.c        ****     while(Sout_L_Read()==0){//wait while left is on line
 159              		.loc 1 91 0 discriminator 1
 160 000e FFF7FEFF 		bl	Sout_L_Read
 161              	.LVL9:
 162 0012 0028     		cmp	r0, #0
 163 0014 FBD0     		beq	.L9
 164              	.L10:
  92:main.c        ****        ;;
  93:main.c        ****     }
  94:main.c        ****     while(!(Sout_M1_Read()==0 &&Sout_M1_Read()==0)){//wait while middle sensors off line
 165              		.loc 1 94 0 discriminator 3
 166 0016 FFF7FEFF 		bl	Sout_M1_Read
 167              	.LVL10:
 168 001a 0028     		cmp	r0, #0
 169 001c FBD1     		bne	.L10
 170              		.loc 1 94 0 is_stmt 0 discriminator 2
 171 001e FFF7FEFF 		bl	Sout_M1_Read
 172              	.LVL11:
 173 0022 0028     		cmp	r0, #0
 174 0024 F7D1     		bne	.L10
  95:main.c        ****        ;;
  96:main.c        ****     }
  97:main.c        ****     isTurning=false;
 175              		.loc 1 97 0 is_stmt 1
 176 0026 0022     		movs	r2, #0
 177 0028 044B     		ldr	r3, .L13
 178 002a 1A71     		strb	r2, [r3, #4]
  98:main.c        ****     PWM_1_WriteCompare(65);
 179              		.loc 1 98 0
 180 002c 4120     		movs	r0, #65
 181 002e FFF7FEFF 		bl	PWM_1_WriteCompare
 182              	.LVL12:
  99:main.c        ****     PWM_2_WriteCompare(66);
 183              		.loc 1 99 0
 184 0032 4220     		movs	r0, #66
 185 0034 FFF7FEFF 		bl	PWM_2_WriteCompare
 186              	.LVL13:
ARM GAS  C:\Users\dulan\AppData\Local\Temp\ccUzvfCV.s 			page 6


 187 0038 08BD     		pop	{r3, pc}
 188              	.L14:
 189 003a 00BF     		.align	2
 190              	.L13:
 191 003c 00000000 		.word	.LANCHOR0
 192              		.cfi_endproc
 193              	.LFE66:
 194              		.size	turnLeft, .-turnLeft
 195              		.section	.text.turnRight,"ax",%progbits
 196              		.align	2
 197              		.global	turnRight
 198              		.thumb
 199              		.thumb_func
 200              		.type	turnRight, %function
 201              	turnRight:
 202              	.LFB67:
 100:main.c        **** 
 101:main.c        **** }
 102:main.c        **** 
 103:main.c        **** void turnRight(){
 203              		.loc 1 103 0
 204              		.cfi_startproc
 205              		@ args = 0, pretend = 0, frame = 0
 206              		@ frame_needed = 0, uses_anonymous_args = 0
 207 0000 08B5     		push	{r3, lr}
 208              		.cfi_def_cfa_offset 8
 209              		.cfi_offset 3, -8
 210              		.cfi_offset 14, -4
 104:main.c        ****     PWM_1_WriteCompare(33);
 211              		.loc 1 104 0
 212 0002 2120     		movs	r0, #33
 213 0004 FFF7FEFF 		bl	PWM_1_WriteCompare
 214              	.LVL14:
 105:main.c        ****     PWM_2_WriteCompare(68);
 215              		.loc 1 105 0
 216 0008 4420     		movs	r0, #68
 217 000a FFF7FEFF 		bl	PWM_2_WriteCompare
 218              	.LVL15:
 219              	.L16:
 106:main.c        ****     while(Sout_R_Read()==0){//wait while right is on line
 220              		.loc 1 106 0 discriminator 1
 221 000e FFF7FEFF 		bl	Sout_R_Read
 222              	.LVL16:
 223 0012 0028     		cmp	r0, #0
 224 0014 FBD0     		beq	.L16
 225              	.L17:
 107:main.c        ****        ;;
 108:main.c        ****     }
 109:main.c        ****     while(!(Sout_M1_Read()==0 &&Sout_M1_Read()==0)){//wait while middle sensors off line
 226              		.loc 1 109 0 discriminator 3
 227 0016 FFF7FEFF 		bl	Sout_M1_Read
 228              	.LVL17:
 229 001a 0028     		cmp	r0, #0
 230 001c FBD1     		bne	.L17
 231              		.loc 1 109 0 is_stmt 0 discriminator 2
 232 001e FFF7FEFF 		bl	Sout_M1_Read
 233              	.LVL18:
ARM GAS  C:\Users\dulan\AppData\Local\Temp\ccUzvfCV.s 			page 7


 234 0022 0028     		cmp	r0, #0
 235 0024 F7D1     		bne	.L17
 110:main.c        ****        ;;
 111:main.c        ****     }
 112:main.c        ****     isTurning=false;
 236              		.loc 1 112 0 is_stmt 1
 237 0026 0022     		movs	r2, #0
 238 0028 044B     		ldr	r3, .L20
 239 002a 1A71     		strb	r2, [r3, #4]
 113:main.c        ****     PWM_1_WriteCompare(65);
 240              		.loc 1 113 0
 241 002c 4120     		movs	r0, #65
 242 002e FFF7FEFF 		bl	PWM_1_WriteCompare
 243              	.LVL19:
 114:main.c        ****     PWM_2_WriteCompare(66);
 244              		.loc 1 114 0
 245 0032 4220     		movs	r0, #66
 246 0034 FFF7FEFF 		bl	PWM_2_WriteCompare
 247              	.LVL20:
 248 0038 08BD     		pop	{r3, pc}
 249              	.L21:
 250 003a 00BF     		.align	2
 251              	.L20:
 252 003c 00000000 		.word	.LANCHOR0
 253              		.cfi_endproc
 254              	.LFE67:
 255              		.size	turnRight, .-turnRight
 256              		.section	.text.reverse,"ax",%progbits
 257              		.align	2
 258              		.global	reverse
 259              		.thumb
 260              		.thumb_func
 261              		.type	reverse, %function
 262              	reverse:
 263              	.LFB68:
 115:main.c        **** }
 116:main.c        **** 
 117:main.c        **** 
 118:main.c        **** void reverse(){
 264              		.loc 1 118 0
 265              		.cfi_startproc
 266              		@ args = 0, pretend = 0, frame = 0
 267              		@ frame_needed = 0, uses_anonymous_args = 0
 268 0000 08B5     		push	{r3, lr}
 269              		.cfi_def_cfa_offset 8
 270              		.cfi_offset 3, -8
 271              		.cfi_offset 14, -4
 119:main.c        ****     PWM_1_WriteCompare(30);
 272              		.loc 1 119 0
 273 0002 1E20     		movs	r0, #30
 274 0004 FFF7FEFF 		bl	PWM_1_WriteCompare
 275              	.LVL21:
 120:main.c        ****     PWM_2_WriteCompare(30);
 276              		.loc 1 120 0
 277 0008 1E20     		movs	r0, #30
 278 000a FFF7FEFF 		bl	PWM_2_WriteCompare
 279              	.LVL22:
ARM GAS  C:\Users\dulan\AppData\Local\Temp\ccUzvfCV.s 			page 8


 280 000e 08BD     		pop	{r3, pc}
 281              		.cfi_endproc
 282              	.LFE68:
 283              		.size	reverse, .-reverse
 284              		.global	__aeabi_i2d
 285              		.global	__aeabi_dmul
 286              		.global	__aeabi_dcmplt
 287              		.section	.text.goStraight_cm,"ax",%progbits
 288              		.align	2
 289              		.global	goStraight_cm
 290              		.thumb
 291              		.thumb_func
 292              		.type	goStraight_cm, %function
 293              	goStraight_cm:
 294              	.LFB69:
 121:main.c        **** }
 122:main.c        **** 
 123:main.c        **** void goStraight_cm(int distance){
 295              		.loc 1 123 0
 296              		.cfi_startproc
 297              		@ args = 0, pretend = 0, frame = 0
 298              		@ frame_needed = 0, uses_anonymous_args = 0
 299              	.LVL23:
 300 0000 70B5     		push	{r4, r5, r6, lr}
 301              		.cfi_def_cfa_offset 16
 302              		.cfi_offset 4, -16
 303              		.cfi_offset 5, -12
 304              		.cfi_offset 6, -8
 305              		.cfi_offset 14, -4
 306 0002 0646     		mov	r6, r0
 124:main.c        ****     
 125:main.c        ****     QuadDec_M1_SetCounter(0);
 307              		.loc 1 125 0
 308 0004 0020     		movs	r0, #0
 309              	.LVL24:
 310 0006 FFF7FEFF 		bl	QuadDec_M1_SetCounter
 311              	.LVL25:
 126:main.c        ****     
 127:main.c        ****     while(QuadDec_M1_GetCounter()<(distance*ENC_VALUE_PER_CM)){
 312              		.loc 1 127 0
 313 000a 24E0     		b	.L25
 314              	.L30:
 128:main.c        ****             //comp0==>middle left comp1==>middle right
 129:main.c        ****         if(comp0_sum>0 && comp1_sum==0){//s_ML out of line
 315              		.loc 1 129 0
 316 000c 1E4B     		ldr	r3, .L32
 317 000e 1B78     		ldrb	r3, [r3]	@ zero_extendqisi2
 318 0010 4BB1     		cbz	r3, .L26
 319              		.loc 1 129 0 is_stmt 0 discriminator 1
 320 0012 1E4A     		ldr	r2, .L32+4
 321 0014 1278     		ldrb	r2, [r2]	@ zero_extendqisi2
 322 0016 32B9     		cbnz	r2, .L26
 130:main.c        ****             PWM_2_WriteCompare(PWM_2_ReadCompare() +1);
 323              		.loc 1 130 0 is_stmt 1
 324 0018 FFF7FEFF 		bl	PWM_2_ReadCompare
 325              	.LVL26:
 326 001c 0130     		adds	r0, r0, #1
ARM GAS  C:\Users\dulan\AppData\Local\Temp\ccUzvfCV.s 			page 9


 327 001e C0B2     		uxtb	r0, r0
 328 0020 FFF7FEFF 		bl	PWM_2_WriteCompare
 329              	.LVL27:
 330 0024 17E0     		b	.L25
 331              	.L26:
 131:main.c        ****         }else if(comp0_sum==0 && comp1_sum>0){//s_MR out of line
 332              		.loc 1 131 0
 333 0026 4BB9     		cbnz	r3, .L28
 334              		.loc 1 131 0 is_stmt 0 discriminator 1
 335 0028 184A     		ldr	r2, .L32+4
 336 002a 1278     		ldrb	r2, [r2]	@ zero_extendqisi2
 337 002c 32B1     		cbz	r2, .L28
 132:main.c        ****             PWM_1_WriteCompare(PWM_1_ReadCompare() +1);
 338              		.loc 1 132 0 is_stmt 1
 339 002e FFF7FEFF 		bl	PWM_1_ReadCompare
 340              	.LVL28:
 341 0032 0130     		adds	r0, r0, #1
 342 0034 C0B2     		uxtb	r0, r0
 343 0036 FFF7FEFF 		bl	PWM_1_WriteCompare
 344              	.LVL29:
 345 003a 0CE0     		b	.L25
 346              	.L28:
 133:main.c        ****             
 134:main.c        ****         }else if(comp1_sum==0 && comp0_sum==0){
 347              		.loc 1 134 0
 348 003c 134A     		ldr	r2, .L32+4
 349 003e 1278     		ldrb	r2, [r2]	@ zero_extendqisi2
 350 0040 3AB9     		cbnz	r2, .L29
 351              		.loc 1 134 0 is_stmt 0 discriminator 1
 352 0042 33B9     		cbnz	r3, .L29
 135:main.c        ****             PWM_1_WriteCompare(68);
 353              		.loc 1 135 0 is_stmt 1
 354 0044 4420     		movs	r0, #68
 355 0046 FFF7FEFF 		bl	PWM_1_WriteCompare
 356              	.LVL30:
 136:main.c        ****             PWM_2_WriteCompare(69);
 357              		.loc 1 136 0
 358 004a 4520     		movs	r0, #69
 359 004c FFF7FEFF 		bl	PWM_2_WriteCompare
 360              	.LVL31:
 361 0050 01E0     		b	.L25
 362              	.L29:
 137:main.c        ****         }else{
 138:main.c        ****             reverse();
 363              		.loc 1 138 0
 364 0052 FFF7FEFF 		bl	reverse
 365              	.LVL32:
 366              	.L25:
 127:main.c        ****             //comp0==>middle left comp1==>middle right
 367              		.loc 1 127 0
 368 0056 FFF7FEFF 		bl	QuadDec_M1_GetCounter
 369              	.LVL33:
 370 005a FFF7FEFF 		bl	__aeabi_i2d
 371              	.LVL34:
 372 005e 0446     		mov	r4, r0
 373 0060 0D46     		mov	r5, r1
 374 0062 3046     		mov	r0, r6
ARM GAS  C:\Users\dulan\AppData\Local\Temp\ccUzvfCV.s 			page 10


 375 0064 FFF7FEFF 		bl	__aeabi_i2d
 376              	.LVL35:
 377 0068 0022     		movs	r2, #0
 378 006a 094B     		ldr	r3, .L32+8
 379 006c FFF7FEFF 		bl	__aeabi_dmul
 380              	.LVL36:
 381 0070 0246     		mov	r2, r0
 382 0072 0B46     		mov	r3, r1
 383 0074 2046     		mov	r0, r4
 384 0076 2946     		mov	r1, r5
 385 0078 FFF7FEFF 		bl	__aeabi_dcmplt
 386              	.LVL37:
 387 007c 0028     		cmp	r0, #0
 388 007e C5D1     		bne	.L30
 139:main.c        ****         }
 140:main.c        ****     }
 141:main.c        ****     stop();
 389              		.loc 1 141 0
 390 0080 FFF7FEFF 		bl	stop
 391              	.LVL38:
 392 0084 70BD     		pop	{r4, r5, r6, pc}
 393              	.LVL39:
 394              	.L33:
 395 0086 00BF     		.align	2
 396              	.L32:
 397 0088 00000000 		.word	comp0_sum
 398 008c 00000000 		.word	comp1_sum
 399 0090 00002540 		.word	1076166656
 400              		.cfi_endproc
 401              	.LFE69:
 402              		.size	goStraight_cm, .-goStraight_cm
 403              		.section	.text.goStraight,"ax",%progbits
 404              		.align	2
 405              		.global	goStraight
 406              		.thumb
 407              		.thumb_func
 408              		.type	goStraight, %function
 409              	goStraight:
 410              	.LFB70:
 142:main.c        ****     
 143:main.c        **** }
 144:main.c        **** 
 145:main.c        **** void goStraight(){
 411              		.loc 1 145 0
 412              		.cfi_startproc
 413              		@ args = 0, pretend = 0, frame = 0
 414              		@ frame_needed = 0, uses_anonymous_args = 0
 415 0000 08B5     		push	{r3, lr}
 416              		.cfi_def_cfa_offset 8
 417              		.cfi_offset 3, -8
 418              		.cfi_offset 14, -4
 146:main.c        ****     
 147:main.c        ****         //comp0==>middle left comp1==>middle right
 148:main.c        ****     if(comp0_sum>0 && comp1_sum==0){//s_ML out of line
 419              		.loc 1 148 0
 420 0002 134B     		ldr	r3, .L40
 421 0004 1B78     		ldrb	r3, [r3]	@ zero_extendqisi2
ARM GAS  C:\Users\dulan\AppData\Local\Temp\ccUzvfCV.s 			page 11


 422 0006 4BB1     		cbz	r3, .L35
 423              		.loc 1 148 0 is_stmt 0 discriminator 1
 424 0008 124A     		ldr	r2, .L40+4
 425 000a 1278     		ldrb	r2, [r2]	@ zero_extendqisi2
 426 000c 32B9     		cbnz	r2, .L35
 149:main.c        ****         PWM_2_WriteCompare(PWM_2_ReadCompare() +1);
 427              		.loc 1 149 0 is_stmt 1
 428 000e FFF7FEFF 		bl	PWM_2_ReadCompare
 429              	.LVL40:
 430 0012 0130     		adds	r0, r0, #1
 431 0014 C0B2     		uxtb	r0, r0
 432 0016 FFF7FEFF 		bl	PWM_2_WriteCompare
 433              	.LVL41:
 434 001a 08BD     		pop	{r3, pc}
 435              	.L35:
 150:main.c        ****     }else if(comp0_sum==0 && comp1_sum>0){//s_MR out of line
 436              		.loc 1 150 0
 437 001c 4BB9     		cbnz	r3, .L37
 438              		.loc 1 150 0 is_stmt 0 discriminator 1
 439 001e 0D4A     		ldr	r2, .L40+4
 440 0020 1278     		ldrb	r2, [r2]	@ zero_extendqisi2
 441 0022 32B1     		cbz	r2, .L37
 151:main.c        ****         PWM_1_WriteCompare(PWM_1_ReadCompare() +1);
 442              		.loc 1 151 0 is_stmt 1
 443 0024 FFF7FEFF 		bl	PWM_1_ReadCompare
 444              	.LVL42:
 445 0028 0130     		adds	r0, r0, #1
 446 002a C0B2     		uxtb	r0, r0
 447 002c FFF7FEFF 		bl	PWM_1_WriteCompare
 448              	.LVL43:
 449 0030 08BD     		pop	{r3, pc}
 450              	.L37:
 152:main.c        ****         
 153:main.c        ****     }else if(comp1_sum==0 && comp0_sum==0){
 451              		.loc 1 153 0
 452 0032 084A     		ldr	r2, .L40+4
 453 0034 1278     		ldrb	r2, [r2]	@ zero_extendqisi2
 454 0036 3AB9     		cbnz	r2, .L38
 455              		.loc 1 153 0 is_stmt 0 discriminator 1
 456 0038 33B9     		cbnz	r3, .L38
 154:main.c        ****         PWM_1_WriteCompare(68);
 457              		.loc 1 154 0 is_stmt 1
 458 003a 4420     		movs	r0, #68
 459 003c FFF7FEFF 		bl	PWM_1_WriteCompare
 460              	.LVL44:
 155:main.c        ****         PWM_2_WriteCompare(69);
 461              		.loc 1 155 0
 462 0040 4520     		movs	r0, #69
 463 0042 FFF7FEFF 		bl	PWM_2_WriteCompare
 464              	.LVL45:
 465 0046 08BD     		pop	{r3, pc}
 466              	.L38:
 156:main.c        ****     }else{
 157:main.c        ****         reverse();
 467              		.loc 1 157 0
 468 0048 FFF7FEFF 		bl	reverse
 469              	.LVL46:
ARM GAS  C:\Users\dulan\AppData\Local\Temp\ccUzvfCV.s 			page 12


 470 004c 08BD     		pop	{r3, pc}
 471              	.L41:
 472 004e 00BF     		.align	2
 473              	.L40:
 474 0050 00000000 		.word	comp0_sum
 475 0054 00000000 		.word	comp1_sum
 476              		.cfi_endproc
 477              	.LFE70:
 478              		.size	goStraight, .-goStraight
 479              		.section	.text.main,"ax",%progbits
 480              		.align	2
 481              		.global	main
 482              		.thumb
 483              		.thumb_func
 484              		.type	main, %function
 485              	main:
 486              	.LFB71:
 158:main.c        ****     }
 159:main.c        ****     
 160:main.c        ****     
 161:main.c        **** }
 162:main.c        **** 
 163:main.c        **** int main(void)
 164:main.c        **** {
 487              		.loc 1 164 0
 488              		.cfi_startproc
 489              		@ args = 0, pretend = 0, frame = 0
 490              		@ frame_needed = 0, uses_anonymous_args = 0
 491 0000 30B5     		push	{r4, r5, lr}
 492              		.cfi_def_cfa_offset 12
 493              		.cfi_offset 4, -12
 494              		.cfi_offset 5, -8
 495              		.cfi_offset 14, -4
 496 0002 83B0     		sub	sp, sp, #12
 497              		.cfi_def_cfa_offset 24
 165:main.c        ****     CyGlobalIntEnable; /* Enable global interrupts. */
 498              		.loc 1 165 0
 499              		.syntax unified
 500              	@ 165 "main.c" 1
 501 0004 62B6     		CPSIE   i
 502              	@ 0 "" 2
 166:main.c        **** 
 167:main.c        ****     /* Place your initialization/startup code here (e.g. MyInst_Start()) */
 168:main.c        ****     Timer_1_Start();
 503              		.loc 1 168 0
 504              		.thumb
 505              		.syntax unified
 506 0006 FFF7FEFF 		bl	Timer_1_Start
 507              	.LVL47:
 169:main.c        ****     
 170:main.c        ****     isr_1_StartEx(isr_1_handler);
 508              		.loc 1 170 0
 509 000a 2F48     		ldr	r0, .L57
 510 000c FFF7FEFF 		bl	isr_1_StartEx
 511              	.LVL48:
 171:main.c        ****     
 172:main.c        ****     //start comparators
ARM GAS  C:\Users\dulan\AppData\Local\Temp\ccUzvfCV.s 			page 13


 173:main.c        ****     Comp_0_Start();
 512              		.loc 1 173 0
 513 0010 FFF7FEFF 		bl	Comp_0_Start
 514              	.LVL49:
 174:main.c        ****     Comp_1_Start();
 515              		.loc 1 174 0
 516 0014 FFF7FEFF 		bl	Comp_1_Start
 517              	.LVL50:
 175:main.c        ****     Comp_2_Start();
 518              		.loc 1 175 0
 519 0018 FFF7FEFF 		bl	Comp_2_Start
 520              	.LVL51:
 176:main.c        ****     Comp_3_Start();
 521              		.loc 1 176 0
 522 001c FFF7FEFF 		bl	Comp_3_Start
 523              	.LVL52:
 177:main.c        ****     
 178:main.c        ****     /*Start PWM Clk*/
 179:main.c        ****     Clock_PWM_Start(); 
 524              		.loc 1 179 0
 525 0020 FFF7FEFF 		bl	Clock_PWM_Start
 526              	.LVL53:
 180:main.c        ****     //Start PWM
 181:main.c        ****     PWM_1_Start();
 527              		.loc 1 181 0
 528 0024 FFF7FEFF 		bl	PWM_1_Start
 529              	.LVL54:
 182:main.c        ****     PWM_2_Start();
 530              		.loc 1 182 0
 531 0028 FFF7FEFF 		bl	PWM_2_Start
 532              	.LVL55:
 183:main.c        ****      
 184:main.c        ****     // write comparision int for MC33926 duty cycle must me larger than 10% and less than 90%
 185:main.c        **** 
 186:main.c        ****     
 187:main.c        ****     PWM_1_WritePeriod(100);
 533              		.loc 1 187 0
 534 002c 6420     		movs	r0, #100
 535 002e FFF7FEFF 		bl	PWM_1_WritePeriod
 536              	.LVL56:
 188:main.c        ****     PWM_2_WritePeriod(100);
 537              		.loc 1 188 0
 538 0032 6420     		movs	r0, #100
 539 0034 FFF7FEFF 		bl	PWM_2_WritePeriod
 540              	.LVL57:
 189:main.c        ****     
 190:main.c        ****     PWM_1_WriteCompare(50);
 541              		.loc 1 190 0
 542 0038 3220     		movs	r0, #50
 543 003a FFF7FEFF 		bl	PWM_1_WriteCompare
 544              	.LVL58:
 191:main.c        ****     PWM_2_WriteCompare(50);
 545              		.loc 1 191 0
 546 003e 3220     		movs	r0, #50
 547 0040 FFF7FEFF 		bl	PWM_2_WriteCompare
 548              	.LVL59:
 192:main.c        ****     QuadDec_M1_Start();
ARM GAS  C:\Users\dulan\AppData\Local\Temp\ccUzvfCV.s 			page 14


 549              		.loc 1 192 0
 550 0044 FFF7FEFF 		bl	QuadDec_M1_Start
 551              	.LVL60:
 193:main.c        ****     QuadDec_M2_Start();
 552              		.loc 1 193 0
 553 0048 FFF7FEFF 		bl	QuadDec_M2_Start
 554              	.LVL61:
 194:main.c        ****     
 195:main.c        ****     
 196:main.c        **** //**********************************calculate path    
 197:main.c        **** //    int startX = 0, startY = 0;
 198:main.c        **** //    int targetX = 4, targetY = 4;
 199:main.c        **** //
 200:main.c        **** //    Node* endNode = AStar(startX, startY, targetX, targetY);
 201:main.c        **** //
 202:main.c        **** //    // Print the path
 203:main.c        **** //    printPath(endNode);
 204:main.c        **** //**************************************************    
 205:main.c        ****      //takes in x ,y
 206:main.c        ****    getPath(AStar(1,1,7,1)); 
 555              		.loc 1 206 0
 556 004c 0123     		movs	r3, #1
 557 004e 0722     		movs	r2, #7
 558 0050 1946     		mov	r1, r3
 559 0052 1846     		mov	r0, r3
 560 0054 FFF7FEFF 		bl	AStar
 561              	.LVL62:
 562 0058 FFF7FEFF 		bl	getPath
 563              	.LVL63:
 207:main.c        ****    //takes in row,column
 208:main.c        ****    getMovementArray(1,1,1,7,SOUTH);
 564              		.loc 1 208 0
 565 005c 0223     		movs	r3, #2
 566 005e 0093     		str	r3, [sp]
 567 0060 0723     		movs	r3, #7
 568 0062 0122     		movs	r2, #1
 569 0064 1146     		mov	r1, r2
 570 0066 1046     		mov	r0, r2
 571 0068 FFF7FEFF 		bl	getMovementArray
 572              	.LVL64:
 573              	.LBB2:
 209:main.c        ****     
 210:main.c        ****     //this loops through all the movement required in the path
 211:main.c        ****     //movement contains distance for going straight and a turn
 212:main.c        ****     for(int i=0; i<11;i++){//length should be how many movements there should be
 574              		.loc 1 212 0
 575 006c 0024     		movs	r4, #0
 576 006e 25E0     		b	.L43
 577              	.LVL65:
 578              	.L52:
 213:main.c        ****         //if(i!=0){
 214:main.c        ****         //    goStraight_cm(path[i].distance-10);//if not the first movement remove 5 cm as turn mo
 215:main.c        ****         //}else{
 216:main.c        ****             goStraight_cm(movementArray[i].distance);
 579              		.loc 1 216 0
 580 0070 164D     		ldr	r5, .L57+4
 581 0072 55F83400 		ldr	r0, [r5, r4, lsl #3]
ARM GAS  C:\Users\dulan\AppData\Local\Temp\ccUzvfCV.s 			page 15


 582 0076 FFF7FEFF 		bl	goStraight_cm
 583              	.LVL66:
 217:main.c        ****         //}
 218:main.c        ****         if(movementArray[i].turnDirection=='R'){
 584              		.loc 1 218 0
 585 007a 05EBC405 		add	r5, r5, r4, lsl #3
 586 007e 2B79     		ldrb	r3, [r5, #4]	@ zero_extendqisi2
 587 0080 522B     		cmp	r3, #82
 588 0082 09D1     		bne	.L54
 589 0084 01E0     		b	.L44
 590              	.L46:
 219:main.c        ****            while(Sout_R_Read()!=0){
 220:main.c        ****              goStraight();
 591              		.loc 1 220 0
 592 0086 FFF7FEFF 		bl	goStraight
 593              	.LVL67:
 594              	.L44:
 219:main.c        ****            while(Sout_R_Read()!=0){
 595              		.loc 1 219 0
 596 008a FFF7FEFF 		bl	Sout_R_Read
 597              	.LVL68:
 598 008e 0028     		cmp	r0, #0
 599 0090 F9D1     		bne	.L46
 221:main.c        ****            }
 222:main.c        ****            turnRight();
 600              		.loc 1 222 0
 601 0092 FFF7FEFF 		bl	turnRight
 602              	.LVL69:
 603 0096 10E0     		b	.L47
 604              	.L54:
 223:main.c        ****         }else if(movementArray[i].turnDirection=='L'){
 605              		.loc 1 223 0
 606 0098 4C2B     		cmp	r3, #76
 607 009a 09D1     		bne	.L55
 608 009c 01E0     		b	.L48
 609              	.L50:
 224:main.c        ****            while(Sout_L_Read()!=0){
 225:main.c        ****              goStraight();
 610              		.loc 1 225 0
 611 009e FFF7FEFF 		bl	goStraight
 612              	.LVL70:
 613              	.L48:
 224:main.c        ****            while(Sout_L_Read()!=0){
 614              		.loc 1 224 0
 615 00a2 FFF7FEFF 		bl	Sout_L_Read
 616              	.LVL71:
 617 00a6 0028     		cmp	r0, #0
 618 00a8 F9D1     		bne	.L50
 226:main.c        ****            }
 227:main.c        ****            turnLeft();
 619              		.loc 1 227 0
 620 00aa FFF7FEFF 		bl	turnLeft
 621              	.LVL72:
 622 00ae 04E0     		b	.L47
 623              	.L55:
 228:main.c        ****         }else if(movementArray[i].turnDirection=='E'){
 624              		.loc 1 228 0
ARM GAS  C:\Users\dulan\AppData\Local\Temp\ccUzvfCV.s 			page 16


 625 00b0 452B     		cmp	r3, #69
 626 00b2 02D1     		bne	.L47
 229:main.c        ****             stop();
 627              		.loc 1 229 0
 628 00b4 FFF7FEFF 		bl	stop
 629              	.LVL73:
 230:main.c        ****             break;
 630              		.loc 1 230 0
 631 00b8 02E0     		b	.L51
 632              	.L47:
 212:main.c        ****         //if(i!=0){
 633              		.loc 1 212 0 discriminator 2
 634 00ba 0134     		adds	r4, r4, #1
 635              	.LVL74:
 636              	.L43:
 212:main.c        ****         //if(i!=0){
 637              		.loc 1 212 0 is_stmt 0 discriminator 1
 638 00bc 0A2C     		cmp	r4, #10
 639 00be D7DD     		ble	.L52
 640              	.L51:
 641              	.LBE2:
 231:main.c        ****         }
 232:main.c        ****     }
 233:main.c        ****    
 234:main.c        ****     stop();
 642              		.loc 1 234 0 is_stmt 1
 643 00c0 FFF7FEFF 		bl	stop
 644              	.LVL75:
 645              	.L53:
 646 00c4 FEE7     		b	.L53
 647              	.L58:
 648 00c6 00BF     		.align	2
 649              	.L57:
 650 00c8 00000000 		.word	isr_1_handler
 651 00cc 00000000 		.word	movementArray
 652              		.cfi_endproc
 653              	.LFE71:
 654              		.size	main, .-main
 655              		.global	current_state
 656              		.comm	comp3_sum,1,1
 657              		.comm	comp2_sum,1,1
 658              		.comm	comp1_sum,1,1
 659              		.comm	comp0_sum,1,1
 660              		.global	isTurning
 661              		.global	count
 662              		.comm	path_length,4,4
 663              		.global	timeInterval_s
 664              		.global	wheelCircumference_cm
 665              		.global	CPR
 666              		.comm	movementArray,80,4
 667              		.data
 668              		.align	3
 669              		.type	current_state, %object
 670              		.size	current_state, 1
 671              	current_state:
 672 0000 03       		.byte	3
 673 0001 00000000 		.space	7
ARM GAS  C:\Users\dulan\AppData\Local\Temp\ccUzvfCV.s 			page 17


 673      000000
 674              		.type	timeInterval_s, %object
 675              		.size	timeInterval_s, 8
 676              	timeInterval_s:
 677 0008 0C022B87 		.word	-2027224564
 678 000c 16D92540 		.word	1076222230
 679              		.type	wheelCircumference_cm, %object
 680              		.size	wheelCircumference_cm, 4
 681              	wheelCircumference_cm:
 682 0010 7201A241 		.word	1101136242
 683              		.type	CPR, %object
 684              		.size	CPR, 4
 685              	CPR:
 686 0014 E4000000 		.word	228
 687              		.bss
 688              		.align	2
 689              		.set	.LANCHOR0,. + 0
 690              		.type	count, %object
 691              		.size	count, 4
 692              	count:
 693 0000 00000000 		.space	4
 694              		.type	isTurning, %object
 695              		.size	isTurning, 1
 696              	isTurning:
 697 0004 00       		.space	1
 698              		.text
 699              	.Letext0:
 700              		.file 2 "c:\\program files (x86)\\cypress\\psoc creator\\4.4\\psoc creator\\import\\gnu\\arm\\5.4.
 701              		.file 3 "c:\\program files (x86)\\cypress\\psoc creator\\4.4\\psoc creator\\import\\gnu\\arm\\5.4.
 702              		.file 4 "Generated_Source\\PSoC5/cytypes.h"
 703              		.file 5 "program.h"
 704              		.file 6 "Generated_Source\\PSoC5/core_cm3.h"
 705              		.file 7 "Generated_Source\\PSoC5/Comp_0.h"
 706              		.file 8 "Generated_Source\\PSoC5/Comp_1.h"
 707              		.file 9 "Generated_Source\\PSoC5/Comp_2.h"
 708              		.file 10 "Generated_Source\\PSoC5/Comp_3.h"
 709              		.file 11 "Generated_Source\\PSoC5/Timer_1.h"
 710              		.file 12 "Generated_Source\\PSoC5/PWM_1.h"
 711              		.file 13 "Generated_Source\\PSoC5/PWM_2.h"
 712              		.file 14 "Generated_Source\\PSoC5/Sout_L.h"
 713              		.file 15 "Generated_Source\\PSoC5/Sout_M1.h"
 714              		.file 16 "Generated_Source\\PSoC5/Sout_R.h"
 715              		.file 17 "Generated_Source\\PSoC5/QuadDec_M1.h"
 716              		.file 18 "Generated_Source\\PSoC5/isr_1.h"
 717              		.file 19 "Generated_Source\\PSoC5/Clock_PWM.h"
 718              		.file 20 "Generated_Source\\PSoC5/QuadDec_M2.h"