
cs303.elf:     file format elf32-littlenios2
cs303.elf
architecture: nios2:r1, flags 0x00000112:
EXEC_P, HAS_SYMS, D_PAGED
start address 0x00800244

Program Header:
    LOAD off    0x00001000 vaddr 0x00800000 paddr 0x00800000 align 2**12
         filesz 0x00000020 memsz 0x00000020 flags r-x
    LOAD off    0x00001020 vaddr 0x00800020 paddr 0x00800020 align 2**12
         filesz 0x0000d8c8 memsz 0x0000d8c8 flags r-x
    LOAD off    0x0000e8e8 vaddr 0x0080d8e8 paddr 0x0080f540 align 2**12
         filesz 0x00001c58 memsz 0x00001c58 flags rw-
    LOAD off    0x00011198 vaddr 0x00811198 paddr 0x00811198 align 2**12
         filesz 0x00000000 memsz 0x00000158 flags rw-

Sections:
Idx Name          Size      VMA       LMA       File off  Algn
  0 .entry        00000020  00800000  00800000  00001000  2**5
                  CONTENTS, ALLOC, LOAD, READONLY, CODE
  1 .exceptions   00000224  00800020  00800020  00001020  2**2
                  CONTENTS, ALLOC, LOAD, READONLY, CODE
  2 .text         0000d2c8  00800244  00800244  00001244  2**2
                  CONTENTS, ALLOC, LOAD, READONLY, CODE
  3 .rodata       000003dc  0080d50c  0080d50c  0000e50c  2**2
                  CONTENTS, ALLOC, LOAD, READONLY, DATA
  4 .rwdata       00001c58  0080d8e8  0080f540  0000e8e8  2**2
                  CONTENTS, ALLOC, LOAD, DATA, SMALL_DATA
  5 .bss          00000158  00811198  00811198  00011198  2**2
                  ALLOC, SMALL_DATA
  6 .sdram        00000000  008112f0  008112f0  00010540  2**0
                  CONTENTS
  7 .onchip_mem   00000000  01008000  01008000  00010540  2**0
                  CONTENTS
  8 .comment      00000023  00000000  00000000  00010540  2**0
                  CONTENTS, READONLY
  9 .debug_aranges 00000c40  00000000  00000000  00010568  2**3
                  CONTENTS, READONLY, DEBUGGING
 10 .debug_info   0001adf8  00000000  00000000  000111a8  2**0
                  CONTENTS, READONLY, DEBUGGING
 11 .debug_abbrev 0000735a  00000000  00000000  0002bfa0  2**0
                  CONTENTS, READONLY, DEBUGGING
 12 .debug_line   00009563  00000000  00000000  000332fa  2**0
                  CONTENTS, READONLY, DEBUGGING
 13 .debug_frame  00001b9c  00000000  00000000  0003c860  2**2
                  CONTENTS, READONLY, DEBUGGING
 14 .debug_str    00003793  00000000  00000000  0003e3fc  2**0
                  CONTENTS, READONLY, DEBUGGING
 15 .debug_loc    00007ba8  00000000  00000000  00041b8f  2**0
                  CONTENTS, READONLY, DEBUGGING
 16 .debug_alt_sim_info 00000060  00000000  00000000  00049738  2**2
                  CONTENTS, READONLY, DEBUGGING
 17 .debug_ranges 00000ca8  00000000  00000000  00049798  2**3
                  CONTENTS, READONLY, DEBUGGING
 18 .thread_model 00000003  00000000  00000000  0004d0b1  2**0
                  CONTENTS, READONLY
 19 .cpu          00000003  00000000  00000000  0004d0b4  2**0
                  CONTENTS, READONLY
 20 .qsys         00000001  00000000  00000000  0004d0b7  2**0
                  CONTENTS, READONLY
 21 .simulation_enabled 00000001  00000000  00000000  0004d0b8  2**0
                  CONTENTS, READONLY
 22 .stderr_dev   00000009  00000000  00000000  0004d0b9  2**0
                  CONTENTS, READONLY
 23 .stdin_dev    00000009  00000000  00000000  0004d0c2  2**0
                  CONTENTS, READONLY
 24 .stdout_dev   00000009  00000000  00000000  0004d0cb  2**0
                  CONTENTS, READONLY
 25 .sopc_system_name 0000000c  00000000  00000000  0004d0d4  2**0
                  CONTENTS, READONLY
 26 .quartus_project_dir 00000033  00000000  00000000  0004d0e0  2**0
                  CONTENTS, READONLY
 27 .sopcinfo     000677b7  00000000  00000000  0004d113  2**0
                  CONTENTS, READONLY
SYMBOL TABLE:
00800000 l    d  .entry	00000000 .entry
00800020 l    d  .exceptions	00000000 .exceptions
00800244 l    d  .text	00000000 .text
0080d50c l    d  .rodata	00000000 .rodata
0080d8e8 l    d  .rwdata	00000000 .rwdata
00811198 l    d  .bss	00000000 .bss
008112f0 l    d  .sdram	00000000 .sdram
01008000 l    d  .onchip_mem	00000000 .onchip_mem
00000000 l    d  .comment	00000000 .comment
00000000 l    d  .debug_aranges	00000000 .debug_aranges
00000000 l    d  .debug_info	00000000 .debug_info
00000000 l    d  .debug_abbrev	00000000 .debug_abbrev
00000000 l    d  .debug_line	00000000 .debug_line
00000000 l    d  .debug_frame	00000000 .debug_frame
00000000 l    d  .debug_str	00000000 .debug_str
00000000 l    d  .debug_loc	00000000 .debug_loc
00000000 l    d  .debug_alt_sim_info	00000000 .debug_alt_sim_info
00000000 l    d  .debug_ranges	00000000 .debug_ranges
00000000 l    df *ABS*	00000000 ../cs303_bsp//obj/HAL/src/crt0.o
0080028c l       .text	00000000 alt_after_alt_main
00000000 l    df *ABS*	00000000 alt_irq_handler.c
00000000 l    df *ABS*	00000000 alt_instruction_exception_entry.c
00000000 l    df *ABS*	00000000 hello_world.c
00000000 l    df *ABS*	00000000 pacemaker.c
00000000 l    df *ABS*	00000000 adddf3.c
00000000 l    df *ABS*	00000000 gedf2.c
00000000 l    df *ABS*	00000000 ledf2.c
00000000 l    df *ABS*	00000000 subdf3.c
00000000 l    df *ABS*	00000000 floatsidf.c
00000000 l    df *ABS*	00000000 libgcc2.c
00000000 l    df *ABS*	00000000 libgcc2.c
00000000 l    df *ABS*	00000000 puts.c
00000000 l    df *ABS*	00000000 strlen.c
00000000 l    df *ABS*	00000000 findfp.c
00806790 l     F .text	00000008 __fp_unlock
008067a4 l     F .text	0000019c __sinit.part.1
00806940 l     F .text	00000008 __fp_lock
00000000 l    df *ABS*	00000000 fvwrite.c
00000000 l    df *ABS*	00000000 fwalk.c
00000000 l    df *ABS*	00000000 impure.c
0080d8e8 l     O .rwdata	00000424 impure_data
00000000 l    df *ABS*	00000000 mallocr.c
00000000 l    df *ABS*	00000000 memchr.c
00000000 l    df *ABS*	00000000 memcpy.c
00000000 l    df *ABS*	00000000 memmove.c
00000000 l    df *ABS*	00000000 memset.c
00000000 l    df *ABS*	00000000 mallocr.c
00000000 l    df *ABS*	00000000 sbrkr.c
00000000 l    df *ABS*	00000000 stdio.c
00000000 l    df *ABS*	00000000 writer.c
00000000 l    df *ABS*	00000000 wsetup.c
00000000 l    df *ABS*	00000000 closer.c
00000000 l    df *ABS*	00000000 fclose.c
00000000 l    df *ABS*	00000000 fflush.c
00000000 l    df *ABS*	00000000 mallocr.c
00000000 l    df *ABS*	00000000 int_errno.c
00000000 l    df *ABS*	00000000 lseekr.c
00000000 l    df *ABS*	00000000 makebuf.c
00000000 l    df *ABS*	00000000 readr.c
00000000 l    df *ABS*	00000000 fstatr.c
00000000 l    df *ABS*	00000000 isattyr.c
00000000 l    df *ABS*	00000000 lib2-divmod.c
00000000 l    df *ABS*	00000000 alt_alarm_start.c
00000000 l    df *ABS*	00000000 alt_close.c
00809518 l     F .text	0000003c alt_get_errno
00000000 l    df *ABS*	00000000 alt_dev.c
00809624 l     F .text	0000002c alt_dev_null_write
00000000 l    df *ABS*	00000000 alt_errno.c
00000000 l    df *ABS*	00000000 alt_fstat.c
00809650 l     F .text	0000003c alt_get_errno
00000000 l    df *ABS*	00000000 alt_isatty.c
0080973c l     F .text	0000003c alt_get_errno
00000000 l    df *ABS*	00000000 alt_load.c
0080981c l     F .text	00000068 alt_load_section
00000000 l    df *ABS*	00000000 alt_lseek.c
00809908 l     F .text	0000003c alt_get_errno
00000000 l    df *ABS*	00000000 alt_main.c
00000000 l    df *ABS*	00000000 alt_malloc_lock.c
00000000 l    df *ABS*	00000000 alt_read.c
00809adc l     F .text	0000003c alt_get_errno
00000000 l    df *ABS*	00000000 alt_release_fd.c
00000000 l    df *ABS*	00000000 alt_sbrk.c
0080f528 l     O .rwdata	00000004 heap_end
00000000 l    df *ABS*	00000000 alt_tick.c
00000000 l    df *ABS*	00000000 alt_write.c
00809ecc l     F .text	0000003c alt_get_errno
00000000 l    df *ABS*	00000000 alt_sys_init.c
0080a000 l     F .text	00000034 alt_dev_reg
0080e2bc l     O .rwdata	00001060 jtag_uart
0080f31c l     O .rwdata	00000120 lcd
0080f43c l     O .rwdata	000000c4 uart
00000000 l    df *ABS*	00000000 altera_avalon_jtag_uart_fd.c
00000000 l    df *ABS*	00000000 altera_avalon_jtag_uart_init.c
0080a328 l     F .text	0000020c altera_avalon_jtag_uart_irq
0080a534 l     F .text	000000a0 altera_avalon_jtag_uart_timeout
00000000 l    df *ABS*	00000000 altera_avalon_jtag_uart_ioctl.c
00000000 l    df *ABS*	00000000 altera_avalon_jtag_uart_read.c
00000000 l    df *ABS*	00000000 altera_avalon_jtag_uart_write.c
00000000 l    df *ABS*	00000000 altera_avalon_lcd_16207.c
0080f534 l     O .rwdata	00000004 colstart
0080ab6c l     F .text	000000b8 lcd_write_command
0080ac24 l     F .text	000000d8 lcd_write_data
0080acfc l     F .text	000000d0 lcd_clear_screen
0080adcc l     F .text	000001ec lcd_repaint_screen
0080afb8 l     F .text	000000cc lcd_scroll_up
0080b084 l     F .text	000002ac lcd_handle_escape
0080b808 l     F .text	000000ac alt_lcd_16207_timeout
00000000 l    df *ABS*	00000000 altera_avalon_lcd_16207_fd.c
00000000 l    df *ABS*	00000000 altera_avalon_timer_sc.c
0080ba48 l     F .text	00000078 alt_avalon_timer_sc_irq
00000000 l    df *ABS*	00000000 altera_avalon_uart_fd.c
00000000 l    df *ABS*	00000000 altera_avalon_uart_init.c
0080bcf8 l     F .text	0000009c altera_avalon_uart_irq
0080bd94 l     F .text	000000e4 altera_avalon_uart_rxirq
0080be78 l     F .text	00000148 altera_avalon_uart_txirq
00000000 l    df *ABS*	00000000 altera_avalon_uart_read.c
0080c014 l     F .text	0000003c alt_get_errno
00000000 l    df *ABS*	00000000 altera_avalon_uart_write.c
0080c22c l     F .text	0000003c alt_get_errno
00000000 l    df *ABS*	00000000 alt_dcache_flush_all.c
00000000 l    df *ABS*	00000000 alt_dev_llist_insert.c
0080c45c l     F .text	0000003c alt_get_errno
00000000 l    df *ABS*	00000000 alt_do_ctors.c
00000000 l    df *ABS*	00000000 alt_do_dtors.c
00000000 l    df *ABS*	00000000 alt_icache_flush_all.c
00000000 l    df *ABS*	00000000 alt_iic.c
00000000 l    df *ABS*	00000000 alt_iic_isr_register.c
00000000 l    df *ABS*	00000000 alt_io_redirect.c
0080c8d0 l     F .text	000000c4 alt_open_fd
00000000 l    df *ABS*	00000000 alt_irq_vars.c
00000000 l    df *ABS*	00000000 alt_open.c
0080ca10 l     F .text	0000003c alt_get_errno
0080ca4c l     F .text	000000c4 alt_file_locked
00000000 l    df *ABS*	00000000 alt_usleep.c
00000000 l    df *ABS*	00000000 altera_nios2_gen2_irq.c
00000000 l    df *ABS*	00000000 alt_busy_sleep.c
00000000 l    df *ABS*	00000000 alt_find_dev.c
00000000 l    df *ABS*	00000000 alt_find_file.c
00000000 l    df *ABS*	00000000 alt_get_fd.c
00000000 l    df *ABS*	00000000 alt_icache_flush.c
00000000 l    df *ABS*	00000000 atexit.c
00000000 l    df *ABS*	00000000 ctype_.c
0080d767 l     O .rodata	00000180 _ctype_b
00000000 l    df *ABS*	00000000 exit.c
00000000 l    df *ABS*	00000000 memcmp.c
00000000 l    df *ABS*	00000000 __atexit.c
00000000 l    df *ABS*	00000000 __call_atexit.c
00000000 l    df *ABS*	00000000 alt_exit.c
008111c4 g     O .bss	00000004 alt_instruction_exception_handler
008091e4 g     F .text	00000054 _isatty_r
00809a18 g     F .text	0000007c alt_main
00806624 g     F .text	000000c0 _puts_r
008111f0 g     O .bss	00000100 alt_irq
00808f0c g     F .text	00000060 _lseek_r
0080f540 g       *ABS*	00000000 __flash_rwdata_start
008112f0 g       *ABS*	00000000 __alt_heap_start
008084c0 g     F .text	0000005c __sseek
00806ae0 g     F .text	00000010 __sinit
00806948 g     F .text	00000068 __sfmoreglue
00809ab8 g     F .text	00000024 __malloc_unlock
00807bac g     F .text	0000015c memmove
00806ac8 g     F .text	00000018 _cleanup
00805a18 g     F .text	000000dc .hidden __gtdf2
0080cc94 g     F .text	00000024 altera_nios2_gen2_irq_init
00800000 g     F .entry	0000001c __reset
00800020 g       *ABS*	00000000 __flash_exceptions_start
00809188 g     F .text	0000005c _fstat_r
008111a8 g     O .bss	00000004 errno
0080843c g     F .text	00000008 __seofread
008111b0 g     O .bss	00000004 alt_argv
00817500 g       *ABS*	00000000 _gp
0080cc64 g     F .text	00000030 usleep
00804d58 g     F .text	000001e8 reset
0080e13c g     O .rwdata	00000180 alt_fd_list
0080ce10 g     F .text	00000090 alt_find_dev
00807a64 g     F .text	00000148 memcpy
00806798 g     F .text	0000000c _cleanup_r
008064e4 g     F .text	000000dc .hidden __floatsidf
0080c994 g     F .text	0000007c alt_io_redirect
00805af4 g     F .text	000000f4 .hidden __ltdf2
0080d50c g       *ABS*	00000000 __DTOR_END__
008066e4 g     F .text	00000014 puts
0080d0dc g     F .text	0000009c alt_exception_cause_generated_bad_addr
0080a72c g     F .text	0000021c altera_avalon_jtag_uart_read
00809330 g     F .text	00000064 .hidden __udivsi3
00809778 g     F .text	000000a4 isatty
0080d04c g     F .text	00000090 alt_icache_flush
008111a4 g     O .bss	00000004 __malloc_top_pad
00806b30 g     F .text	000004bc __sfvwrite_r
00808394 g     F .text	00000054 _sbrk_r
00809128 g     F .text	00000060 _read_r
0080f520 g     O .rwdata	00000004 alt_max_fd
0080872c g     F .text	000000f0 _fclose_r
00808aa8 g     F .text	00000030 fflush
008111a0 g     O .bss	00000004 __malloc_max_sbrked_mem
0080516c g     F .text	000008ac .hidden __adddf3
00809944 g     F .text	000000d4 lseek
0080f500 g     O .rwdata	00000004 _global_impure_ptr
00807e30 g     F .text	00000564 _realloc_r
008112f0 g       *ABS*	00000000 __bss_end
0080c7e0 g     F .text	000000f0 alt_iic_isr_register
00809dc4 g     F .text	00000108 alt_tick
0080bc4c g     F .text	000000ac altera_avalon_uart_init
00806b00 g     F .text	00000018 __fp_lock_all
0080c794 g     F .text	0000004c alt_ic_irq_enabled
00809d28 g     F .text	0000009c alt_alarm_stop
008111c0 g     O .bss	00000004 alt_irq_active
01008000 g       *ABS*	00000000 __alt_mem_onchip_mem
008000fc g     F .exceptions	000000d4 alt_irq_handler
0080e114 g     O .rwdata	00000028 alt_dev_null
0080c414 g     F .text	00000048 alt_dcache_flush_all
0080f540 g       *ABS*	00000000 __ram_rwdata_end
0080f518 g     O .rwdata	00000008 alt_dev_list
00809f08 g     F .text	000000f8 write
0080d8e8 g       *ABS*	00000000 __ram_rodata_end
0080968c g     F .text	000000b0 fstat
00805af4 g     F .text	000000f4 .hidden __ledf2
00809394 g     F .text	00000058 .hidden __umodsi3
008112f0 g       *ABS*	00000000 end
0080b330 g     F .text	000004d8 altera_avalon_lcd_16207_write
0080c268 g     F .text	000001ac altera_avalon_uart_write
0080a268 g     F .text	000000c0 altera_avalon_jtag_uart_init
008001d0 g     F .exceptions	00000074 alt_instruction_exception_entry
0080d50c g       *ABS*	00000000 __CTOR_LIST__
01000000 g       *ABS*	00000000 __alt_stack_pointer
0080bac0 g     F .text	0000007c alt_avalon_timer_sc_init
0080bb9c g     F .text	00000060 altera_avalon_uart_write_fd
008065c0 g     F .text	00000064 .hidden __clzsi2
0080bbfc g     F .text	00000050 altera_avalon_uart_close_fd
0080a948 g     F .text	00000224 altera_avalon_jtag_uart_write
00806af0 g     F .text	00000004 __sfp_lock_acquire
00807980 g     F .text	000000e4 memchr
00808bfc g     F .text	00000310 _free_r
0080d358 g     F .text	00000180 __call_exitprocs
0080f508 g     O .rwdata	00000004 __malloc_sbrk_base
00800244 g     F .text	0000004c _start
008111b8 g     O .bss	00000004 _alt_tick_rate
008111bc g     O .bss	00000004 _alt_nticks
00809b18 g     F .text	000000fc read
0080a06c g     F .text	00000098 alt_sys_init
0080d240 g     F .text	00000118 __register_exitproc
0080a5d4 g     F .text	00000068 altera_avalon_jtag_uart_close
0080d8e8 g       *ABS*	00000000 __ram_rwdata_start
0080d50c g       *ABS*	00000000 __ram_rodata_start
008111c8 g     O .bss	00000028 __malloc_current_mallinfo
0080a104 g     F .text	00000060 altera_avalon_jtag_uart_read_fd
0080cfa8 g     F .text	000000a4 alt_get_fd
0080ccb8 g     F .text	00000158 alt_busy_sleep
008086d8 g     F .text	00000054 _close_r
0080d1c4 g     F .text	0000007c memcmp
0080a1c4 g     F .text	00000050 altera_avalon_jtag_uart_close_fd
008112f0 g       *ABS*	00000000 __alt_stack_base
0080a214 g     F .text	00000054 altera_avalon_jtag_uart_ioctl_fd
00808584 g     F .text	00000154 __swsetup_r
00804f40 g     F .text	0000022c tick
008069b0 g     F .text	00000118 __sfp
0080dd0c g     O .rwdata	00000408 __malloc_av_
00806afc g     F .text	00000004 __sinit_lock_release
008083e8 g     F .text	00000054 __sread
0080cea0 g     F .text	00000108 alt_find_file
0080c498 g     F .text	000000a4 alt_dev_llist_insert
00809a94 g     F .text	00000024 __malloc_lock
00809c78 g     F .text	000000b0 sbrk
00808a4c g     F .text	0000005c _fflush_r
00811198 g       *ABS*	00000000 __bss_start
00807d08 g     F .text	00000128 memset
008002bc g     F .text	00000144 main
008111b4 g     O .bss	00000004 alt_envp
0081119c g     O .bss	00000004 __malloc_max_total_mem
0080a164 g     F .text	00000060 altera_avalon_jtag_uart_write_fd
0080b8b4 g     F .text	00000134 altera_avalon_lcd_16207_init
0080851c g     F .text	00000008 __sclose
01000000 g       *ABS*	00000000 __alt_heap_limit
0080881c g     F .text	00000014 fclose
00807174 g     F .text	0000080c _malloc_r
0080f524 g     O .rwdata	00000004 alt_errno
00806fec g     F .text	000000c4 _fwalk
00809238 g     F .text	00000084 .hidden __divsi3
00808ad8 g     F .text	00000124 _malloc_trim_r
0080d50c g       *ABS*	00000000 __CTOR_END__
0080d50c g       *ABS*	00000000 __flash_rodata_start
0080d50c g       *ABS*	00000000 __DTOR_LIST__
0080a034 g     F .text	00000038 alt_irq_init
00809c14 g     F .text	00000064 alt_release_fd
0080d51b g     O .rodata	00000100 .hidden __clz_tab
0080d178 g     F .text	00000014 atexit
00808524 g     F .text	00000060 _write_r
0080f504 g     O .rwdata	00000004 _impure_ptr
008111ac g     O .bss	00000004 alt_argc
00808830 g     F .text	0000021c __sflush_r
0080c59c g     F .text	00000060 _do_dtors
00800020 g       .exceptions	00000000 alt_irq_entry
00806b18 g     F .text	00000018 __fp_unlock_all
0080b9e8 g     F .text	00000060 altera_avalon_lcd_16207_write_fd
0080f510 g     O .rwdata	00000008 alt_fs_list
00800020 g       *ABS*	00000000 __ram_exceptions_start
0080c630 g     F .text	00000050 alt_ic_isr_register
0080f540 g       *ABS*	00000000 _edata
0080bb3c g     F .text	00000060 altera_avalon_uart_read_fd
008112f0 g       *ABS*	00000000 _end
00800244 g       *ABS*	00000000 __ram_exceptions_end
0080a63c g     F .text	000000f0 altera_avalon_jtag_uart_ioctl
0080c708 g     F .text	0000008c alt_ic_irq_disable
00808444 g     F .text	0000007c __swrite
0080f50c g     O .rwdata	00000004 __malloc_trim_threshold
0080d18c g     F .text	00000038 exit
008070b0 g     F .text	000000c4 _fwalk_reent
008092bc g     F .text	00000074 .hidden __modsi3
00800400 g     F .text	00004958 logic
0080f53c g     O .rwdata	00000004 __ctype_ptr__
01000000 g       *ABS*	00000000 __alt_data_end
00800020 g     F .exceptions	00000000 alt_exception
00806af4 g     F .text	00000004 __sfp_lock_release
00800000 g       *ABS*	00000000 __alt_mem_sdram
0080d666 g     O .rodata	00000101 _ctype_
00800290 g     F .text	0000002c timer_isr_function
0080bfc0 g     F .text	00000054 altera_avalon_uart_close
0080d4d8 g     F .text	00000034 _exit
008093ec g     F .text	0000012c alt_alarm_start
00808f6c g     F .text	000001bc __smakebuf_r
008066f8 g     F .text	00000098 strlen
0080cb10 g     F .text	00000154 open
00805a18 g     F .text	000000dc .hidden __gedf2
0080c5fc g     F .text	00000034 alt_icache_flush_all
0080f538 g     O .rwdata	00000004 alt_priority_mask
00811198 g     O .bss	00000004 doTick
0080c680 g     F .text	00000088 alt_ic_irq_enable
0080c050 g     F .text	000001dc altera_avalon_uart_read
00805be8 g     F .text	000008fc .hidden __subdf3
0080f52c g     O .rwdata	00000008 alt_alarm_list
0080c53c g     F .text	00000060 _do_ctors
00809554 g     F .text	000000d0 close
00809884 g     F .text	00000084 alt_load
00806af8 g     F .text	00000004 __sinit_lock_acquire



Disassembly of section .entry:

00800000 <__reset>:
#if NIOS2_ICACHE_SIZE > 0 && defined(ALT_ALLOW_CODE_AT_RESET) && (!defined(ALT_SIM_OPTIMIZE) || defined(NIOS2_ECC_PRESENT))
    /* Assume the instruction cache size is always a power of two. */
#if NIOS2_ICACHE_SIZE > 0x8000
    movhi r2, %hi(NIOS2_ICACHE_SIZE)
#else
    movui r2, NIOS2_ICACHE_SIZE
  800000:	00840014 	movui	r2,4096
#endif

0:
    initi r2
  800004:	1001483a 	initi	r2
    addi r2, r2, -NIOS2_ICACHE_LINE_SIZE
  800008:	10bff804 	addi	r2,r2,-32
    bgt r2, zero, 0b
  80000c:	00bffd16 	blt	zero,r2,800004 <__alt_mem_onchip_mem+0xff7f8004>
 * Jump to the _start entry point in the .text section if reset code
 * is allowed or if optimizing for RTL simulation.
 */
#if defined(ALT_ALLOW_CODE_AT_RESET) || defined(ALT_SIM_OPTIMIZE)
    /* Jump to the _start entry point in the .text section. */
    movhi r1, %hi(_start)
  800010:	00402034 	movhi	at,128
    ori r1, r1, %lo(_start)
  800014:	08409114 	ori	at,at,580
    jmp r1
  800018:	0800683a 	jmp	at
  80001c:	00000000 	call	0 <__reset-0x800000>

Disassembly of section .exceptions:

00800020 <alt_exception>:

#else /* ALT_EXCEPTION_STACK disabled */
        /* 
         * Reserve space on normal stack for registers about to be pushed.
         */
        addi  sp, sp, -76
  800020:	deffed04 	addi	sp,sp,-76
         * documentation for details).
         *
         * Leave a gap in the stack frame at 4(sp) for the muldiv handler to
         * store zero into.
         */
        stw   ra,  0(sp)
  800024:	dfc00015 	stw	ra,0(sp)
        stw   r1,   8(sp)
  800028:	d8400215 	stw	at,8(sp)
        stw   r2,  12(sp)
  80002c:	d8800315 	stw	r2,12(sp)
        stw   r3,  16(sp)
  800030:	d8c00415 	stw	r3,16(sp)
        stw   r4,  20(sp)
  800034:	d9000515 	stw	r4,20(sp)
        stw   r5,  24(sp)
  800038:	d9400615 	stw	r5,24(sp)
        stw   r6,  28(sp)
  80003c:	d9800715 	stw	r6,28(sp)
        stw   r7,  32(sp)
  800040:	d9c00815 	stw	r7,32(sp)
        rdctl r5, estatus   /* Read early to avoid usage stall */
  800044:	000b307a 	rdctl	r5,estatus
        stw   r8,  36(sp)
  800048:	da000915 	stw	r8,36(sp)
        stw   r9,  40(sp)
  80004c:	da400a15 	stw	r9,40(sp)
        stw   r10, 44(sp)
  800050:	da800b15 	stw	r10,44(sp)
        stw   r11, 48(sp)
  800054:	dac00c15 	stw	r11,48(sp)
        stw   r12, 52(sp)
  800058:	db000d15 	stw	r12,52(sp)
        stw   r13, 56(sp)
  80005c:	db400e15 	stw	r13,56(sp)
        stw   r14, 60(sp)
  800060:	db800f15 	stw	r14,60(sp)
        stw   r15, 64(sp)
  800064:	dbc01015 	stw	r15,64(sp)
        /*
         * ea-4 contains the address of the instruction being executed
         * when the exception occured. For interrupt exceptions, we will
         * will be re-issue the isntruction. Store it in 72(sp)
         */
        stw   r5,  68(sp)  /* estatus */
  800068:	d9401115 	stw	r5,68(sp)
        addi  r15, ea, -4  /* instruction that caused exception */
  80006c:	ebffff04 	addi	r15,ea,-4
        stw   r15,  72(sp)
  800070:	dbc01215 	stw	r15,72(sp)
#else
        /*
         * Test to see if the exception was a software exception or caused 
         * by an external interrupt, and vector accordingly.
         */
        rdctl r4, ipending
  800074:	0009313a 	rdctl	r4,ipending
        andi  r2, r5, 1
  800078:	2880004c 	andi	r2,r5,1
        beq   r2, zero, .Lnot_irq
  80007c:	10000326 	beq	r2,zero,80008c <alt_exception+0x6c>
        beq   r4, zero, .Lnot_irq
  800080:	20000226 	beq	r4,zero,80008c <alt_exception+0x6c>
        /*
         * Now that all necessary registers have been preserved, call 
         * alt_irq_handler() to process the interrupts.
         */

        call alt_irq_handler
  800084:	08000fc0 	call	8000fc <alt_irq_handler>

        .section .exceptions.irqreturn, "xa"

        br    .Lexception_exit
  800088:	00000706 	br	8000a8 <alt_exception+0x88>
         * upon completion, so we write ea (address of instruction *after*
         * the one where the exception occured) into 72(sp). The actual
         * instruction that caused the exception is written in r2, which these
         * handlers will utilize.
         */
        stw ea, 72(sp) /* EA is PC+4 so will skip over instruction causing exception */
  80008c:	df401215 	stw	ea,72(sp)
.Lunknown_16bit:
        addi.n r4, r4, 2 /* Need PC+2 to skip over instruction causing exception */
        stw r4, 72(sp)

#else /* CDX is not Enabled and all instructions are 32bits */
        ldw r2, -4(ea) /* Instruction value that caused exception */
  800090:	e8bfff17 	ldw	r2,-4(ea)
         * debugger is present) or go into an infinite loop since the
         * handling behavior is undefined; in that case we will not return here.
         */

        /* Load exception-causing address as first argument (r4) */
        addi   r4, ea, -4
  800094:	e93fff04 	addi	r4,ea,-4

        /* Call the instruction-exception entry */
        call   alt_instruction_exception_entry
  800098:	08001d00 	call	8001d0 <alt_instruction_exception_entry>
         * instruction
         *
         * Return code was 0: Skip. The instruction after the exception is
         * already stored in 72(sp).
         */
        bne   r2, r0, .Lexception_exit
  80009c:	1000021e 	bne	r2,zero,8000a8 <alt_exception+0x88>

        /*
         * Otherwise, modify 72(sp) to re-issue the instruction that caused the
         * exception.
         */
        addi  r15, ea, -4  /* instruction that caused exception */
  8000a0:	ebffff04 	addi	r15,ea,-4
        stw   r15,  72(sp)
  8000a4:	dbc01215 	stw	r15,72(sp)
        /* 
         * Restore the saved registers, so that all general purpose registers 
         * have been restored to their state at the time the interrupt occured.
         */

        ldw   r5,  68(sp)
  8000a8:	d9401117 	ldw	r5,68(sp)
        ldw   ea,  72(sp)  /* This becomes the PC once eret is executed */
  8000ac:	df401217 	ldw	ea,72(sp)
        ldw   ra,   0(sp)
  8000b0:	dfc00017 	ldw	ra,0(sp)

        wrctl estatus, r5
  8000b4:	2801707a 	wrctl	estatus,r5

        ldw   r1,   8(sp)
  8000b8:	d8400217 	ldw	at,8(sp)
        ldw   r2,  12(sp)
  8000bc:	d8800317 	ldw	r2,12(sp)
        ldw   r3,  16(sp)
  8000c0:	d8c00417 	ldw	r3,16(sp)
        ldw   r4,  20(sp)
  8000c4:	d9000517 	ldw	r4,20(sp)
        ldw   r5,  24(sp)
  8000c8:	d9400617 	ldw	r5,24(sp)
        ldw   r6,  28(sp)
  8000cc:	d9800717 	ldw	r6,28(sp)
        ldw   r7,  32(sp)
  8000d0:	d9c00817 	ldw	r7,32(sp)

#if defined(ALT_EXCEPTION_STACK) && defined(ALT_STACK_CHECK)
        ldw   et, %gprel(alt_exception_old_stack_limit)(gp)
#endif

        ldw   r8,  36(sp)
  8000d4:	da000917 	ldw	r8,36(sp)
        ldw   r9,  40(sp)
  8000d8:	da400a17 	ldw	r9,40(sp)
        ldw   r10, 44(sp)
  8000dc:	da800b17 	ldw	r10,44(sp)
        ldw   r11, 48(sp)
  8000e0:	dac00c17 	ldw	r11,48(sp)
        ldw   r12, 52(sp)
  8000e4:	db000d17 	ldw	r12,52(sp)
        ldw   r13, 56(sp)
  8000e8:	db400e17 	ldw	r13,56(sp)
        ldw   r14, 60(sp)
  8000ec:	db800f17 	ldw	r14,60(sp)
        ldw   r15, 64(sp)
  8000f0:	dbc01017 	ldw	r15,64(sp)
        stw   et, %gprel(alt_stack_limit_value)(gp)
        stw   zero, %gprel(alt_exception_old_stack_limit)(gp)
#endif /* ALT_STACK_CHECK */
        ldw   sp,  76(sp)
#else /* ALT_EXCEPTION_STACK disabled */
        addi  sp, sp, 76
  8000f4:	dec01304 	addi	sp,sp,76

        /*
         * Return to the interrupted instruction.
         */

        eret
  8000f8:	ef80083a 	eret

008000fc <alt_irq_handler>:
 * instruction is present if the macro ALT_CI_INTERRUPT_VECTOR defined.
 */

void alt_irq_handler (void) __attribute__ ((section (".exceptions")));
void alt_irq_handler (void)
{
  8000fc:	defff904 	addi	sp,sp,-28
  800100:	dfc00615 	stw	ra,24(sp)
  800104:	df000515 	stw	fp,20(sp)
  800108:	df000504 	addi	fp,sp,20
  
  /*
   * Notify the operating system that we are at interrupt level.
   */ 
  
  ALT_OS_INT_ENTER();
  80010c:	0001883a 	nop
#ifndef NIOS2_EIC_PRESENT
static ALT_INLINE alt_u32 ALT_ALWAYS_INLINE alt_irq_pending (void)
{
  alt_u32 active;

  NIOS2_READ_IPENDING (active);
  800110:	0005313a 	rdctl	r2,ipending
  800114:	e0bffe15 	stw	r2,-8(fp)

  return active;
  800118:	e0bffe17 	ldw	r2,-8(fp)
   * Consider the case where the high priority interupt is asserted during
   * the interrupt entry sequence for a lower priority interrupt to see why
   * this is the case.
   */

  active = alt_irq_pending ();
  80011c:	e0bffb15 	stw	r2,-20(fp)

  do
  {
    i = 0;
  800120:	e03ffd15 	stw	zero,-12(fp)
    mask = 1;
  800124:	00800044 	movi	r2,1
  800128:	e0bffc15 	stw	r2,-16(fp)
     * called to clear the interrupt condition.
     */

    do
    {
      if (active & mask)
  80012c:	e0fffb17 	ldw	r3,-20(fp)
  800130:	e0bffc17 	ldw	r2,-16(fp)
  800134:	1884703a 	and	r2,r3,r2
  800138:	10001426 	beq	r2,zero,80018c <alt_irq_handler+0x90>
      { 
#ifdef ALT_ENHANCED_INTERRUPT_API_PRESENT
        alt_irq[i].handler(alt_irq[i].context); 
  80013c:	00802074 	movhi	r2,129
  800140:	10847c04 	addi	r2,r2,4592
  800144:	e0fffd17 	ldw	r3,-12(fp)
  800148:	180690fa 	slli	r3,r3,3
  80014c:	10c5883a 	add	r2,r2,r3
  800150:	10c00017 	ldw	r3,0(r2)
  800154:	00802074 	movhi	r2,129
  800158:	10847c04 	addi	r2,r2,4592
  80015c:	e13ffd17 	ldw	r4,-12(fp)
  800160:	200890fa 	slli	r4,r4,3
  800164:	1105883a 	add	r2,r2,r4
  800168:	10800104 	addi	r2,r2,4
  80016c:	10800017 	ldw	r2,0(r2)
  800170:	1009883a 	mov	r4,r2
  800174:	183ee83a 	callr	r3
#else
        alt_irq[i].handler(alt_irq[i].context, i); 
#endif
        break;
  800178:	0001883a 	nop
#ifndef NIOS2_EIC_PRESENT
static ALT_INLINE alt_u32 ALT_ALWAYS_INLINE alt_irq_pending (void)
{
  alt_u32 active;

  NIOS2_READ_IPENDING (active);
  80017c:	0005313a 	rdctl	r2,ipending
  800180:	e0bfff15 	stw	r2,-4(fp)

  return active;
  800184:	e0bfff17 	ldw	r2,-4(fp)
  800188:	00000706 	br	8001a8 <alt_irq_handler+0xac>
      }
      mask <<= 1;
  80018c:	e0bffc17 	ldw	r2,-16(fp)
  800190:	1085883a 	add	r2,r2,r2
  800194:	e0bffc15 	stw	r2,-16(fp)
      i++;
  800198:	e0bffd17 	ldw	r2,-12(fp)
  80019c:	10800044 	addi	r2,r2,1
  8001a0:	e0bffd15 	stw	r2,-12(fp)

    } while (1);
  8001a4:	003fe106 	br	80012c <__alt_mem_onchip_mem+0xff7f812c>

    active = alt_irq_pending ();
  8001a8:	e0bffb15 	stw	r2,-20(fp)
    
  } while (active);
  8001ac:	e0bffb17 	ldw	r2,-20(fp)
  8001b0:	103fdb1e 	bne	r2,zero,800120 <__alt_mem_onchip_mem+0xff7f8120>

  /*
   * Notify the operating system that interrupt processing is complete.
   */ 

  ALT_OS_INT_EXIT();
  8001b4:	0001883a 	nop
}
  8001b8:	0001883a 	nop
  8001bc:	e037883a 	mov	sp,fp
  8001c0:	dfc00117 	ldw	ra,4(sp)
  8001c4:	df000017 	ldw	fp,0(sp)
  8001c8:	dec00204 	addi	sp,sp,8
  8001cc:	f800283a 	ret

008001d0 <alt_instruction_exception_entry>:
 * that handler if it has been registered. Absent a handler, it will
 * break break or hang as discussed below.
 */
int 
alt_instruction_exception_entry (alt_u32 exception_pc)
{
  8001d0:	defffb04 	addi	sp,sp,-20
  8001d4:	dfc00415 	stw	ra,16(sp)
  8001d8:	df000315 	stw	fp,12(sp)
  8001dc:	df000304 	addi	fp,sp,12
  8001e0:	e13fff15 	stw	r4,-4(fp)
 * NIOS2_EXCEPTION_CAUSE_NOT_PRESENT. Your handling routine should
 * check the validity of the cause argument before proceeding.
 */
#ifdef NIOS2_HAS_EXTRA_EXCEPTION_INFO
  /* Get exception cause & "badaddr" */
  NIOS2_READ_EXCEPTION(cause);
  8001e4:	000531fa 	rdctl	r2,exception
  8001e8:	e0bffd15 	stw	r2,-12(fp)
  cause = ( (cause & NIOS2_EXCEPTION_REG_CAUSE_MASK) >>
  8001ec:	e0bffd17 	ldw	r2,-12(fp)
  8001f0:	10801f0c 	andi	r2,r2,124
  8001f4:	1004d0ba 	srli	r2,r2,2
  8001f8:	e0bffd15 	stw	r2,-12(fp)
              NIOS2_EXCEPTION_REG_CAUSE_OFST );

  NIOS2_READ_BADADDR(badaddr);
  8001fc:	0005333a 	rdctl	r2,badaddr
  800200:	e0bffe15 	stw	r2,-8(fp)
#else
  cause = NIOS2_EXCEPTION_CAUSE_NOT_PRESENT;
  badaddr = 0;
#endif /* NIOS2_HAS_EXTRA_EXCEPTION_INFO */

  if(alt_instruction_exception_handler) {
  800204:	d0a73117 	ldw	r2,-25404(gp)
  800208:	10000726 	beq	r2,zero,800228 <alt_instruction_exception_entry+0x58>
     * Call handler. Its return value indicates whether the exception-causing
     * instruction should be re-issued. The code that called us,
     * alt_eceptions_entry.S, will look at this value and adjust the ea
     * register as necessary
     */
    return alt_instruction_exception_handler(cause, exception_pc, badaddr);
  80020c:	d0a73117 	ldw	r2,-25404(gp)
  800210:	e0fffd17 	ldw	r3,-12(fp)
  800214:	e1bffe17 	ldw	r6,-8(fp)
  800218:	e17fff17 	ldw	r5,-4(fp)
  80021c:	1809883a 	mov	r4,r3
  800220:	103ee83a 	callr	r2
  800224:	00000206 	br	800230 <alt_instruction_exception_entry+0x60>
   *    (a peripheral which negates its interrupt output before its
   *    interrupt handler has been executed will cause spurious interrupts)
   */
  else {
#ifdef NIOS2_HAS_DEBUG_STUB
    NIOS2_BREAK();
  800228:	003da03a 	break	0
      ;
#endif /* NIOS2_HAS_DEBUG_STUB */
  }

  /* We should not get here. Remove compiler warning. */
  return NIOS2_EXCEPTION_RETURN_REISSUE_INST;
  80022c:	0005883a 	mov	r2,zero
}
  800230:	e037883a 	mov	sp,fp
  800234:	dfc00117 	ldw	ra,4(sp)
  800238:	df000017 	ldw	fp,0(sp)
  80023c:	dec00204 	addi	sp,sp,8
  800240:	f800283a 	ret

Disassembly of section .text:

00800244 <_start>:

    /* Assume the data cache size is always a power of two. */
#if NIOS2_DCACHE_SIZE > 0x8000
    movhi r2, %hi(NIOS2_DCACHE_SIZE)
#else
    movui r2, NIOS2_DCACHE_SIZE
  800244:	00820014 	movui	r2,2048
#endif

0:
    initd 0(r2)
  800248:	10000033 	initd	0(r2)
#ifdef NIOS2_ECC_PRESENT
    addi r2, r2, -4
#else
    addi r2, r2, -NIOS2_DCACHE_LINE_SIZE
  80024c:	10bff804 	addi	r2,r2,-32
#endif
    bgt r2, zero, 0b
  800250:	00bffd16 	blt	zero,r2,800248 <__alt_mem_onchip_mem+0xff7f8248>

    /*
     * Now that the caches are initialized, set up the stack pointer and global pointer.
     * The values provided by the linker are assumed to be correctly aligned.
     */
    movhi sp, %hi(__alt_stack_pointer)
  800254:	06c04034 	movhi	sp,256
    ori sp, sp, %lo(__alt_stack_pointer)
  800258:	dec00014 	ori	sp,sp,0
    movhi gp, %hi(_gp)
  80025c:	06802074 	movhi	gp,129
    ori gp, gp, %lo(_gp)
  800260:	d69d4014 	ori	gp,gp,29952
 */
#ifndef ALT_SIM_OPTIMIZE
    /* Log that the BSS is about to be cleared. */
    ALT_LOG_PUTS(alt_log_msg_bss)

    movhi r2, %hi(__bss_start)
  800264:	00802074 	movhi	r2,129
    ori r2, r2, %lo(__bss_start)
  800268:	10846614 	ori	r2,r2,4504

    movhi r3, %hi(__bss_end)
  80026c:	00c02074 	movhi	r3,129
    ori r3, r3, %lo(__bss_end)
  800270:	18c4bc14 	ori	r3,r3,4848

    beq r2, r3, 1f
  800274:	10c00326 	beq	r2,r3,800284 <_start+0x40>

0:
    stw zero, (r2)
  800278:	10000015 	stw	zero,0(r2)
    addi r2, r2, 4
  80027c:	10800104 	addi	r2,r2,4
    bltu r2, r3, 0b
  800280:	10fffd36 	bltu	r2,r3,800278 <__alt_mem_onchip_mem+0xff7f8278>
     * section aren't defined until alt_load() has been called).
     */
    mov   et, zero
#endif

    call alt_load
  800284:	08098840 	call	809884 <alt_load>

    /* Log that alt_main is about to be called. */
    ALT_LOG_PUTS(alt_log_msg_alt_main)

    /* Call the C entry point. It should never return. */
    call alt_main
  800288:	0809a180 	call	809a18 <alt_main>

0080028c <alt_after_alt_main>:

    /* Wait in infinite loop in case alt_main does return. */
alt_after_alt_main:
    br alt_after_alt_main
  80028c:	003fff06 	br	80028c <__alt_mem_onchip_mem+0xff7f828c>

00800290 <timer_isr_function>:
#include <sys/alt_irq.h>
#include "pacemaker.h"

int doTick = 0;
// Timer ISR
alt_u32 timer_isr_function(void* context) {
  800290:	defffe04 	addi	sp,sp,-8
  800294:	df000115 	stw	fp,4(sp)
  800298:	df000104 	addi	fp,sp,4
  80029c:	e13fff15 	stw	r4,-4(fp)
	doTick = 1;
  8002a0:	00800044 	movi	r2,1
  8002a4:	d0a72615 	stw	r2,-25448(gp)
	return 10; // Set the timer to trigger every 10ms
  8002a8:	00800284 	movi	r2,10
}
  8002ac:	e037883a 	mov	sp,fp
  8002b0:	df000017 	ldw	fp,0(sp)
  8002b4:	dec00104 	addi	sp,sp,4
  8002b8:	f800283a 	ret

008002bc <main>:


int main(){
  8002bc:	deffa604 	addi	sp,sp,-360
  8002c0:	dfc05915 	stw	ra,356(sp)
  8002c4:	df005815 	stw	fp,352(sp)
  8002c8:	df005804 	addi	fp,sp,352

	TickData model;//create the struct
	reset(&model);//call reset function
  8002cc:	e13fa804 	addi	r4,fp,-352
  8002d0:	0804d580 	call	804d58 <reset>
	alt_alarm timer;// TIMER
	alt_alarm_start(&timer, 10, timer_isr_function, NULL);//start the timer, with timeout of 100 milli-seconds
  8002d4:	e0bffa04 	addi	r2,fp,-24
  8002d8:	000f883a 	mov	r7,zero
  8002dc:	01802034 	movhi	r6,128
  8002e0:	3180a404 	addi	r6,r6,656
  8002e4:	01400284 	movi	r5,10
  8002e8:	1009883a 	mov	r4,r2
  8002ec:	08093ec0 	call	8093ec <alt_alarm_start>


	while (1) {
		if(doTick) {
  8002f0:	d0a72617 	ldw	r2,-25448(gp)
  8002f4:	103ffe26 	beq	r2,zero,8002f0 <__alt_mem_onchip_mem+0xff7f82f0>
			doTick = 0;
  8002f8:	d0272615 	stw	zero,-25448(gp)
			// input readings
			model.AS = (((~IORD_ALTERA_AVALON_PIO_DATA(KEYS_BASE)) & 0x2) >> 1);
  8002fc:	00804074 	movhi	r2,257
  800300:	10842804 	addi	r2,r2,4256
  800304:	10800037 	ldwio	r2,0(r2)
  800308:	0084303a 	nor	r2,zero,r2
  80030c:	1080008c 	andi	r2,r2,2
  800310:	1005d07a 	srai	r2,r2,1
  800314:	e0bfbf05 	stb	r2,-260(fp)
			model.VS = ((~IORD_ALTERA_AVALON_PIO_DATA(KEYS_BASE)) & 0x1);
  800318:	00804074 	movhi	r2,257
  80031c:	10842804 	addi	r2,r2,4256
  800320:	10800037 	ldwio	r2,0(r2)
  800324:	1080004c 	andi	r2,r2,1
  800328:	1005003a 	cmpeq	r2,r2,zero
  80032c:	e0bfbf45 	stb	r2,-259(fp)

			if(model.AS) {
  800330:	e0bfbf03 	ldbu	r2,-260(fp)
  800334:	10803fcc 	andi	r2,r2,255
  800338:	1080201c 	xori	r2,r2,128
  80033c:	10bfe004 	addi	r2,r2,-128
  800340:	10000326 	beq	r2,zero,800350 <main+0x94>
				printf("AS\n");
  800344:	01002074 	movhi	r4,129
  800348:	21354304 	addi	r4,r4,-10996
  80034c:	08066e40 	call	8066e4 <puts>
			}
			if(model.VS) {
  800350:	e0bfbf43 	ldbu	r2,-259(fp)
  800354:	10803fcc 	andi	r2,r2,255
  800358:	1080201c 	xori	r2,r2,128
  80035c:	10bfe004 	addi	r2,r2,-128
  800360:	10000326 	beq	r2,zero,800370 <main+0xb4>
				printf("VS\n");
  800364:	01002074 	movhi	r4,129
  800368:	21354404 	addi	r4,r4,-10992
  80036c:	08066e40 	call	8066e4 <puts>
			}

			model.deltaT = 10;
  800370:	e03fbb15 	stw	zero,-276(fp)
  800374:	00900934 	movhi	r2,16420
  800378:	e0bfbc15 	stw	r2,-272(fp)

			tick(&model);//call tick function
  80037c:	e13fa804 	addi	r4,fp,-352
  800380:	0804f400 	call	804f40 <tick>

			if(model.AP) {
  800384:	e0bfbf83 	ldbu	r2,-258(fp)
  800388:	10803fcc 	andi	r2,r2,255
  80038c:	1080201c 	xori	r2,r2,128
  800390:	10bfe004 	addi	r2,r2,-128
  800394:	10000826 	beq	r2,zero,8003b8 <main+0xfc>
				printf("AP\n");
  800398:	01002074 	movhi	r4,129
  80039c:	21354504 	addi	r4,r4,-10988
  8003a0:	08066e40 	call	8066e4 <puts>
				IOWR_ALTERA_AVALON_PIO_DATA(LEDS_GREEN_BASE, 0b10);
  8003a4:	00c00084 	movi	r3,2
  8003a8:	00804074 	movhi	r2,257
  8003ac:	10841c04 	addi	r2,r2,4208
  8003b0:	10c00035 	stwio	r3,0(r2)
  8003b4:	003fce06 	br	8002f0 <__alt_mem_onchip_mem+0xff7f82f0>
			}
			else if(model.VP) {
  8003b8:	e0bfbfc3 	ldbu	r2,-257(fp)
  8003bc:	10803fcc 	andi	r2,r2,255
  8003c0:	1080201c 	xori	r2,r2,128
  8003c4:	10bfe004 	addi	r2,r2,-128
  8003c8:	10000826 	beq	r2,zero,8003ec <main+0x130>
				printf("VP\n");
  8003cc:	01002074 	movhi	r4,129
  8003d0:	21354604 	addi	r4,r4,-10984
  8003d4:	08066e40 	call	8066e4 <puts>
				IOWR_ALTERA_AVALON_PIO_DATA(LEDS_GREEN_BASE, 0b01);
  8003d8:	00c00044 	movi	r3,1
  8003dc:	00804074 	movhi	r2,257
  8003e0:	10841c04 	addi	r2,r2,4208
  8003e4:	10c00035 	stwio	r3,0(r2)
  8003e8:	003fc106 	br	8002f0 <__alt_mem_onchip_mem+0xff7f82f0>
			}
			else {
				IOWR_ALTERA_AVALON_PIO_DATA(LEDS_GREEN_BASE, 0b00);
  8003ec:	0007883a 	mov	r3,zero
  8003f0:	00804074 	movhi	r2,257
  8003f4:	10841c04 	addi	r2,r2,4208
  8003f8:	10c00035 	stwio	r3,0(r2)
			}
		}
	}
  8003fc:	003fbc06 	br	8002f0 <__alt_mem_onchip_mem+0xff7f82f0>

00800400 <logic>:
#include "timing.h"
#include <stdio.h>

#include "pacemaker.h"

void logic(TickData* d) {
  800400:	defffa04 	addi	sp,sp,-24
  800404:	dfc00515 	stw	ra,20(sp)
  800408:	df000415 	stw	fp,16(sp)
  80040c:	dc800315 	stw	r18,12(sp)
  800410:	dc400215 	stw	r17,8(sp)
  800414:	dc000115 	stw	r16,4(sp)
  800418:	df000404 	addi	fp,sp,16
  80041c:	e13ffc15 	stw	r4,-16(fp)
  d->AP = 0;
  800420:	e0bffc17 	ldw	r2,-16(fp)
  800424:	10001785 	stb	zero,94(r2)
  d->VP = 0;
  800428:	e0bffc17 	ldw	r2,-16(fp)
  80042c:	100017c5 	stb	zero,95(r2)
  d->V_event = 0;
  800430:	e0bffc17 	ldw	r2,-16(fp)
  800434:	10001805 	stb	zero,96(r2)
  d->VR = 0;
  800438:	e0bffc17 	ldw	r2,-16(fp)
  80043c:	10001845 	stb	zero,97(r2)
  d->A_event = 0;
  800440:	e0bffc17 	ldw	r2,-16(fp)
  800444:	10001885 	stb	zero,98(r2)
  d->AR = 0;
  800448:	e0bffc17 	ldw	r2,-16(fp)
  80044c:	100018c5 	stb	zero,99(r2)
  d->_g170 = d->_pg139;
  800450:	e0bffc17 	ldw	r2,-16(fp)
  800454:	10c04a43 	ldbu	r3,297(r2)
  800458:	e0bffc17 	ldw	r2,-16(fp)
  80045c:	10c03845 	stb	r3,225(r2)
  if (d->_g170) {
  800460:	e0bffc17 	ldw	r2,-16(fp)
  800464:	10803843 	ldbu	r2,225(r2)
  800468:	10803fcc 	andi	r2,r2,255
  80046c:	1080201c 	xori	r2,r2,128
  800470:	10bfe004 	addi	r2,r2,-128
  800474:	10001226 	beq	r2,zero,8004c0 <logic+0xc0>
    d->_region2_VRP_timer_t += d->deltaT;
  800478:	e13ffc17 	ldw	r4,-16(fp)
  80047c:	20800b17 	ldw	r2,44(r4)
  800480:	20c00c17 	ldw	r3,48(r4)
  800484:	e1bffc17 	ldw	r6,-16(fp)
  800488:	31001317 	ldw	r4,76(r6)
  80048c:	31401417 	ldw	r5,80(r6)
  800490:	200d883a 	mov	r6,r4
  800494:	280f883a 	mov	r7,r5
  800498:	1009883a 	mov	r4,r2
  80049c:	180b883a 	mov	r5,r3
  8004a0:	080516c0 	call	80516c <__adddf3>
  8004a4:	1009883a 	mov	r4,r2
  8004a8:	180b883a 	mov	r5,r3
  8004ac:	2005883a 	mov	r2,r4
  8004b0:	2807883a 	mov	r3,r5
  8004b4:	e13ffc17 	ldw	r4,-16(fp)
  8004b8:	20800b15 	stw	r2,44(r4)
  8004bc:	20c00c15 	stw	r3,48(r4)
  }
  d->_pre_VP = d->_reg_VP;
  8004c0:	e0bffc17 	ldw	r2,-16(fp)
  8004c4:	10c01903 	ldbu	r3,100(r2)
  8004c8:	e0bffc17 	ldw	r2,-16(fp)
  8004cc:	10c01945 	stb	r3,101(r2)
  d->_g55 = d->_pg64_e1;
  8004d0:	e0bffc17 	ldw	r2,-16(fp)
  8004d4:	10c04a83 	ldbu	r3,298(r2)
  8004d8:	e0bffc17 	ldw	r2,-16(fp)
  8004dc:	10c02645 	stb	r3,153(r2)
  d->_cg55 = d->VS || d->_pre_VP;
  8004e0:	e0bffc17 	ldw	r2,-16(fp)
  8004e4:	10801743 	ldbu	r2,93(r2)
  8004e8:	10803fcc 	andi	r2,r2,255
  8004ec:	1080201c 	xori	r2,r2,128
  8004f0:	10bfe004 	addi	r2,r2,-128
  8004f4:	1000061e 	bne	r2,zero,800510 <logic+0x110>
  8004f8:	e0bffc17 	ldw	r2,-16(fp)
  8004fc:	10801943 	ldbu	r2,101(r2)
  800500:	10803fcc 	andi	r2,r2,255
  800504:	1080201c 	xori	r2,r2,128
  800508:	10bfe004 	addi	r2,r2,-128
  80050c:	10000226 	beq	r2,zero,800518 <logic+0x118>
  800510:	00800044 	movi	r2,1
  800514:	00000106 	br	80051c <logic+0x11c>
  800518:	0005883a 	mov	r2,zero
  80051c:	1007883a 	mov	r3,r2
  800520:	e0bffc17 	ldw	r2,-16(fp)
  800524:	10c03e05 	stb	r3,248(r2)
  d->_g56 = d->_g55 && d->_cg55;
  800528:	e0bffc17 	ldw	r2,-16(fp)
  80052c:	10802643 	ldbu	r2,153(r2)
  800530:	10803fcc 	andi	r2,r2,255
  800534:	1080201c 	xori	r2,r2,128
  800538:	10bfe004 	addi	r2,r2,-128
  80053c:	10000826 	beq	r2,zero,800560 <logic+0x160>
  800540:	e0bffc17 	ldw	r2,-16(fp)
  800544:	10803e03 	ldbu	r2,248(r2)
  800548:	10803fcc 	andi	r2,r2,255
  80054c:	1080201c 	xori	r2,r2,128
  800550:	10bfe004 	addi	r2,r2,-128
  800554:	10000226 	beq	r2,zero,800560 <logic+0x160>
  800558:	00800044 	movi	r2,1
  80055c:	00000106 	br	800564 <logic+0x164>
  800560:	0005883a 	mov	r2,zero
  800564:	1007883a 	mov	r3,r2
  800568:	e0bffc17 	ldw	r2,-16(fp)
  80056c:	10c02685 	stb	r3,154(r2)
  if (d->_g56) {
  800570:	e0bffc17 	ldw	r2,-16(fp)
  800574:	10802683 	ldbu	r2,154(r2)
  800578:	10803fcc 	andi	r2,r2,255
  80057c:	1080201c 	xori	r2,r2,128
  800580:	10bfe004 	addi	r2,r2,-128
  800584:	10000926 	beq	r2,zero,8005ac <logic+0x1ac>
    d->_region2_VRP_timer_t = 0;
  800588:	e0bffc17 	ldw	r2,-16(fp)
  80058c:	10000b15 	stw	zero,44(r2)
  800590:	10000c15 	stw	zero,48(r2)
    d->V_event |= 1;
  800594:	e0bffc17 	ldw	r2,-16(fp)
  800598:	10801803 	ldbu	r2,96(r2)
  80059c:	10800054 	ori	r2,r2,1
  8005a0:	1007883a 	mov	r3,r2
  8005a4:	e0bffc17 	ldw	r2,-16(fp)
  8005a8:	10c01805 	stb	r3,96(r2)
  }
  d->_g17 = d->_pg8;
  8005ac:	e0bffc17 	ldw	r2,-16(fp)
  8005b0:	10c04ac3 	ldbu	r3,299(r2)
  8005b4:	e0bffc17 	ldw	r2,-16(fp)
  8005b8:	10c01f85 	stb	r3,126(r2)
  d->_cg17 = d->V_event;
  8005bc:	e0bffc17 	ldw	r2,-16(fp)
  8005c0:	10c01803 	ldbu	r3,96(r2)
  8005c4:	e0bffc17 	ldw	r2,-16(fp)
  8005c8:	10c03ac5 	stb	r3,235(r2)
  d->_g18 = d->_g17 && d->_cg17;
  8005cc:	e0bffc17 	ldw	r2,-16(fp)
  8005d0:	10801f83 	ldbu	r2,126(r2)
  8005d4:	10803fcc 	andi	r2,r2,255
  8005d8:	1080201c 	xori	r2,r2,128
  8005dc:	10bfe004 	addi	r2,r2,-128
  8005e0:	10000826 	beq	r2,zero,800604 <logic+0x204>
  8005e4:	e0bffc17 	ldw	r2,-16(fp)
  8005e8:	10803ac3 	ldbu	r2,235(r2)
  8005ec:	10803fcc 	andi	r2,r2,255
  8005f0:	1080201c 	xori	r2,r2,128
  8005f4:	10bfe004 	addi	r2,r2,-128
  8005f8:	10000226 	beq	r2,zero,800604 <logic+0x204>
  8005fc:	00800044 	movi	r2,1
  800600:	00000106 	br	800608 <logic+0x208>
  800604:	0005883a 	mov	r2,zero
  800608:	1007883a 	mov	r3,r2
  80060c:	e0bffc17 	ldw	r2,-16(fp)
  800610:	10c01fc5 	stb	r3,127(r2)
  if (d->_g18) {
  800614:	e0bffc17 	ldw	r2,-16(fp)
  800618:	10801fc3 	ldbu	r2,127(r2)
  80061c:	10803fcc 	andi	r2,r2,255
  800620:	1080201c 	xori	r2,r2,128
  800624:	10bfe004 	addi	r2,r2,-128
  800628:	10000326 	beq	r2,zero,800638 <logic+0x238>
    d->_Pacemaker_local__Atrig = 1;
  80062c:	e0bffc17 	ldw	r2,-16(fp)
  800630:	00c00044 	movi	r3,1
  800634:	10c01a05 	stb	r3,104(r2)
  }
  d->_g182 = d->_pg150;
  800638:	e0bffc17 	ldw	r2,-16(fp)
  80063c:	10c04b03 	ldbu	r3,300(r2)
  800640:	e0bffc17 	ldw	r2,-16(fp)
  800644:	10c03885 	stb	r3,226(r2)
  if (d->_g182) {
  800648:	e0bffc17 	ldw	r2,-16(fp)
  80064c:	10803883 	ldbu	r2,226(r2)
  800650:	10803fcc 	andi	r2,r2,255
  800654:	1080201c 	xori	r2,r2,128
  800658:	10bfe004 	addi	r2,r2,-128
  80065c:	10001226 	beq	r2,zero,8006a8 <logic+0x2a8>
    d->_region5_URI_timer_t += d->deltaT;
  800660:	e13ffc17 	ldw	r4,-16(fp)
  800664:	20801117 	ldw	r2,68(r4)
  800668:	20c01217 	ldw	r3,72(r4)
  80066c:	e1bffc17 	ldw	r6,-16(fp)
  800670:	31001317 	ldw	r4,76(r6)
  800674:	31401417 	ldw	r5,80(r6)
  800678:	200d883a 	mov	r6,r4
  80067c:	280f883a 	mov	r7,r5
  800680:	1009883a 	mov	r4,r2
  800684:	180b883a 	mov	r5,r3
  800688:	080516c0 	call	80516c <__adddf3>
  80068c:	1009883a 	mov	r4,r2
  800690:	180b883a 	mov	r5,r3
  800694:	2005883a 	mov	r2,r4
  800698:	2807883a 	mov	r3,r5
  80069c:	e13ffc17 	ldw	r4,-16(fp)
  8006a0:	20801115 	stw	r2,68(r4)
  8006a4:	20c01215 	stw	r3,72(r4)
  }
  d->_g131 = d->_pg117;
  8006a8:	e0bffc17 	ldw	r2,-16(fp)
  8006ac:	10c04b43 	ldbu	r3,301(r2)
  8006b0:	e0bffc17 	ldw	r2,-16(fp)
  8006b4:	10c033c5 	stb	r3,207(r2)
  d->_cg131 = d->V_event;
  8006b8:	e0bffc17 	ldw	r2,-16(fp)
  8006bc:	10c01803 	ldbu	r3,96(r2)
  8006c0:	e0bffc17 	ldw	r2,-16(fp)
  8006c4:	10c04485 	stb	r3,274(r2)
  d->_g132 = d->_g131 && d->_cg131;
  8006c8:	e0bffc17 	ldw	r2,-16(fp)
  8006cc:	108033c3 	ldbu	r2,207(r2)
  8006d0:	10803fcc 	andi	r2,r2,255
  8006d4:	1080201c 	xori	r2,r2,128
  8006d8:	10bfe004 	addi	r2,r2,-128
  8006dc:	10000826 	beq	r2,zero,800700 <logic+0x300>
  8006e0:	e0bffc17 	ldw	r2,-16(fp)
  8006e4:	10804483 	ldbu	r2,274(r2)
  8006e8:	10803fcc 	andi	r2,r2,255
  8006ec:	1080201c 	xori	r2,r2,128
  8006f0:	10bfe004 	addi	r2,r2,-128
  8006f4:	10000226 	beq	r2,zero,800700 <logic+0x300>
  8006f8:	00800044 	movi	r2,1
  8006fc:	00000106 	br	800704 <logic+0x304>
  800700:	0005883a 	mov	r2,zero
  800704:	1007883a 	mov	r3,r2
  800708:	e0bffc17 	ldw	r2,-16(fp)
  80070c:	10c03405 	stb	r3,208(r2)
  if (d->_g132) {
  800710:	e0bffc17 	ldw	r2,-16(fp)
  800714:	10803403 	ldbu	r2,208(r2)
  800718:	10803fcc 	andi	r2,r2,255
  80071c:	1080201c 	xori	r2,r2,128
  800720:	10bfe004 	addi	r2,r2,-128
  800724:	10000626 	beq	r2,zero,800740 <logic+0x340>
    d->_region5_URI_timer_t = 0;
  800728:	e0bffc17 	ldw	r2,-16(fp)
  80072c:	10001115 	stw	zero,68(r2)
  800730:	10001215 	stw	zero,72(r2)
    d->inside_URI = 1;
  800734:	e0bffc17 	ldw	r2,-16(fp)
  800738:	00c00044 	movi	r3,1
  80073c:	10c00005 	stb	r3,0(r2)
  }
  d->_g143 = d->_pg152;
  800740:	e0bffc17 	ldw	r2,-16(fp)
  800744:	10c04b83 	ldbu	r3,302(r2)
  800748:	e0bffc17 	ldw	r2,-16(fp)
  80074c:	10c035c5 	stb	r3,215(r2)
  d->_g137 = d->_pg131;
  800750:	e0bffc17 	ldw	r2,-16(fp)
  800754:	10c04bc3 	ldbu	r3,303(r2)
  800758:	e0bffc17 	ldw	r2,-16(fp)
  80075c:	10c03485 	stb	r3,210(r2)
  d->_g140_e1 = !(d->_g143 || d->_g137);
  800760:	e0bffc17 	ldw	r2,-16(fp)
  800764:	108035c3 	ldbu	r2,215(r2)
  800768:	10803fcc 	andi	r2,r2,255
  80076c:	1080201c 	xori	r2,r2,128
  800770:	10bfe004 	addi	r2,r2,-128
  800774:	1000081e 	bne	r2,zero,800798 <logic+0x398>
  800778:	e0bffc17 	ldw	r2,-16(fp)
  80077c:	10803483 	ldbu	r2,210(r2)
  800780:	10803fcc 	andi	r2,r2,255
  800784:	1080201c 	xori	r2,r2,128
  800788:	10bfe004 	addi	r2,r2,-128
  80078c:	1000021e 	bne	r2,zero,800798 <logic+0x398>
  800790:	00800044 	movi	r2,1
  800794:	00000106 	br	80079c <logic+0x39c>
  800798:	0005883a 	mov	r2,zero
  80079c:	1007883a 	mov	r3,r2
  8007a0:	e0bffc17 	ldw	r2,-16(fp)
  8007a4:	10c04985 	stb	r3,294(r2)
  d->_g147 = d->_pg153;
  8007a8:	e0bffc17 	ldw	r2,-16(fp)
  8007ac:	10c04c03 	ldbu	r3,304(r2)
  8007b0:	e0bffc17 	ldw	r2,-16(fp)
  8007b4:	10c03645 	stb	r3,217(r2)
  d->_cg147 = d->V_event;
  8007b8:	e0bffc17 	ldw	r2,-16(fp)
  8007bc:	10c01803 	ldbu	r3,96(r2)
  8007c0:	e0bffc17 	ldw	r2,-16(fp)
  8007c4:	10c04685 	stb	r3,282(r2)
  d->_g148 = d->_g147 && d->_cg147;
  8007c8:	e0bffc17 	ldw	r2,-16(fp)
  8007cc:	10803643 	ldbu	r2,217(r2)
  8007d0:	10803fcc 	andi	r2,r2,255
  8007d4:	1080201c 	xori	r2,r2,128
  8007d8:	10bfe004 	addi	r2,r2,-128
  8007dc:	10000826 	beq	r2,zero,800800 <logic+0x400>
  8007e0:	e0bffc17 	ldw	r2,-16(fp)
  8007e4:	10804683 	ldbu	r2,282(r2)
  8007e8:	10803fcc 	andi	r2,r2,255
  8007ec:	1080201c 	xori	r2,r2,128
  8007f0:	10bfe004 	addi	r2,r2,-128
  8007f4:	10000226 	beq	r2,zero,800800 <logic+0x400>
  8007f8:	00800044 	movi	r2,1
  8007fc:	00000106 	br	800804 <logic+0x404>
  800800:	0005883a 	mov	r2,zero
  800804:	1007883a 	mov	r3,r2
  800808:	e0bffc17 	ldw	r2,-16(fp)
  80080c:	10c03685 	stb	r3,218(r2)
  if (d->_g148) {
  800810:	e0bffc17 	ldw	r2,-16(fp)
  800814:	10803683 	ldbu	r2,218(r2)
  800818:	10803fcc 	andi	r2,r2,255
  80081c:	1080201c 	xori	r2,r2,128
  800820:	10bfe004 	addi	r2,r2,-128
  800824:	10000326 	beq	r2,zero,800834 <logic+0x434>
    d->_Pacemaker_local__Atrig10 = 1;
  800828:	e0bffc17 	ldw	r2,-16(fp)
  80082c:	00c00044 	movi	r3,1
  800830:	10c01c85 	stb	r3,114(r2)
  }
  d->_g150 = d->_g147 && !d->_cg147;
  800834:	e0bffc17 	ldw	r2,-16(fp)
  800838:	10803643 	ldbu	r2,217(r2)
  80083c:	10803fcc 	andi	r2,r2,255
  800840:	1080201c 	xori	r2,r2,128
  800844:	10bfe004 	addi	r2,r2,-128
  800848:	10000826 	beq	r2,zero,80086c <logic+0x46c>
  80084c:	e0bffc17 	ldw	r2,-16(fp)
  800850:	10804683 	ldbu	r2,282(r2)
  800854:	10803fcc 	andi	r2,r2,255
  800858:	1080201c 	xori	r2,r2,128
  80085c:	10bfe004 	addi	r2,r2,-128
  800860:	1000021e 	bne	r2,zero,80086c <logic+0x46c>
  800864:	00800044 	movi	r2,1
  800868:	00000106 	br	800870 <logic+0x470>
  80086c:	0005883a 	mov	r2,zero
  800870:	1007883a 	mov	r3,r2
  800874:	e0bffc17 	ldw	r2,-16(fp)
  800878:	10c03705 	stb	r3,220(r2)
  d->_cg150 = d->_region5_URI_timer_t >= d->URI_Constraint;
  80087c:	e0bffc17 	ldw	r2,-16(fp)
  800880:	14001117 	ldw	r16,68(r2)
  800884:	14401217 	ldw	r17,72(r2)
  800888:	e0bffc17 	ldw	r2,-16(fp)
  80088c:	10800617 	ldw	r2,24(r2)
  800890:	1009883a 	mov	r4,r2
  800894:	08064e40 	call	8064e4 <__floatsidf>
  800898:	1009883a 	mov	r4,r2
  80089c:	180b883a 	mov	r5,r3
  8008a0:	04800044 	movi	r18,1
  8008a4:	200d883a 	mov	r6,r4
  8008a8:	280f883a 	mov	r7,r5
  8008ac:	8009883a 	mov	r4,r16
  8008b0:	880b883a 	mov	r5,r17
  8008b4:	0805a180 	call	805a18 <__gedf2>
  8008b8:	1000010e 	bge	r2,zero,8008c0 <logic+0x4c0>
  8008bc:	0025883a 	mov	r18,zero
  8008c0:	9007883a 	mov	r3,r18
  8008c4:	e0bffc17 	ldw	r2,-16(fp)
  8008c8:	10c04645 	stb	r3,281(r2)
  d->_g151 = d->_g150 && d->_cg150;
  8008cc:	e0bffc17 	ldw	r2,-16(fp)
  8008d0:	10803703 	ldbu	r2,220(r2)
  8008d4:	10803fcc 	andi	r2,r2,255
  8008d8:	1080201c 	xori	r2,r2,128
  8008dc:	10bfe004 	addi	r2,r2,-128
  8008e0:	10000826 	beq	r2,zero,800904 <logic+0x504>
  8008e4:	e0bffc17 	ldw	r2,-16(fp)
  8008e8:	10804643 	ldbu	r2,281(r2)
  8008ec:	10803fcc 	andi	r2,r2,255
  8008f0:	1080201c 	xori	r2,r2,128
  8008f4:	10bfe004 	addi	r2,r2,-128
  8008f8:	10000226 	beq	r2,zero,800904 <logic+0x504>
  8008fc:	00800044 	movi	r2,1
  800900:	00000106 	br	800908 <logic+0x508>
  800904:	0005883a 	mov	r2,zero
  800908:	1007883a 	mov	r3,r2
  80090c:	e0bffc17 	ldw	r2,-16(fp)
  800910:	10c03745 	stb	r3,221(r2)
  if (d->_g151) {
  800914:	e0bffc17 	ldw	r2,-16(fp)
  800918:	10803743 	ldbu	r2,221(r2)
  80091c:	10803fcc 	andi	r2,r2,255
  800920:	1080201c 	xori	r2,r2,128
  800924:	10bfe004 	addi	r2,r2,-128
  800928:	10000326 	beq	r2,zero,800938 <logic+0x538>
    d->_Pacemaker_local__Atrig11 = 1;
  80092c:	e0bffc17 	ldw	r2,-16(fp)
  800930:	00c00044 	movi	r3,1
  800934:	10c01cc5 	stb	r3,115(r2)
  }
  d->sleepT = 1000.0;
  800938:	e0fffc17 	ldw	r3,-16(fp)
  80093c:	18001515 	stw	zero,84(r3)
  800940:	009023f4 	movhi	r2,16527
  800944:	10900004 	addi	r2,r2,16384
  800948:	18801615 	stw	r2,88(r3)
  d->_g143 = d->_g137 || d->_g143;
  80094c:	e0bffc17 	ldw	r2,-16(fp)
  800950:	10803483 	ldbu	r2,210(r2)
  800954:	10803fcc 	andi	r2,r2,255
  800958:	1080201c 	xori	r2,r2,128
  80095c:	10bfe004 	addi	r2,r2,-128
  800960:	1000061e 	bne	r2,zero,80097c <logic+0x57c>
  800964:	e0bffc17 	ldw	r2,-16(fp)
  800968:	108035c3 	ldbu	r2,215(r2)
  80096c:	10803fcc 	andi	r2,r2,255
  800970:	1080201c 	xori	r2,r2,128
  800974:	10bfe004 	addi	r2,r2,-128
  800978:	10000226 	beq	r2,zero,800984 <logic+0x584>
  80097c:	00800044 	movi	r2,1
  800980:	00000106 	br	800988 <logic+0x588>
  800984:	0005883a 	mov	r2,zero
  800988:	1007883a 	mov	r3,r2
  80098c:	e0bffc17 	ldw	r2,-16(fp)
  800990:	10c035c5 	stb	r3,215(r2)
  d->_cg138 = d->_region5_URI_timer_t < d->URI_Constraint;
  800994:	e0bffc17 	ldw	r2,-16(fp)
  800998:	14001117 	ldw	r16,68(r2)
  80099c:	14401217 	ldw	r17,72(r2)
  8009a0:	e0bffc17 	ldw	r2,-16(fp)
  8009a4:	10800617 	ldw	r2,24(r2)
  8009a8:	1009883a 	mov	r4,r2
  8009ac:	08064e40 	call	8064e4 <__floatsidf>
  8009b0:	1009883a 	mov	r4,r2
  8009b4:	180b883a 	mov	r5,r3
  8009b8:	04800044 	movi	r18,1
  8009bc:	200d883a 	mov	r6,r4
  8009c0:	280f883a 	mov	r7,r5
  8009c4:	8009883a 	mov	r4,r16
  8009c8:	880b883a 	mov	r5,r17
  8009cc:	0805af40 	call	805af4 <__ledf2>
  8009d0:	10000116 	blt	r2,zero,8009d8 <logic+0x5d8>
  8009d4:	0025883a 	mov	r18,zero
  8009d8:	9007883a 	mov	r3,r18
  8009dc:	e0bffc17 	ldw	r2,-16(fp)
  8009e0:	10c04585 	stb	r3,278(r2)
  d->_g137 = d->_g143 && d->_cg138;
  8009e4:	e0bffc17 	ldw	r2,-16(fp)
  8009e8:	108035c3 	ldbu	r2,215(r2)
  8009ec:	10803fcc 	andi	r2,r2,255
  8009f0:	1080201c 	xori	r2,r2,128
  8009f4:	10bfe004 	addi	r2,r2,-128
  8009f8:	10000826 	beq	r2,zero,800a1c <logic+0x61c>
  8009fc:	e0bffc17 	ldw	r2,-16(fp)
  800a00:	10804583 	ldbu	r2,278(r2)
  800a04:	10803fcc 	andi	r2,r2,255
  800a08:	1080201c 	xori	r2,r2,128
  800a0c:	10bfe004 	addi	r2,r2,-128
  800a10:	10000226 	beq	r2,zero,800a1c <logic+0x61c>
  800a14:	00800044 	movi	r2,1
  800a18:	00000106 	br	800a20 <logic+0x620>
  800a1c:	0005883a 	mov	r2,zero
  800a20:	1007883a 	mov	r3,r2
  800a24:	e0bffc17 	ldw	r2,-16(fp)
  800a28:	10c03485 	stb	r3,210(r2)
  if (d->_g137) {
  800a2c:	e0bffc17 	ldw	r2,-16(fp)
  800a30:	10803483 	ldbu	r2,210(r2)
  800a34:	10803fcc 	andi	r2,r2,255
  800a38:	1080201c 	xori	r2,r2,128
  800a3c:	10bfe004 	addi	r2,r2,-128
  800a40:	10003426 	beq	r2,zero,800b14 <logic+0x714>
    d->sleepT = (d->sleepT < (d->URI_Constraint - d->_region5_URI_timer_t)) ? d->sleepT : (d->URI_Constraint - d->_region5_URI_timer_t);
  800a44:	e0bffc17 	ldw	r2,-16(fp)
  800a48:	14001517 	ldw	r16,84(r2)
  800a4c:	14401617 	ldw	r17,88(r2)
  800a50:	e0bffc17 	ldw	r2,-16(fp)
  800a54:	10800617 	ldw	r2,24(r2)
  800a58:	1009883a 	mov	r4,r2
  800a5c:	08064e40 	call	8064e4 <__floatsidf>
  800a60:	1011883a 	mov	r8,r2
  800a64:	1813883a 	mov	r9,r3
  800a68:	e13ffc17 	ldw	r4,-16(fp)
  800a6c:	20801117 	ldw	r2,68(r4)
  800a70:	20c01217 	ldw	r3,72(r4)
  800a74:	100d883a 	mov	r6,r2
  800a78:	180f883a 	mov	r7,r3
  800a7c:	4009883a 	mov	r4,r8
  800a80:	480b883a 	mov	r5,r9
  800a84:	0805be80 	call	805be8 <__subdf3>
  800a88:	1009883a 	mov	r4,r2
  800a8c:	180b883a 	mov	r5,r3
  800a90:	2005883a 	mov	r2,r4
  800a94:	2807883a 	mov	r3,r5
  800a98:	100d883a 	mov	r6,r2
  800a9c:	180f883a 	mov	r7,r3
  800aa0:	8009883a 	mov	r4,r16
  800aa4:	880b883a 	mov	r5,r17
  800aa8:	0805af40 	call	805af4 <__ledf2>
  800aac:	1000040e 	bge	r2,zero,800ac0 <logic+0x6c0>
  800ab0:	e13ffc17 	ldw	r4,-16(fp)
  800ab4:	20801517 	ldw	r2,84(r4)
  800ab8:	20c01617 	ldw	r3,88(r4)
  800abc:	00001206 	br	800b08 <logic+0x708>
  800ac0:	e0bffc17 	ldw	r2,-16(fp)
  800ac4:	10800617 	ldw	r2,24(r2)
  800ac8:	1009883a 	mov	r4,r2
  800acc:	08064e40 	call	8064e4 <__floatsidf>
  800ad0:	1011883a 	mov	r8,r2
  800ad4:	1813883a 	mov	r9,r3
  800ad8:	e13ffc17 	ldw	r4,-16(fp)
  800adc:	20801117 	ldw	r2,68(r4)
  800ae0:	20c01217 	ldw	r3,72(r4)
  800ae4:	100d883a 	mov	r6,r2
  800ae8:	180f883a 	mov	r7,r3
  800aec:	4009883a 	mov	r4,r8
  800af0:	480b883a 	mov	r5,r9
  800af4:	0805be80 	call	805be8 <__subdf3>
  800af8:	1009883a 	mov	r4,r2
  800afc:	180b883a 	mov	r5,r3
  800b00:	2005883a 	mov	r2,r4
  800b04:	2807883a 	mov	r3,r5
  800b08:	e13ffc17 	ldw	r4,-16(fp)
  800b0c:	20801515 	stw	r2,84(r4)
  800b10:	20c01615 	stw	r3,88(r4)
  }
  d->_cg139 = d->_Pacemaker_local__Atrig10 || d->_Pacemaker_local__Atrig11;
  800b14:	e0bffc17 	ldw	r2,-16(fp)
  800b18:	10801c83 	ldbu	r2,114(r2)
  800b1c:	10803fcc 	andi	r2,r2,255
  800b20:	1080201c 	xori	r2,r2,128
  800b24:	10bfe004 	addi	r2,r2,-128
  800b28:	1000061e 	bne	r2,zero,800b44 <logic+0x744>
  800b2c:	e0bffc17 	ldw	r2,-16(fp)
  800b30:	10801cc3 	ldbu	r2,115(r2)
  800b34:	10803fcc 	andi	r2,r2,255
  800b38:	1080201c 	xori	r2,r2,128
  800b3c:	10bfe004 	addi	r2,r2,-128
  800b40:	10000226 	beq	r2,zero,800b4c <logic+0x74c>
  800b44:	00800044 	movi	r2,1
  800b48:	00000106 	br	800b50 <logic+0x750>
  800b4c:	0005883a 	mov	r2,zero
  800b50:	1007883a 	mov	r3,r2
  800b54:	e0bffc17 	ldw	r2,-16(fp)
  800b58:	10c04545 	stb	r3,277(r2)
  d->_g138 = d->_g143 && !d->_cg138;
  800b5c:	e0bffc17 	ldw	r2,-16(fp)
  800b60:	108035c3 	ldbu	r2,215(r2)
  800b64:	10803fcc 	andi	r2,r2,255
  800b68:	1080201c 	xori	r2,r2,128
  800b6c:	10bfe004 	addi	r2,r2,-128
  800b70:	10000826 	beq	r2,zero,800b94 <logic+0x794>
  800b74:	e0bffc17 	ldw	r2,-16(fp)
  800b78:	10804583 	ldbu	r2,278(r2)
  800b7c:	10803fcc 	andi	r2,r2,255
  800b80:	1080201c 	xori	r2,r2,128
  800b84:	10bfe004 	addi	r2,r2,-128
  800b88:	1000021e 	bne	r2,zero,800b94 <logic+0x794>
  800b8c:	00800044 	movi	r2,1
  800b90:	00000106 	br	800b98 <logic+0x798>
  800b94:	0005883a 	mov	r2,zero
  800b98:	1007883a 	mov	r3,r2
  800b9c:	e0bffc17 	ldw	r2,-16(fp)
  800ba0:	10c034c5 	stb	r3,211(r2)
  d->_cg141 = d->_Pacemaker_local__Atrig10 || d->_Pacemaker_local__Atrig11;
  800ba4:	e0bffc17 	ldw	r2,-16(fp)
  800ba8:	10801c83 	ldbu	r2,114(r2)
  800bac:	10803fcc 	andi	r2,r2,255
  800bb0:	1080201c 	xori	r2,r2,128
  800bb4:	10bfe004 	addi	r2,r2,-128
  800bb8:	1000061e 	bne	r2,zero,800bd4 <logic+0x7d4>
  800bbc:	e0bffc17 	ldw	r2,-16(fp)
  800bc0:	10801cc3 	ldbu	r2,115(r2)
  800bc4:	10803fcc 	andi	r2,r2,255
  800bc8:	1080201c 	xori	r2,r2,128
  800bcc:	10bfe004 	addi	r2,r2,-128
  800bd0:	10000226 	beq	r2,zero,800bdc <logic+0x7dc>
  800bd4:	00800044 	movi	r2,1
  800bd8:	00000106 	br	800be0 <logic+0x7e0>
  800bdc:	0005883a 	mov	r2,zero
  800be0:	1007883a 	mov	r3,r2
  800be4:	e0bffc17 	ldw	r2,-16(fp)
  800be8:	10c045c5 	stb	r3,279(r2)
  d->_g140 = d->_g137 && d->_cg139 || d->_g138 && d->_cg141;
  800bec:	e0bffc17 	ldw	r2,-16(fp)
  800bf0:	10803483 	ldbu	r2,210(r2)
  800bf4:	10803fcc 	andi	r2,r2,255
  800bf8:	1080201c 	xori	r2,r2,128
  800bfc:	10bfe004 	addi	r2,r2,-128
  800c00:	10000626 	beq	r2,zero,800c1c <logic+0x81c>
  800c04:	e0bffc17 	ldw	r2,-16(fp)
  800c08:	10804543 	ldbu	r2,277(r2)
  800c0c:	10803fcc 	andi	r2,r2,255
  800c10:	1080201c 	xori	r2,r2,128
  800c14:	10bfe004 	addi	r2,r2,-128
  800c18:	10000c1e 	bne	r2,zero,800c4c <logic+0x84c>
  800c1c:	e0bffc17 	ldw	r2,-16(fp)
  800c20:	108034c3 	ldbu	r2,211(r2)
  800c24:	10803fcc 	andi	r2,r2,255
  800c28:	1080201c 	xori	r2,r2,128
  800c2c:	10bfe004 	addi	r2,r2,-128
  800c30:	10000826 	beq	r2,zero,800c54 <logic+0x854>
  800c34:	e0bffc17 	ldw	r2,-16(fp)
  800c38:	108045c3 	ldbu	r2,279(r2)
  800c3c:	10803fcc 	andi	r2,r2,255
  800c40:	1080201c 	xori	r2,r2,128
  800c44:	10bfe004 	addi	r2,r2,-128
  800c48:	10000226 	beq	r2,zero,800c54 <logic+0x854>
  800c4c:	00800044 	movi	r2,1
  800c50:	00000106 	br	800c58 <logic+0x858>
  800c54:	0005883a 	mov	r2,zero
  800c58:	1007883a 	mov	r3,r2
  800c5c:	e0bffc17 	ldw	r2,-16(fp)
  800c60:	10c03545 	stb	r3,213(r2)
  d->_g147 = !d->_g147;
  800c64:	e0bffc17 	ldw	r2,-16(fp)
  800c68:	10803643 	ldbu	r2,217(r2)
  800c6c:	10803fcc 	andi	r2,r2,255
  800c70:	1080201c 	xori	r2,r2,128
  800c74:	10bfe004 	addi	r2,r2,-128
  800c78:	1005003a 	cmpeq	r2,r2,zero
  800c7c:	1007883a 	mov	r3,r2
  800c80:	e0bffc17 	ldw	r2,-16(fp)
  800c84:	10c03645 	stb	r3,217(r2)
  d->_g151 = d->_g148 || d->_g151;
  800c88:	e0bffc17 	ldw	r2,-16(fp)
  800c8c:	10803683 	ldbu	r2,218(r2)
  800c90:	10803fcc 	andi	r2,r2,255
  800c94:	1080201c 	xori	r2,r2,128
  800c98:	10bfe004 	addi	r2,r2,-128
  800c9c:	1000061e 	bne	r2,zero,800cb8 <logic+0x8b8>
  800ca0:	e0bffc17 	ldw	r2,-16(fp)
  800ca4:	10803743 	ldbu	r2,221(r2)
  800ca8:	10803fcc 	andi	r2,r2,255
  800cac:	1080201c 	xori	r2,r2,128
  800cb0:	10bfe004 	addi	r2,r2,-128
  800cb4:	10000226 	beq	r2,zero,800cc0 <logic+0x8c0>
  800cb8:	00800044 	movi	r2,1
  800cbc:	00000106 	br	800cc4 <logic+0x8c4>
  800cc0:	0005883a 	mov	r2,zero
  800cc4:	1007883a 	mov	r3,r2
  800cc8:	e0bffc17 	ldw	r2,-16(fp)
  800ccc:	10c03745 	stb	r3,221(r2)
  d->_g148 = (d->_g140_e1 || d->_g140) && (d->_g147 || d->_g151) && (d->_g140 || d->_g151);
  800cd0:	e0bffc17 	ldw	r2,-16(fp)
  800cd4:	10804983 	ldbu	r2,294(r2)
  800cd8:	10803fcc 	andi	r2,r2,255
  800cdc:	1080201c 	xori	r2,r2,128
  800ce0:	10bfe004 	addi	r2,r2,-128
  800ce4:	1000061e 	bne	r2,zero,800d00 <logic+0x900>
  800ce8:	e0bffc17 	ldw	r2,-16(fp)
  800cec:	10803543 	ldbu	r2,213(r2)
  800cf0:	10803fcc 	andi	r2,r2,255
  800cf4:	1080201c 	xori	r2,r2,128
  800cf8:	10bfe004 	addi	r2,r2,-128
  800cfc:	10001a26 	beq	r2,zero,800d68 <logic+0x968>
  800d00:	e0bffc17 	ldw	r2,-16(fp)
  800d04:	10803643 	ldbu	r2,217(r2)
  800d08:	10803fcc 	andi	r2,r2,255
  800d0c:	1080201c 	xori	r2,r2,128
  800d10:	10bfe004 	addi	r2,r2,-128
  800d14:	1000061e 	bne	r2,zero,800d30 <logic+0x930>
  800d18:	e0bffc17 	ldw	r2,-16(fp)
  800d1c:	10803743 	ldbu	r2,221(r2)
  800d20:	10803fcc 	andi	r2,r2,255
  800d24:	1080201c 	xori	r2,r2,128
  800d28:	10bfe004 	addi	r2,r2,-128
  800d2c:	10000e26 	beq	r2,zero,800d68 <logic+0x968>
  800d30:	e0bffc17 	ldw	r2,-16(fp)
  800d34:	10803543 	ldbu	r2,213(r2)
  800d38:	10803fcc 	andi	r2,r2,255
  800d3c:	1080201c 	xori	r2,r2,128
  800d40:	10bfe004 	addi	r2,r2,-128
  800d44:	1000061e 	bne	r2,zero,800d60 <logic+0x960>
  800d48:	e0bffc17 	ldw	r2,-16(fp)
  800d4c:	10803743 	ldbu	r2,221(r2)
  800d50:	10803fcc 	andi	r2,r2,255
  800d54:	1080201c 	xori	r2,r2,128
  800d58:	10bfe004 	addi	r2,r2,-128
  800d5c:	10000226 	beq	r2,zero,800d68 <logic+0x968>
  800d60:	00800044 	movi	r2,1
  800d64:	00000106 	br	800d6c <logic+0x96c>
  800d68:	0005883a 	mov	r2,zero
  800d6c:	1007883a 	mov	r3,r2
  800d70:	e0bffc17 	ldw	r2,-16(fp)
  800d74:	10c03685 	stb	r3,218(r2)
  d->_cg152 = d->_Pacemaker_local__Atrig10;
  800d78:	e0bffc17 	ldw	r2,-16(fp)
  800d7c:	10c01c83 	ldbu	r3,114(r2)
  800d80:	e0bffc17 	ldw	r2,-16(fp)
  800d84:	10c046c5 	stb	r3,283(r2)
  d->_g149_e2 = d->_g148 && !d->_cg152;
  800d88:	e0bffc17 	ldw	r2,-16(fp)
  800d8c:	10803683 	ldbu	r2,218(r2)
  800d90:	10803fcc 	andi	r2,r2,255
  800d94:	1080201c 	xori	r2,r2,128
  800d98:	10bfe004 	addi	r2,r2,-128
  800d9c:	10000826 	beq	r2,zero,800dc0 <logic+0x9c0>
  800da0:	e0bffc17 	ldw	r2,-16(fp)
  800da4:	108046c3 	ldbu	r2,283(r2)
  800da8:	10803fcc 	andi	r2,r2,255
  800dac:	1080201c 	xori	r2,r2,128
  800db0:	10bfe004 	addi	r2,r2,-128
  800db4:	1000021e 	bne	r2,zero,800dc0 <logic+0x9c0>
  800db8:	00800044 	movi	r2,1
  800dbc:	00000106 	br	800dc4 <logic+0x9c4>
  800dc0:	0005883a 	mov	r2,zero
  800dc4:	1007883a 	mov	r3,r2
  800dc8:	e0bffc17 	ldw	r2,-16(fp)
  800dcc:	10c049c5 	stb	r3,295(r2)
  if (d->_g149_e2) {
  800dd0:	e0bffc17 	ldw	r2,-16(fp)
  800dd4:	108049c3 	ldbu	r2,295(r2)
  800dd8:	10803fcc 	andi	r2,r2,255
  800ddc:	1080201c 	xori	r2,r2,128
  800de0:	10bfe004 	addi	r2,r2,-128
  800de4:	10000226 	beq	r2,zero,800df0 <logic+0x9f0>
    d->inside_URI = 0;
  800de8:	e0bffc17 	ldw	r2,-16(fp)
  800dec:	10000005 	stb	zero,0(r2)
  }
  d->_g140_e1 = d->_pg132;
  800df0:	e0bffc17 	ldw	r2,-16(fp)
  800df4:	10c04c43 	ldbu	r3,305(r2)
  800df8:	e0bffc17 	ldw	r2,-16(fp)
  800dfc:	10c04985 	stb	r3,294(r2)
  if (d->_g140_e1) {
  800e00:	e0bffc17 	ldw	r2,-16(fp)
  800e04:	10804983 	ldbu	r2,294(r2)
  800e08:	10803fcc 	andi	r2,r2,255
  800e0c:	1080201c 	xori	r2,r2,128
  800e10:	10bfe004 	addi	r2,r2,-128
  800e14:	10001226 	beq	r2,zero,800e60 <logic+0xa60>
    d->_region0_AVI_timer_t += d->deltaT;
  800e18:	e13ffc17 	ldw	r4,-16(fp)
  800e1c:	20800717 	ldw	r2,28(r4)
  800e20:	20c00817 	ldw	r3,32(r4)
  800e24:	e1bffc17 	ldw	r6,-16(fp)
  800e28:	31001317 	ldw	r4,76(r6)
  800e2c:	31401417 	ldw	r5,80(r6)
  800e30:	200d883a 	mov	r6,r4
  800e34:	280f883a 	mov	r7,r5
  800e38:	1009883a 	mov	r4,r2
  800e3c:	180b883a 	mov	r5,r3
  800e40:	080516c0 	call	80516c <__adddf3>
  800e44:	1009883a 	mov	r4,r2
  800e48:	180b883a 	mov	r5,r3
  800e4c:	2005883a 	mov	r2,r4
  800e50:	2807883a 	mov	r3,r5
  800e54:	e13ffc17 	ldw	r4,-16(fp)
  800e58:	20800715 	stw	r2,28(r4)
  800e5c:	20c00815 	stw	r3,32(r4)
  }
  d->_g149 = d->_g17 && !d->_cg17;
  800e60:	e0bffc17 	ldw	r2,-16(fp)
  800e64:	10801f83 	ldbu	r2,126(r2)
  800e68:	10803fcc 	andi	r2,r2,255
  800e6c:	1080201c 	xori	r2,r2,128
  800e70:	10bfe004 	addi	r2,r2,-128
  800e74:	10000826 	beq	r2,zero,800e98 <logic+0xa98>
  800e78:	e0bffc17 	ldw	r2,-16(fp)
  800e7c:	10803ac3 	ldbu	r2,235(r2)
  800e80:	10803fcc 	andi	r2,r2,255
  800e84:	1080201c 	xori	r2,r2,128
  800e88:	10bfe004 	addi	r2,r2,-128
  800e8c:	1000021e 	bne	r2,zero,800e98 <logic+0xa98>
  800e90:	00800044 	movi	r2,1
  800e94:	00000106 	br	800e9c <logic+0xa9c>
  800e98:	0005883a 	mov	r2,zero
  800e9c:	1007883a 	mov	r3,r2
  800ea0:	e0bffc17 	ldw	r2,-16(fp)
  800ea4:	10c036c5 	stb	r3,219(r2)
  d->_cg20 = d->_region0_AVI_timer_t >= d->AVI_Constraint && !d->inside_URI;
  800ea8:	e0bffc17 	ldw	r2,-16(fp)
  800eac:	14000717 	ldw	r16,28(r2)
  800eb0:	14400817 	ldw	r17,32(r2)
  800eb4:	e0bffc17 	ldw	r2,-16(fp)
  800eb8:	10800117 	ldw	r2,4(r2)
  800ebc:	1009883a 	mov	r4,r2
  800ec0:	08064e40 	call	8064e4 <__floatsidf>
  800ec4:	1009883a 	mov	r4,r2
  800ec8:	180b883a 	mov	r5,r3
  800ecc:	200d883a 	mov	r6,r4
  800ed0:	280f883a 	mov	r7,r5
  800ed4:	8009883a 	mov	r4,r16
  800ed8:	880b883a 	mov	r5,r17
  800edc:	0805a180 	call	805a18 <__gedf2>
  800ee0:	10000816 	blt	r2,zero,800f04 <logic+0xb04>
  800ee4:	e0bffc17 	ldw	r2,-16(fp)
  800ee8:	10800003 	ldbu	r2,0(r2)
  800eec:	10803fcc 	andi	r2,r2,255
  800ef0:	1080201c 	xori	r2,r2,128
  800ef4:	10bfe004 	addi	r2,r2,-128
  800ef8:	1000021e 	bne	r2,zero,800f04 <logic+0xb04>
  800efc:	00800044 	movi	r2,1
  800f00:	00000106 	br	800f08 <logic+0xb08>
  800f04:	0005883a 	mov	r2,zero
  800f08:	1007883a 	mov	r3,r2
  800f0c:	e0bffc17 	ldw	r2,-16(fp)
  800f10:	10c03a85 	stb	r3,234(r2)
  d->_g140 = d->_g149 && d->_cg20;
  800f14:	e0bffc17 	ldw	r2,-16(fp)
  800f18:	108036c3 	ldbu	r2,219(r2)
  800f1c:	10803fcc 	andi	r2,r2,255
  800f20:	1080201c 	xori	r2,r2,128
  800f24:	10bfe004 	addi	r2,r2,-128
  800f28:	10000826 	beq	r2,zero,800f4c <logic+0xb4c>
  800f2c:	e0bffc17 	ldw	r2,-16(fp)
  800f30:	10803a83 	ldbu	r2,234(r2)
  800f34:	10803fcc 	andi	r2,r2,255
  800f38:	1080201c 	xori	r2,r2,128
  800f3c:	10bfe004 	addi	r2,r2,-128
  800f40:	10000226 	beq	r2,zero,800f4c <logic+0xb4c>
  800f44:	00800044 	movi	r2,1
  800f48:	00000106 	br	800f50 <logic+0xb50>
  800f4c:	0005883a 	mov	r2,zero
  800f50:	1007883a 	mov	r3,r2
  800f54:	e0bffc17 	ldw	r2,-16(fp)
  800f58:	10c03545 	stb	r3,213(r2)
  if (d->_g140) {
  800f5c:	e0bffc17 	ldw	r2,-16(fp)
  800f60:	10803543 	ldbu	r2,213(r2)
  800f64:	10803fcc 	andi	r2,r2,255
  800f68:	1080201c 	xori	r2,r2,128
  800f6c:	10bfe004 	addi	r2,r2,-128
  800f70:	10000326 	beq	r2,zero,800f80 <logic+0xb80>
    d->_Pacemaker_local__Atrig1 = 1;
  800f74:	e0bffc17 	ldw	r2,-16(fp)
  800f78:	00c00044 	movi	r3,1
  800f7c:	10c01a45 	stb	r3,105(r2)
  }
  d->_g17 = d->_pg195;
  800f80:	e0bffc17 	ldw	r2,-16(fp)
  800f84:	10c04c83 	ldbu	r3,306(r2)
  800f88:	e0bffc17 	ldw	r2,-16(fp)
  800f8c:	10c01f85 	stb	r3,126(r2)
  d->_g195 = d->_GO || d->_g17;
  800f90:	e0bffc17 	ldw	r2,-16(fp)
  800f94:	10803903 	ldbu	r2,228(r2)
  800f98:	10803fcc 	andi	r2,r2,255
  800f9c:	1080201c 	xori	r2,r2,128
  800fa0:	10bfe004 	addi	r2,r2,-128
  800fa4:	1000061e 	bne	r2,zero,800fc0 <logic+0xbc0>
  800fa8:	e0bffc17 	ldw	r2,-16(fp)
  800fac:	10801f83 	ldbu	r2,126(r2)
  800fb0:	10803fcc 	andi	r2,r2,255
  800fb4:	1080201c 	xori	r2,r2,128
  800fb8:	10bfe004 	addi	r2,r2,-128
  800fbc:	10000226 	beq	r2,zero,800fc8 <logic+0xbc8>
  800fc0:	00800044 	movi	r2,1
  800fc4:	00000106 	br	800fcc <logic+0xbcc>
  800fc8:	0005883a 	mov	r2,zero
  800fcc:	1007883a 	mov	r3,r2
  800fd0:	e0bffc17 	ldw	r2,-16(fp)
  800fd4:	10c038c5 	stb	r3,227(r2)
  if (d->_g195) {
  800fd8:	e0bffc17 	ldw	r2,-16(fp)
  800fdc:	108038c3 	ldbu	r2,227(r2)
  800fe0:	10803fcc 	andi	r2,r2,255
  800fe4:	1080201c 	xori	r2,r2,128
  800fe8:	10bfe004 	addi	r2,r2,-128
  800fec:	10000426 	beq	r2,zero,801000 <logic+0xc00>
    d->_pre_AP = d->_reg_AP;
  800ff0:	e0bffc17 	ldw	r2,-16(fp)
  800ff4:	10c01983 	ldbu	r3,102(r2)
  800ff8:	e0bffc17 	ldw	r2,-16(fp)
  800ffc:	10c019c5 	stb	r3,103(r2)
  }
  d->_g27 = d->_pg45_e2;
  801000:	e0bffc17 	ldw	r2,-16(fp)
  801004:	10c04cc3 	ldbu	r3,307(r2)
  801008:	e0bffc17 	ldw	r2,-16(fp)
  80100c:	10c02145 	stb	r3,133(r2)
  d->_cg27 = d->VS || d->_pre_VP;
  801010:	e0bffc17 	ldw	r2,-16(fp)
  801014:	10801743 	ldbu	r2,93(r2)
  801018:	10803fcc 	andi	r2,r2,255
  80101c:	1080201c 	xori	r2,r2,128
  801020:	10bfe004 	addi	r2,r2,-128
  801024:	1000061e 	bne	r2,zero,801040 <logic+0xc40>
  801028:	e0bffc17 	ldw	r2,-16(fp)
  80102c:	10801943 	ldbu	r2,101(r2)
  801030:	10803fcc 	andi	r2,r2,255
  801034:	1080201c 	xori	r2,r2,128
  801038:	10bfe004 	addi	r2,r2,-128
  80103c:	10000226 	beq	r2,zero,801048 <logic+0xc48>
  801040:	00800044 	movi	r2,1
  801044:	00000106 	br	80104c <logic+0xc4c>
  801048:	0005883a 	mov	r2,zero
  80104c:	1007883a 	mov	r3,r2
  801050:	e0bffc17 	ldw	r2,-16(fp)
  801054:	10c03b85 	stb	r3,238(r2)
  d->_g50 = d->_g27 && !d->_cg27;
  801058:	e0bffc17 	ldw	r2,-16(fp)
  80105c:	10802143 	ldbu	r2,133(r2)
  801060:	10803fcc 	andi	r2,r2,255
  801064:	1080201c 	xori	r2,r2,128
  801068:	10bfe004 	addi	r2,r2,-128
  80106c:	10000826 	beq	r2,zero,801090 <logic+0xc90>
  801070:	e0bffc17 	ldw	r2,-16(fp)
  801074:	10803b83 	ldbu	r2,238(r2)
  801078:	10803fcc 	andi	r2,r2,255
  80107c:	1080201c 	xori	r2,r2,128
  801080:	10bfe004 	addi	r2,r2,-128
  801084:	1000021e 	bne	r2,zero,801090 <logic+0xc90>
  801088:	00800044 	movi	r2,1
  80108c:	00000106 	br	801094 <logic+0xc94>
  801090:	0005883a 	mov	r2,zero
  801094:	1007883a 	mov	r3,r2
  801098:	e0bffc17 	ldw	r2,-16(fp)
  80109c:	10c025c5 	stb	r3,151(r2)
  d->_cg50 = d->AS || d->_pre_AP;
  8010a0:	e0bffc17 	ldw	r2,-16(fp)
  8010a4:	10801703 	ldbu	r2,92(r2)
  8010a8:	10803fcc 	andi	r2,r2,255
  8010ac:	1080201c 	xori	r2,r2,128
  8010b0:	10bfe004 	addi	r2,r2,-128
  8010b4:	1000061e 	bne	r2,zero,8010d0 <logic+0xcd0>
  8010b8:	e0bffc17 	ldw	r2,-16(fp)
  8010bc:	108019c3 	ldbu	r2,103(r2)
  8010c0:	10803fcc 	andi	r2,r2,255
  8010c4:	1080201c 	xori	r2,r2,128
  8010c8:	10bfe004 	addi	r2,r2,-128
  8010cc:	10000226 	beq	r2,zero,8010d8 <logic+0xcd8>
  8010d0:	00800044 	movi	r2,1
  8010d4:	00000106 	br	8010dc <logic+0xcdc>
  8010d8:	0005883a 	mov	r2,zero
  8010dc:	1007883a 	mov	r3,r2
  8010e0:	e0bffc17 	ldw	r2,-16(fp)
  8010e4:	10c03b45 	stb	r3,237(r2)
  d->_g51 = d->_g50 && d->_cg50;
  8010e8:	e0bffc17 	ldw	r2,-16(fp)
  8010ec:	108025c3 	ldbu	r2,151(r2)
  8010f0:	10803fcc 	andi	r2,r2,255
  8010f4:	1080201c 	xori	r2,r2,128
  8010f8:	10bfe004 	addi	r2,r2,-128
  8010fc:	10000826 	beq	r2,zero,801120 <logic+0xd20>
  801100:	e0bffc17 	ldw	r2,-16(fp)
  801104:	10803b43 	ldbu	r2,237(r2)
  801108:	10803fcc 	andi	r2,r2,255
  80110c:	1080201c 	xori	r2,r2,128
  801110:	10bfe004 	addi	r2,r2,-128
  801114:	10000226 	beq	r2,zero,801120 <logic+0xd20>
  801118:	00800044 	movi	r2,1
  80111c:	00000106 	br	801124 <logic+0xd24>
  801120:	0005883a 	mov	r2,zero
  801124:	1007883a 	mov	r3,r2
  801128:	e0bffc17 	ldw	r2,-16(fp)
  80112c:	10c02605 	stb	r3,152(r2)
  if (d->_g51) {
  801130:	e0bffc17 	ldw	r2,-16(fp)
  801134:	10802603 	ldbu	r2,152(r2)
  801138:	10803fcc 	andi	r2,r2,255
  80113c:	1080201c 	xori	r2,r2,128
  801140:	10bfe004 	addi	r2,r2,-128
  801144:	10000626 	beq	r2,zero,801160 <logic+0xd60>
    d->A_event |= 1;
  801148:	e0bffc17 	ldw	r2,-16(fp)
  80114c:	10801883 	ldbu	r2,98(r2)
  801150:	10800054 	ori	r2,r2,1
  801154:	1007883a 	mov	r3,r2
  801158:	e0bffc17 	ldw	r2,-16(fp)
  80115c:	10c01885 	stb	r3,98(r2)
  }
  d->_g4 = d->_pg9;
  801160:	e0bffc17 	ldw	r2,-16(fp)
  801164:	10c04d03 	ldbu	r3,308(r2)
  801168:	e0bffc17 	ldw	r2,-16(fp)
  80116c:	10c01d05 	stb	r3,116(r2)
  d->_cg4 = d->A_event;
  801170:	e0bffc17 	ldw	r2,-16(fp)
  801174:	10c01883 	ldbu	r3,98(r2)
  801178:	e0bffc17 	ldw	r2,-16(fp)
  80117c:	10c03985 	stb	r3,230(r2)
  d->_g5 = d->_g4 && d->_cg4;
  801180:	e0bffc17 	ldw	r2,-16(fp)
  801184:	10801d03 	ldbu	r2,116(r2)
  801188:	10803fcc 	andi	r2,r2,255
  80118c:	1080201c 	xori	r2,r2,128
  801190:	10bfe004 	addi	r2,r2,-128
  801194:	10000826 	beq	r2,zero,8011b8 <logic+0xdb8>
  801198:	e0bffc17 	ldw	r2,-16(fp)
  80119c:	10803983 	ldbu	r2,230(r2)
  8011a0:	10803fcc 	andi	r2,r2,255
  8011a4:	1080201c 	xori	r2,r2,128
  8011a8:	10bfe004 	addi	r2,r2,-128
  8011ac:	10000226 	beq	r2,zero,8011b8 <logic+0xdb8>
  8011b0:	00800044 	movi	r2,1
  8011b4:	00000106 	br	8011bc <logic+0xdbc>
  8011b8:	0005883a 	mov	r2,zero
  8011bc:	1007883a 	mov	r3,r2
  8011c0:	e0bffc17 	ldw	r2,-16(fp)
  8011c4:	10c01d45 	stb	r3,117(r2)
  if (d->_g5) {
  8011c8:	e0bffc17 	ldw	r2,-16(fp)
  8011cc:	10801d43 	ldbu	r2,117(r2)
  8011d0:	10803fcc 	andi	r2,r2,255
  8011d4:	1080201c 	xori	r2,r2,128
  8011d8:	10bfe004 	addi	r2,r2,-128
  8011dc:	10000726 	beq	r2,zero,8011fc <logic+0xdfc>
    d->_region0_AVI_timer_t = 0;
  8011e0:	e0bffc17 	ldw	r2,-16(fp)
  8011e4:	10000715 	stw	zero,28(r2)
  8011e8:	10000815 	stw	zero,32(r2)
    d->_Pacemaker_local__Atrig = 0;
  8011ec:	e0bffc17 	ldw	r2,-16(fp)
  8011f0:	10001a05 	stb	zero,104(r2)
    d->_Pacemaker_local__Atrig1 = 0;
  8011f4:	e0bffc17 	ldw	r2,-16(fp)
  8011f8:	10001a45 	stb	zero,105(r2)
  }
  d->_g11 = d->_pg10;
  8011fc:	e0bffc17 	ldw	r2,-16(fp)
  801200:	10c04d43 	ldbu	r3,309(r2)
  801204:	e0bffc17 	ldw	r2,-16(fp)
  801208:	10c01e85 	stb	r3,122(r2)
  d->_g14 = d->_pg13;
  80120c:	e0bffc17 	ldw	r2,-16(fp)
  801210:	10c04d83 	ldbu	r3,310(r2)
  801214:	e0bffc17 	ldw	r2,-16(fp)
  801218:	10c01f45 	stb	r3,125(r2)
  d->_g11 = d->_g5 || d->_g11 || d->_g14;
  80121c:	e0bffc17 	ldw	r2,-16(fp)
  801220:	10801d43 	ldbu	r2,117(r2)
  801224:	10803fcc 	andi	r2,r2,255
  801228:	1080201c 	xori	r2,r2,128
  80122c:	10bfe004 	addi	r2,r2,-128
  801230:	10000c1e 	bne	r2,zero,801264 <logic+0xe64>
  801234:	e0bffc17 	ldw	r2,-16(fp)
  801238:	10801e83 	ldbu	r2,122(r2)
  80123c:	10803fcc 	andi	r2,r2,255
  801240:	1080201c 	xori	r2,r2,128
  801244:	10bfe004 	addi	r2,r2,-128
  801248:	1000061e 	bne	r2,zero,801264 <logic+0xe64>
  80124c:	e0bffc17 	ldw	r2,-16(fp)
  801250:	10801f43 	ldbu	r2,125(r2)
  801254:	10803fcc 	andi	r2,r2,255
  801258:	1080201c 	xori	r2,r2,128
  80125c:	10bfe004 	addi	r2,r2,-128
  801260:	10000226 	beq	r2,zero,80126c <logic+0xe6c>
  801264:	00800044 	movi	r2,1
  801268:	00000106 	br	801270 <logic+0xe70>
  80126c:	0005883a 	mov	r2,zero
  801270:	1007883a 	mov	r3,r2
  801274:	e0bffc17 	ldw	r2,-16(fp)
  801278:	10c01e85 	stb	r3,122(r2)
  d->_cg7 = d->_region0_AVI_timer_t < d->AVI_Constraint;
  80127c:	e0bffc17 	ldw	r2,-16(fp)
  801280:	14000717 	ldw	r16,28(r2)
  801284:	14400817 	ldw	r17,32(r2)
  801288:	e0bffc17 	ldw	r2,-16(fp)
  80128c:	10800117 	ldw	r2,4(r2)
  801290:	1009883a 	mov	r4,r2
  801294:	08064e40 	call	8064e4 <__floatsidf>
  801298:	1009883a 	mov	r4,r2
  80129c:	180b883a 	mov	r5,r3
  8012a0:	04800044 	movi	r18,1
  8012a4:	200d883a 	mov	r6,r4
  8012a8:	280f883a 	mov	r7,r5
  8012ac:	8009883a 	mov	r4,r16
  8012b0:	880b883a 	mov	r5,r17
  8012b4:	0805af40 	call	805af4 <__ledf2>
  8012b8:	10000116 	blt	r2,zero,8012c0 <logic+0xec0>
  8012bc:	0025883a 	mov	r18,zero
  8012c0:	9007883a 	mov	r3,r18
  8012c4:	e0bffc17 	ldw	r2,-16(fp)
  8012c8:	10c039c5 	stb	r3,231(r2)
  d->_g14 = d->_g11 && !d->_cg7;
  8012cc:	e0bffc17 	ldw	r2,-16(fp)
  8012d0:	10801e83 	ldbu	r2,122(r2)
  8012d4:	10803fcc 	andi	r2,r2,255
  8012d8:	1080201c 	xori	r2,r2,128
  8012dc:	10bfe004 	addi	r2,r2,-128
  8012e0:	10000826 	beq	r2,zero,801304 <logic+0xf04>
  8012e4:	e0bffc17 	ldw	r2,-16(fp)
  8012e8:	108039c3 	ldbu	r2,231(r2)
  8012ec:	10803fcc 	andi	r2,r2,255
  8012f0:	1080201c 	xori	r2,r2,128
  8012f4:	10bfe004 	addi	r2,r2,-128
  8012f8:	1000021e 	bne	r2,zero,801304 <logic+0xf04>
  8012fc:	00800044 	movi	r2,1
  801300:	00000106 	br	801308 <logic+0xf08>
  801304:	0005883a 	mov	r2,zero
  801308:	1007883a 	mov	r3,r2
  80130c:	e0bffc17 	ldw	r2,-16(fp)
  801310:	10c01f45 	stb	r3,125(r2)
  d->_cg12 = d->_Pacemaker_local__Atrig || d->_Pacemaker_local__Atrig1;
  801314:	e0bffc17 	ldw	r2,-16(fp)
  801318:	10801a03 	ldbu	r2,104(r2)
  80131c:	10803fcc 	andi	r2,r2,255
  801320:	1080201c 	xori	r2,r2,128
  801324:	10bfe004 	addi	r2,r2,-128
  801328:	1000061e 	bne	r2,zero,801344 <logic+0xf44>
  80132c:	e0bffc17 	ldw	r2,-16(fp)
  801330:	10801a43 	ldbu	r2,105(r2)
  801334:	10803fcc 	andi	r2,r2,255
  801338:	1080201c 	xori	r2,r2,128
  80133c:	10bfe004 	addi	r2,r2,-128
  801340:	10000226 	beq	r2,zero,80134c <logic+0xf4c>
  801344:	00800044 	movi	r2,1
  801348:	00000106 	br	801350 <logic+0xf50>
  80134c:	0005883a 	mov	r2,zero
  801350:	1007883a 	mov	r3,r2
  801354:	e0bffc17 	ldw	r2,-16(fp)
  801358:	10c03a45 	stb	r3,233(r2)
  d->_g13 = d->_g14 && !d->_cg12;
  80135c:	e0bffc17 	ldw	r2,-16(fp)
  801360:	10801f43 	ldbu	r2,125(r2)
  801364:	10803fcc 	andi	r2,r2,255
  801368:	1080201c 	xori	r2,r2,128
  80136c:	10bfe004 	addi	r2,r2,-128
  801370:	10000826 	beq	r2,zero,801394 <logic+0xf94>
  801374:	e0bffc17 	ldw	r2,-16(fp)
  801378:	10803a43 	ldbu	r2,233(r2)
  80137c:	10803fcc 	andi	r2,r2,255
  801380:	1080201c 	xori	r2,r2,128
  801384:	10bfe004 	addi	r2,r2,-128
  801388:	1000021e 	bne	r2,zero,801394 <logic+0xf94>
  80138c:	00800044 	movi	r2,1
  801390:	00000106 	br	801398 <logic+0xf98>
  801394:	0005883a 	mov	r2,zero
  801398:	1007883a 	mov	r3,r2
  80139c:	e0bffc17 	ldw	r2,-16(fp)
  8013a0:	10c01f05 	stb	r3,124(r2)
  d->_g7 = d->_g11 && d->_cg7;
  8013a4:	e0bffc17 	ldw	r2,-16(fp)
  8013a8:	10801e83 	ldbu	r2,122(r2)
  8013ac:	10803fcc 	andi	r2,r2,255
  8013b0:	1080201c 	xori	r2,r2,128
  8013b4:	10bfe004 	addi	r2,r2,-128
  8013b8:	10000826 	beq	r2,zero,8013dc <logic+0xfdc>
  8013bc:	e0bffc17 	ldw	r2,-16(fp)
  8013c0:	108039c3 	ldbu	r2,231(r2)
  8013c4:	10803fcc 	andi	r2,r2,255
  8013c8:	1080201c 	xori	r2,r2,128
  8013cc:	10bfe004 	addi	r2,r2,-128
  8013d0:	10000226 	beq	r2,zero,8013dc <logic+0xfdc>
  8013d4:	00800044 	movi	r2,1
  8013d8:	00000106 	br	8013e0 <logic+0xfe0>
  8013dc:	0005883a 	mov	r2,zero
  8013e0:	1007883a 	mov	r3,r2
  8013e4:	e0bffc17 	ldw	r2,-16(fp)
  8013e8:	10c01d85 	stb	r3,118(r2)
  if (d->_g7) {
  8013ec:	e0bffc17 	ldw	r2,-16(fp)
  8013f0:	10801d83 	ldbu	r2,118(r2)
  8013f4:	10803fcc 	andi	r2,r2,255
  8013f8:	1080201c 	xori	r2,r2,128
  8013fc:	10bfe004 	addi	r2,r2,-128
  801400:	10003426 	beq	r2,zero,8014d4 <logic+0x10d4>
    d->sleepT = (d->sleepT < (d->AVI_Constraint - d->_region0_AVI_timer_t)) ? d->sleepT : (d->AVI_Constraint - d->_region0_AVI_timer_t);
  801404:	e0bffc17 	ldw	r2,-16(fp)
  801408:	14001517 	ldw	r16,84(r2)
  80140c:	14401617 	ldw	r17,88(r2)
  801410:	e0bffc17 	ldw	r2,-16(fp)
  801414:	10800117 	ldw	r2,4(r2)
  801418:	1009883a 	mov	r4,r2
  80141c:	08064e40 	call	8064e4 <__floatsidf>
  801420:	1011883a 	mov	r8,r2
  801424:	1813883a 	mov	r9,r3
  801428:	e13ffc17 	ldw	r4,-16(fp)
  80142c:	20800717 	ldw	r2,28(r4)
  801430:	20c00817 	ldw	r3,32(r4)
  801434:	100d883a 	mov	r6,r2
  801438:	180f883a 	mov	r7,r3
  80143c:	4009883a 	mov	r4,r8
  801440:	480b883a 	mov	r5,r9
  801444:	0805be80 	call	805be8 <__subdf3>
  801448:	1009883a 	mov	r4,r2
  80144c:	180b883a 	mov	r5,r3
  801450:	2005883a 	mov	r2,r4
  801454:	2807883a 	mov	r3,r5
  801458:	100d883a 	mov	r6,r2
  80145c:	180f883a 	mov	r7,r3
  801460:	8009883a 	mov	r4,r16
  801464:	880b883a 	mov	r5,r17
  801468:	0805af40 	call	805af4 <__ledf2>
  80146c:	1000040e 	bge	r2,zero,801480 <logic+0x1080>
  801470:	e13ffc17 	ldw	r4,-16(fp)
  801474:	20801517 	ldw	r2,84(r4)
  801478:	20c01617 	ldw	r3,88(r4)
  80147c:	00001206 	br	8014c8 <logic+0x10c8>
  801480:	e0bffc17 	ldw	r2,-16(fp)
  801484:	10800117 	ldw	r2,4(r2)
  801488:	1009883a 	mov	r4,r2
  80148c:	08064e40 	call	8064e4 <__floatsidf>
  801490:	1011883a 	mov	r8,r2
  801494:	1813883a 	mov	r9,r3
  801498:	e13ffc17 	ldw	r4,-16(fp)
  80149c:	20800717 	ldw	r2,28(r4)
  8014a0:	20c00817 	ldw	r3,32(r4)
  8014a4:	100d883a 	mov	r6,r2
  8014a8:	180f883a 	mov	r7,r3
  8014ac:	4009883a 	mov	r4,r8
  8014b0:	480b883a 	mov	r5,r9
  8014b4:	0805be80 	call	805be8 <__subdf3>
  8014b8:	1009883a 	mov	r4,r2
  8014bc:	180b883a 	mov	r5,r3
  8014c0:	2005883a 	mov	r2,r4
  8014c4:	2807883a 	mov	r3,r5
  8014c8:	e13ffc17 	ldw	r4,-16(fp)
  8014cc:	20801515 	stw	r2,84(r4)
  8014d0:	20c01615 	stw	r3,88(r4)
  }
  d->_cg8 = d->_Pacemaker_local__Atrig || d->_Pacemaker_local__Atrig1;
  8014d4:	e0bffc17 	ldw	r2,-16(fp)
  8014d8:	10801a03 	ldbu	r2,104(r2)
  8014dc:	10803fcc 	andi	r2,r2,255
  8014e0:	1080201c 	xori	r2,r2,128
  8014e4:	10bfe004 	addi	r2,r2,-128
  8014e8:	1000061e 	bne	r2,zero,801504 <logic+0x1104>
  8014ec:	e0bffc17 	ldw	r2,-16(fp)
  8014f0:	10801a43 	ldbu	r2,105(r2)
  8014f4:	10803fcc 	andi	r2,r2,255
  8014f8:	1080201c 	xori	r2,r2,128
  8014fc:	10bfe004 	addi	r2,r2,-128
  801500:	10000226 	beq	r2,zero,80150c <logic+0x110c>
  801504:	00800044 	movi	r2,1
  801508:	00000106 	br	801510 <logic+0x1110>
  80150c:	0005883a 	mov	r2,zero
  801510:	1007883a 	mov	r3,r2
  801514:	e0bffc17 	ldw	r2,-16(fp)
  801518:	10c03a05 	stb	r3,232(r2)
  d->_g10 = d->_g7 && !d->_cg8;
  80151c:	e0bffc17 	ldw	r2,-16(fp)
  801520:	10801d83 	ldbu	r2,118(r2)
  801524:	10803fcc 	andi	r2,r2,255
  801528:	1080201c 	xori	r2,r2,128
  80152c:	10bfe004 	addi	r2,r2,-128
  801530:	10000826 	beq	r2,zero,801554 <logic+0x1154>
  801534:	e0bffc17 	ldw	r2,-16(fp)
  801538:	10803a03 	ldbu	r2,232(r2)
  80153c:	10803fcc 	andi	r2,r2,255
  801540:	1080201c 	xori	r2,r2,128
  801544:	10bfe004 	addi	r2,r2,-128
  801548:	1000021e 	bne	r2,zero,801554 <logic+0x1154>
  80154c:	00800044 	movi	r2,1
  801550:	00000106 	br	801558 <logic+0x1158>
  801554:	0005883a 	mov	r2,zero
  801558:	1007883a 	mov	r3,r2
  80155c:	e0bffc17 	ldw	r2,-16(fp)
  801560:	10c01e45 	stb	r3,121(r2)
  d->_g9_e1 = !(d->_g13 || d->_g10);
  801564:	e0bffc17 	ldw	r2,-16(fp)
  801568:	10801f03 	ldbu	r2,124(r2)
  80156c:	10803fcc 	andi	r2,r2,255
  801570:	1080201c 	xori	r2,r2,128
  801574:	10bfe004 	addi	r2,r2,-128
  801578:	1000081e 	bne	r2,zero,80159c <logic+0x119c>
  80157c:	e0bffc17 	ldw	r2,-16(fp)
  801580:	10801e43 	ldbu	r2,121(r2)
  801584:	10803fcc 	andi	r2,r2,255
  801588:	1080201c 	xori	r2,r2,128
  80158c:	10bfe004 	addi	r2,r2,-128
  801590:	1000021e 	bne	r2,zero,80159c <logic+0x119c>
  801594:	00800044 	movi	r2,1
  801598:	00000106 	br	8015a0 <logic+0x11a0>
  80159c:	0005883a 	mov	r2,zero
  8015a0:	1007883a 	mov	r3,r2
  8015a4:	e0bffc17 	ldw	r2,-16(fp)
  8015a8:	10c04705 	stb	r3,284(r2)
  d->_g12 = d->_g7 && d->_cg8 || d->_g14 && d->_cg12;
  8015ac:	e0bffc17 	ldw	r2,-16(fp)
  8015b0:	10801d83 	ldbu	r2,118(r2)
  8015b4:	10803fcc 	andi	r2,r2,255
  8015b8:	1080201c 	xori	r2,r2,128
  8015bc:	10bfe004 	addi	r2,r2,-128
  8015c0:	10000626 	beq	r2,zero,8015dc <logic+0x11dc>
  8015c4:	e0bffc17 	ldw	r2,-16(fp)
  8015c8:	10803a03 	ldbu	r2,232(r2)
  8015cc:	10803fcc 	andi	r2,r2,255
  8015d0:	1080201c 	xori	r2,r2,128
  8015d4:	10bfe004 	addi	r2,r2,-128
  8015d8:	10000c1e 	bne	r2,zero,80160c <logic+0x120c>
  8015dc:	e0bffc17 	ldw	r2,-16(fp)
  8015e0:	10801f43 	ldbu	r2,125(r2)
  8015e4:	10803fcc 	andi	r2,r2,255
  8015e8:	1080201c 	xori	r2,r2,128
  8015ec:	10bfe004 	addi	r2,r2,-128
  8015f0:	10000826 	beq	r2,zero,801614 <logic+0x1214>
  8015f4:	e0bffc17 	ldw	r2,-16(fp)
  8015f8:	10803a43 	ldbu	r2,233(r2)
  8015fc:	10803fcc 	andi	r2,r2,255
  801600:	1080201c 	xori	r2,r2,128
  801604:	10bfe004 	addi	r2,r2,-128
  801608:	10000226 	beq	r2,zero,801614 <logic+0x1214>
  80160c:	00800044 	movi	r2,1
  801610:	00000106 	br	801618 <logic+0x1218>
  801614:	0005883a 	mov	r2,zero
  801618:	1007883a 	mov	r3,r2
  80161c:	e0bffc17 	ldw	r2,-16(fp)
  801620:	10c01ec5 	stb	r3,123(r2)
  d->_g8 = d->_g5 || d->_g149 && !d->_cg20;
  801624:	e0bffc17 	ldw	r2,-16(fp)
  801628:	10801d43 	ldbu	r2,117(r2)
  80162c:	10803fcc 	andi	r2,r2,255
  801630:	1080201c 	xori	r2,r2,128
  801634:	10bfe004 	addi	r2,r2,-128
  801638:	10000c1e 	bne	r2,zero,80166c <logic+0x126c>
  80163c:	e0bffc17 	ldw	r2,-16(fp)
  801640:	108036c3 	ldbu	r2,219(r2)
  801644:	10803fcc 	andi	r2,r2,255
  801648:	1080201c 	xori	r2,r2,128
  80164c:	10bfe004 	addi	r2,r2,-128
  801650:	10000826 	beq	r2,zero,801674 <logic+0x1274>
  801654:	e0bffc17 	ldw	r2,-16(fp)
  801658:	10803a83 	ldbu	r2,234(r2)
  80165c:	10803fcc 	andi	r2,r2,255
  801660:	1080201c 	xori	r2,r2,128
  801664:	10bfe004 	addi	r2,r2,-128
  801668:	1000021e 	bne	r2,zero,801674 <logic+0x1274>
  80166c:	00800044 	movi	r2,1
  801670:	00000106 	br	801678 <logic+0x1278>
  801674:	0005883a 	mov	r2,zero
  801678:	1007883a 	mov	r3,r2
  80167c:	e0bffc17 	ldw	r2,-16(fp)
  801680:	10c01dc5 	stb	r3,119(r2)
  d->_g5 = !d->_g8;
  801684:	e0bffc17 	ldw	r2,-16(fp)
  801688:	10801dc3 	ldbu	r2,119(r2)
  80168c:	10803fcc 	andi	r2,r2,255
  801690:	1080201c 	xori	r2,r2,128
  801694:	10bfe004 	addi	r2,r2,-128
  801698:	1005003a 	cmpeq	r2,r2,zero
  80169c:	1007883a 	mov	r3,r2
  8016a0:	e0bffc17 	ldw	r2,-16(fp)
  8016a4:	10c01d45 	stb	r3,117(r2)
  d->_g20 = d->_g18 || d->_g140;
  8016a8:	e0bffc17 	ldw	r2,-16(fp)
  8016ac:	10801fc3 	ldbu	r2,127(r2)
  8016b0:	10803fcc 	andi	r2,r2,255
  8016b4:	1080201c 	xori	r2,r2,128
  8016b8:	10bfe004 	addi	r2,r2,-128
  8016bc:	1000061e 	bne	r2,zero,8016d8 <logic+0x12d8>
  8016c0:	e0bffc17 	ldw	r2,-16(fp)
  8016c4:	10803543 	ldbu	r2,213(r2)
  8016c8:	10803fcc 	andi	r2,r2,255
  8016cc:	1080201c 	xori	r2,r2,128
  8016d0:	10bfe004 	addi	r2,r2,-128
  8016d4:	10000226 	beq	r2,zero,8016e0 <logic+0x12e0>
  8016d8:	00800044 	movi	r2,1
  8016dc:	00000106 	br	8016e4 <logic+0x12e4>
  8016e0:	0005883a 	mov	r2,zero
  8016e4:	1007883a 	mov	r3,r2
  8016e8:	e0bffc17 	ldw	r2,-16(fp)
  8016ec:	10c02045 	stb	r3,129(r2)
  d->_g21 = (d->_g9_e1 || d->_g12) && (d->_g5 || d->_g20) && (d->_g12 || d->_g20);
  8016f0:	e0bffc17 	ldw	r2,-16(fp)
  8016f4:	10804703 	ldbu	r2,284(r2)
  8016f8:	10803fcc 	andi	r2,r2,255
  8016fc:	1080201c 	xori	r2,r2,128
  801700:	10bfe004 	addi	r2,r2,-128
  801704:	1000061e 	bne	r2,zero,801720 <logic+0x1320>
  801708:	e0bffc17 	ldw	r2,-16(fp)
  80170c:	10801ec3 	ldbu	r2,123(r2)
  801710:	10803fcc 	andi	r2,r2,255
  801714:	1080201c 	xori	r2,r2,128
  801718:	10bfe004 	addi	r2,r2,-128
  80171c:	10001a26 	beq	r2,zero,801788 <logic+0x1388>
  801720:	e0bffc17 	ldw	r2,-16(fp)
  801724:	10801d43 	ldbu	r2,117(r2)
  801728:	10803fcc 	andi	r2,r2,255
  80172c:	1080201c 	xori	r2,r2,128
  801730:	10bfe004 	addi	r2,r2,-128
  801734:	1000061e 	bne	r2,zero,801750 <logic+0x1350>
  801738:	e0bffc17 	ldw	r2,-16(fp)
  80173c:	10802043 	ldbu	r2,129(r2)
  801740:	10803fcc 	andi	r2,r2,255
  801744:	1080201c 	xori	r2,r2,128
  801748:	10bfe004 	addi	r2,r2,-128
  80174c:	10000e26 	beq	r2,zero,801788 <logic+0x1388>
  801750:	e0bffc17 	ldw	r2,-16(fp)
  801754:	10801ec3 	ldbu	r2,123(r2)
  801758:	10803fcc 	andi	r2,r2,255
  80175c:	1080201c 	xori	r2,r2,128
  801760:	10bfe004 	addi	r2,r2,-128
  801764:	1000061e 	bne	r2,zero,801780 <logic+0x1380>
  801768:	e0bffc17 	ldw	r2,-16(fp)
  80176c:	10802043 	ldbu	r2,129(r2)
  801770:	10803fcc 	andi	r2,r2,255
  801774:	1080201c 	xori	r2,r2,128
  801778:	10bfe004 	addi	r2,r2,-128
  80177c:	10000226 	beq	r2,zero,801788 <logic+0x1388>
  801780:	00800044 	movi	r2,1
  801784:	00000106 	br	80178c <logic+0x138c>
  801788:	0005883a 	mov	r2,zero
  80178c:	1007883a 	mov	r3,r2
  801790:	e0bffc17 	ldw	r2,-16(fp)
  801794:	10c02085 	stb	r3,130(r2)
  d->_cg22 = d->_Pacemaker_local__Atrig;
  801798:	e0bffc17 	ldw	r2,-16(fp)
  80179c:	10c01a03 	ldbu	r3,104(r2)
  8017a0:	e0bffc17 	ldw	r2,-16(fp)
  8017a4:	10c03945 	stb	r3,229(r2)
  d->_g18 = d->_g21 && !d->_cg22;
  8017a8:	e0bffc17 	ldw	r2,-16(fp)
  8017ac:	10802083 	ldbu	r2,130(r2)
  8017b0:	10803fcc 	andi	r2,r2,255
  8017b4:	1080201c 	xori	r2,r2,128
  8017b8:	10bfe004 	addi	r2,r2,-128
  8017bc:	10000826 	beq	r2,zero,8017e0 <logic+0x13e0>
  8017c0:	e0bffc17 	ldw	r2,-16(fp)
  8017c4:	10803943 	ldbu	r2,229(r2)
  8017c8:	10803fcc 	andi	r2,r2,255
  8017cc:	1080201c 	xori	r2,r2,128
  8017d0:	10bfe004 	addi	r2,r2,-128
  8017d4:	1000021e 	bne	r2,zero,8017e0 <logic+0x13e0>
  8017d8:	00800044 	movi	r2,1
  8017dc:	00000106 	br	8017e4 <logic+0x13e4>
  8017e0:	0005883a 	mov	r2,zero
  8017e4:	1007883a 	mov	r3,r2
  8017e8:	e0bffc17 	ldw	r2,-16(fp)
  8017ec:	10c01fc5 	stb	r3,127(r2)
  if (d->_g18) {
  8017f0:	e0bffc17 	ldw	r2,-16(fp)
  8017f4:	10801fc3 	ldbu	r2,127(r2)
  8017f8:	10803fcc 	andi	r2,r2,255
  8017fc:	1080201c 	xori	r2,r2,128
  801800:	10bfe004 	addi	r2,r2,-128
  801804:	10000626 	beq	r2,zero,801820 <logic+0x1420>
    d->VP |= 1;
  801808:	e0bffc17 	ldw	r2,-16(fp)
  80180c:	108017c3 	ldbu	r2,95(r2)
  801810:	10800054 	ori	r2,r2,1
  801814:	1007883a 	mov	r3,r2
  801818:	e0bffc17 	ldw	r2,-16(fp)
  80181c:	10c017c5 	stb	r3,95(r2)
  }
  d->_g9 = d->_GO || d->_g21 && d->_cg22 || d->_g18 || d->_g4 && !d->_cg4;
  801820:	e0bffc17 	ldw	r2,-16(fp)
  801824:	10803903 	ldbu	r2,228(r2)
  801828:	10803fcc 	andi	r2,r2,255
  80182c:	1080201c 	xori	r2,r2,128
  801830:	10bfe004 	addi	r2,r2,-128
  801834:	10001e1e 	bne	r2,zero,8018b0 <logic+0x14b0>
  801838:	e0bffc17 	ldw	r2,-16(fp)
  80183c:	10802083 	ldbu	r2,130(r2)
  801840:	10803fcc 	andi	r2,r2,255
  801844:	1080201c 	xori	r2,r2,128
  801848:	10bfe004 	addi	r2,r2,-128
  80184c:	10000626 	beq	r2,zero,801868 <logic+0x1468>
  801850:	e0bffc17 	ldw	r2,-16(fp)
  801854:	10803943 	ldbu	r2,229(r2)
  801858:	10803fcc 	andi	r2,r2,255
  80185c:	1080201c 	xori	r2,r2,128
  801860:	10bfe004 	addi	r2,r2,-128
  801864:	1000121e 	bne	r2,zero,8018b0 <logic+0x14b0>
  801868:	e0bffc17 	ldw	r2,-16(fp)
  80186c:	10801fc3 	ldbu	r2,127(r2)
  801870:	10803fcc 	andi	r2,r2,255
  801874:	1080201c 	xori	r2,r2,128
  801878:	10bfe004 	addi	r2,r2,-128
  80187c:	10000c1e 	bne	r2,zero,8018b0 <logic+0x14b0>
  801880:	e0bffc17 	ldw	r2,-16(fp)
  801884:	10801d03 	ldbu	r2,116(r2)
  801888:	10803fcc 	andi	r2,r2,255
  80188c:	1080201c 	xori	r2,r2,128
  801890:	10bfe004 	addi	r2,r2,-128
  801894:	10000826 	beq	r2,zero,8018b8 <logic+0x14b8>
  801898:	e0bffc17 	ldw	r2,-16(fp)
  80189c:	10803983 	ldbu	r2,230(r2)
  8018a0:	10803fcc 	andi	r2,r2,255
  8018a4:	1080201c 	xori	r2,r2,128
  8018a8:	10bfe004 	addi	r2,r2,-128
  8018ac:	1000021e 	bne	r2,zero,8018b8 <logic+0x14b8>
  8018b0:	00800044 	movi	r2,1
  8018b4:	00000106 	br	8018bc <logic+0x14bc>
  8018b8:	0005883a 	mov	r2,zero
  8018bc:	1007883a 	mov	r3,r2
  8018c0:	e0bffc17 	ldw	r2,-16(fp)
  8018c4:	10c01e05 	stb	r3,120(r2)
  d->_g9_e1 = d->_pg48;
  8018c8:	e0bffc17 	ldw	r2,-16(fp)
  8018cc:	10c04dc3 	ldbu	r3,311(r2)
  8018d0:	e0bffc17 	ldw	r2,-16(fp)
  8018d4:	10c04705 	stb	r3,284(r2)
  d->_g19 = d->_pg50;
  8018d8:	e0bffc17 	ldw	r2,-16(fp)
  8018dc:	10c04e03 	ldbu	r3,312(r2)
  8018e0:	e0bffc17 	ldw	r2,-16(fp)
  8018e4:	10c02005 	stb	r3,128(r2)
  d->_g19_e2 = !(d->_g9_e1 || d->_g19);
  8018e8:	e0bffc17 	ldw	r2,-16(fp)
  8018ec:	10804703 	ldbu	r2,284(r2)
  8018f0:	10803fcc 	andi	r2,r2,255
  8018f4:	1080201c 	xori	r2,r2,128
  8018f8:	10bfe004 	addi	r2,r2,-128
  8018fc:	1000081e 	bne	r2,zero,801920 <logic+0x1520>
  801900:	e0bffc17 	ldw	r2,-16(fp)
  801904:	10802003 	ldbu	r2,128(r2)
  801908:	10803fcc 	andi	r2,r2,255
  80190c:	1080201c 	xori	r2,r2,128
  801910:	10bfe004 	addi	r2,r2,-128
  801914:	1000021e 	bne	r2,zero,801920 <logic+0x1520>
  801918:	00800044 	movi	r2,1
  80191c:	00000106 	br	801924 <logic+0x1524>
  801920:	0005883a 	mov	r2,zero
  801924:	1007883a 	mov	r3,r2
  801928:	e0bffc17 	ldw	r2,-16(fp)
  80192c:	10c04745 	stb	r3,285(r2)
  d->_g22 = d->_pg49;
  801930:	e0bffc17 	ldw	r2,-16(fp)
  801934:	10c04e43 	ldbu	r3,313(r2)
  801938:	e0bffc17 	ldw	r2,-16(fp)
  80193c:	10c020c5 	stb	r3,131(r2)
  d->_g23 = d->_g22 && d->AS;
  801940:	e0bffc17 	ldw	r2,-16(fp)
  801944:	108020c3 	ldbu	r2,131(r2)
  801948:	10803fcc 	andi	r2,r2,255
  80194c:	1080201c 	xori	r2,r2,128
  801950:	10bfe004 	addi	r2,r2,-128
  801954:	10000826 	beq	r2,zero,801978 <logic+0x1578>
  801958:	e0bffc17 	ldw	r2,-16(fp)
  80195c:	10801703 	ldbu	r2,92(r2)
  801960:	10803fcc 	andi	r2,r2,255
  801964:	1080201c 	xori	r2,r2,128
  801968:	10bfe004 	addi	r2,r2,-128
  80196c:	10000226 	beq	r2,zero,801978 <logic+0x1578>
  801970:	00800044 	movi	r2,1
  801974:	00000106 	br	80197c <logic+0x157c>
  801978:	0005883a 	mov	r2,zero
  80197c:	1007883a 	mov	r3,r2
  801980:	e0bffc17 	ldw	r2,-16(fp)
  801984:	10c02105 	stb	r3,132(r2)
  if (d->_g23) {
  801988:	e0bffc17 	ldw	r2,-16(fp)
  80198c:	10802103 	ldbu	r2,132(r2)
  801990:	10803fcc 	andi	r2,r2,255
  801994:	1080201c 	xori	r2,r2,128
  801998:	10bfe004 	addi	r2,r2,-128
  80199c:	10000326 	beq	r2,zero,8019ac <logic+0x15ac>
    d->_Pacemaker_local__Atrig2 = 1;
  8019a0:	e0bffc17 	ldw	r2,-16(fp)
  8019a4:	00c00044 	movi	r3,1
  8019a8:	10c01a85 	stb	r3,106(r2)
  }
  d->_g4 = d->_pg135;
  8019ac:	e0bffc17 	ldw	r2,-16(fp)
  8019b0:	10c04e83 	ldbu	r3,314(r2)
  8019b4:	e0bffc17 	ldw	r2,-16(fp)
  8019b8:	10c01d05 	stb	r3,116(r2)
  if (d->_g4) {
  8019bc:	e0bffc17 	ldw	r2,-16(fp)
  8019c0:	10801d03 	ldbu	r2,116(r2)
  8019c4:	10803fcc 	andi	r2,r2,255
  8019c8:	1080201c 	xori	r2,r2,128
  8019cc:	10bfe004 	addi	r2,r2,-128
  8019d0:	10001226 	beq	r2,zero,801a1c <logic+0x161c>
    d->_region1_PVARP_timer_t += d->deltaT;
  8019d4:	e13ffc17 	ldw	r4,-16(fp)
  8019d8:	20800917 	ldw	r2,36(r4)
  8019dc:	20c00a17 	ldw	r3,40(r4)
  8019e0:	e1bffc17 	ldw	r6,-16(fp)
  8019e4:	31001317 	ldw	r4,76(r6)
  8019e8:	31401417 	ldw	r5,80(r6)
  8019ec:	200d883a 	mov	r6,r4
  8019f0:	280f883a 	mov	r7,r5
  8019f4:	1009883a 	mov	r4,r2
  8019f8:	180b883a 	mov	r5,r3
  8019fc:	080516c0 	call	80516c <__adddf3>
  801a00:	1009883a 	mov	r4,r2
  801a04:	180b883a 	mov	r5,r3
  801a08:	2005883a 	mov	r2,r4
  801a0c:	2807883a 	mov	r3,r5
  801a10:	e13ffc17 	ldw	r4,-16(fp)
  801a14:	20800915 	stw	r2,36(r4)
  801a18:	20c00a15 	stw	r3,40(r4)
  }
  d->_g46 = d->_g22 && !d->AS;
  801a1c:	e0bffc17 	ldw	r2,-16(fp)
  801a20:	108020c3 	ldbu	r2,131(r2)
  801a24:	10803fcc 	andi	r2,r2,255
  801a28:	1080201c 	xori	r2,r2,128
  801a2c:	10bfe004 	addi	r2,r2,-128
  801a30:	10000826 	beq	r2,zero,801a54 <logic+0x1654>
  801a34:	e0bffc17 	ldw	r2,-16(fp)
  801a38:	10801703 	ldbu	r2,92(r2)
  801a3c:	10803fcc 	andi	r2,r2,255
  801a40:	1080201c 	xori	r2,r2,128
  801a44:	10bfe004 	addi	r2,r2,-128
  801a48:	1000021e 	bne	r2,zero,801a54 <logic+0x1654>
  801a4c:	00800044 	movi	r2,1
  801a50:	00000106 	br	801a58 <logic+0x1658>
  801a54:	0005883a 	mov	r2,zero
  801a58:	1007883a 	mov	r3,r2
  801a5c:	e0bffc17 	ldw	r2,-16(fp)
  801a60:	10c024c5 	stb	r3,147(r2)
  d->_cg46 = d->_region1_PVARP_timer_t >= d->PVARP_Constraint;
  801a64:	e0bffc17 	ldw	r2,-16(fp)
  801a68:	14000917 	ldw	r16,36(r2)
  801a6c:	14400a17 	ldw	r17,40(r2)
  801a70:	e0bffc17 	ldw	r2,-16(fp)
  801a74:	10800217 	ldw	r2,8(r2)
  801a78:	1009883a 	mov	r4,r2
  801a7c:	08064e40 	call	8064e4 <__floatsidf>
  801a80:	1009883a 	mov	r4,r2
  801a84:	180b883a 	mov	r5,r3
  801a88:	04800044 	movi	r18,1
  801a8c:	200d883a 	mov	r6,r4
  801a90:	280f883a 	mov	r7,r5
  801a94:	8009883a 	mov	r4,r16
  801a98:	880b883a 	mov	r5,r17
  801a9c:	0805a180 	call	805a18 <__gedf2>
  801aa0:	1000010e 	bge	r2,zero,801aa8 <logic+0x16a8>
  801aa4:	0025883a 	mov	r18,zero
  801aa8:	9007883a 	mov	r3,r18
  801aac:	e0bffc17 	ldw	r2,-16(fp)
  801ab0:	10c03d45 	stb	r3,245(r2)
  d->_g47 = d->_g46 && d->_cg46;
  801ab4:	e0bffc17 	ldw	r2,-16(fp)
  801ab8:	108024c3 	ldbu	r2,147(r2)
  801abc:	10803fcc 	andi	r2,r2,255
  801ac0:	1080201c 	xori	r2,r2,128
  801ac4:	10bfe004 	addi	r2,r2,-128
  801ac8:	10000826 	beq	r2,zero,801aec <logic+0x16ec>
  801acc:	e0bffc17 	ldw	r2,-16(fp)
  801ad0:	10803d43 	ldbu	r2,245(r2)
  801ad4:	10803fcc 	andi	r2,r2,255
  801ad8:	1080201c 	xori	r2,r2,128
  801adc:	10bfe004 	addi	r2,r2,-128
  801ae0:	10000226 	beq	r2,zero,801aec <logic+0x16ec>
  801ae4:	00800044 	movi	r2,1
  801ae8:	00000106 	br	801af0 <logic+0x16f0>
  801aec:	0005883a 	mov	r2,zero
  801af0:	1007883a 	mov	r3,r2
  801af4:	e0bffc17 	ldw	r2,-16(fp)
  801af8:	10c02505 	stb	r3,148(r2)
  if (d->_g47) {
  801afc:	e0bffc17 	ldw	r2,-16(fp)
  801b00:	10802503 	ldbu	r2,148(r2)
  801b04:	10803fcc 	andi	r2,r2,255
  801b08:	1080201c 	xori	r2,r2,128
  801b0c:	10bfe004 	addi	r2,r2,-128
  801b10:	10000326 	beq	r2,zero,801b20 <logic+0x1720>
    d->_Pacemaker_local__Atrig3 = 1;
  801b14:	e0bffc17 	ldw	r2,-16(fp)
  801b18:	00c00044 	movi	r3,1
  801b1c:	10c01ac5 	stb	r3,107(r2)
  }
  d->_g33 = d->_g19 || d->_g9_e1;
  801b20:	e0bffc17 	ldw	r2,-16(fp)
  801b24:	10802003 	ldbu	r2,128(r2)
  801b28:	10803fcc 	andi	r2,r2,255
  801b2c:	1080201c 	xori	r2,r2,128
  801b30:	10bfe004 	addi	r2,r2,-128
  801b34:	1000061e 	bne	r2,zero,801b50 <logic+0x1750>
  801b38:	e0bffc17 	ldw	r2,-16(fp)
  801b3c:	10804703 	ldbu	r2,284(r2)
  801b40:	10803fcc 	andi	r2,r2,255
  801b44:	1080201c 	xori	r2,r2,128
  801b48:	10bfe004 	addi	r2,r2,-128
  801b4c:	10000226 	beq	r2,zero,801b58 <logic+0x1758>
  801b50:	00800044 	movi	r2,1
  801b54:	00000106 	br	801b5c <logic+0x175c>
  801b58:	0005883a 	mov	r2,zero
  801b5c:	1007883a 	mov	r3,r2
  801b60:	e0bffc17 	ldw	r2,-16(fp)
  801b64:	10c02245 	stb	r3,137(r2)
  d->_cg34 = d->_region1_PVARP_timer_t < d->PVARP_Constraint;
  801b68:	e0bffc17 	ldw	r2,-16(fp)
  801b6c:	14000917 	ldw	r16,36(r2)
  801b70:	14400a17 	ldw	r17,40(r2)
  801b74:	e0bffc17 	ldw	r2,-16(fp)
  801b78:	10800217 	ldw	r2,8(r2)
  801b7c:	1009883a 	mov	r4,r2
  801b80:	08064e40 	call	8064e4 <__floatsidf>
  801b84:	1009883a 	mov	r4,r2
  801b88:	180b883a 	mov	r5,r3
  801b8c:	04800044 	movi	r18,1
  801b90:	200d883a 	mov	r6,r4
  801b94:	280f883a 	mov	r7,r5
  801b98:	8009883a 	mov	r4,r16
  801b9c:	880b883a 	mov	r5,r17
  801ba0:	0805af40 	call	805af4 <__ledf2>
  801ba4:	10000116 	blt	r2,zero,801bac <logic+0x17ac>
  801ba8:	0025883a 	mov	r18,zero
  801bac:	9007883a 	mov	r3,r18
  801bb0:	e0bffc17 	ldw	r2,-16(fp)
  801bb4:	10c03c85 	stb	r3,242(r2)
  d->_g39 = d->_g33 && d->_cg34;
  801bb8:	e0bffc17 	ldw	r2,-16(fp)
  801bbc:	10802243 	ldbu	r2,137(r2)
  801bc0:	10803fcc 	andi	r2,r2,255
  801bc4:	1080201c 	xori	r2,r2,128
  801bc8:	10bfe004 	addi	r2,r2,-128
  801bcc:	10000826 	beq	r2,zero,801bf0 <logic+0x17f0>
  801bd0:	e0bffc17 	ldw	r2,-16(fp)
  801bd4:	10803c83 	ldbu	r2,242(r2)
  801bd8:	10803fcc 	andi	r2,r2,255
  801bdc:	1080201c 	xori	r2,r2,128
  801be0:	10bfe004 	addi	r2,r2,-128
  801be4:	10000226 	beq	r2,zero,801bf0 <logic+0x17f0>
  801be8:	00800044 	movi	r2,1
  801bec:	00000106 	br	801bf4 <logic+0x17f4>
  801bf0:	0005883a 	mov	r2,zero
  801bf4:	1007883a 	mov	r3,r2
  801bf8:	e0bffc17 	ldw	r2,-16(fp)
  801bfc:	10c02385 	stb	r3,142(r2)
  if (d->_g39) {
  801c00:	e0bffc17 	ldw	r2,-16(fp)
  801c04:	10802383 	ldbu	r2,142(r2)
  801c08:	10803fcc 	andi	r2,r2,255
  801c0c:	1080201c 	xori	r2,r2,128
  801c10:	10bfe004 	addi	r2,r2,-128
  801c14:	10003426 	beq	r2,zero,801ce8 <logic+0x18e8>
    d->sleepT = (d->sleepT < (d->PVARP_Constraint - d->_region1_PVARP_timer_t)) ? d->sleepT : (d->PVARP_Constraint - d->_region1_PVARP_timer_t);
  801c18:	e0bffc17 	ldw	r2,-16(fp)
  801c1c:	14001517 	ldw	r16,84(r2)
  801c20:	14401617 	ldw	r17,88(r2)
  801c24:	e0bffc17 	ldw	r2,-16(fp)
  801c28:	10800217 	ldw	r2,8(r2)
  801c2c:	1009883a 	mov	r4,r2
  801c30:	08064e40 	call	8064e4 <__floatsidf>
  801c34:	1011883a 	mov	r8,r2
  801c38:	1813883a 	mov	r9,r3
  801c3c:	e13ffc17 	ldw	r4,-16(fp)
  801c40:	20800917 	ldw	r2,36(r4)
  801c44:	20c00a17 	ldw	r3,40(r4)
  801c48:	100d883a 	mov	r6,r2
  801c4c:	180f883a 	mov	r7,r3
  801c50:	4009883a 	mov	r4,r8
  801c54:	480b883a 	mov	r5,r9
  801c58:	0805be80 	call	805be8 <__subdf3>
  801c5c:	1009883a 	mov	r4,r2
  801c60:	180b883a 	mov	r5,r3
  801c64:	2005883a 	mov	r2,r4
  801c68:	2807883a 	mov	r3,r5
  801c6c:	100d883a 	mov	r6,r2
  801c70:	180f883a 	mov	r7,r3
  801c74:	8009883a 	mov	r4,r16
  801c78:	880b883a 	mov	r5,r17
  801c7c:	0805af40 	call	805af4 <__ledf2>
  801c80:	1000040e 	bge	r2,zero,801c94 <logic+0x1894>
  801c84:	e13ffc17 	ldw	r4,-16(fp)
  801c88:	20801517 	ldw	r2,84(r4)
  801c8c:	20c01617 	ldw	r3,88(r4)
  801c90:	00001206 	br	801cdc <logic+0x18dc>
  801c94:	e0bffc17 	ldw	r2,-16(fp)
  801c98:	10800217 	ldw	r2,8(r2)
  801c9c:	1009883a 	mov	r4,r2
  801ca0:	08064e40 	call	8064e4 <__floatsidf>
  801ca4:	1011883a 	mov	r8,r2
  801ca8:	1813883a 	mov	r9,r3
  801cac:	e13ffc17 	ldw	r4,-16(fp)
  801cb0:	20800917 	ldw	r2,36(r4)
  801cb4:	20c00a17 	ldw	r3,40(r4)
  801cb8:	100d883a 	mov	r6,r2
  801cbc:	180f883a 	mov	r7,r3
  801cc0:	4009883a 	mov	r4,r8
  801cc4:	480b883a 	mov	r5,r9
  801cc8:	0805be80 	call	805be8 <__subdf3>
  801ccc:	1009883a 	mov	r4,r2
  801cd0:	180b883a 	mov	r5,r3
  801cd4:	2005883a 	mov	r2,r4
  801cd8:	2807883a 	mov	r3,r5
  801cdc:	e13ffc17 	ldw	r4,-16(fp)
  801ce0:	20801515 	stw	r2,84(r4)
  801ce4:	20c01615 	stw	r3,88(r4)
  }
  d->_cg35 = d->_Pacemaker_local__Atrig2 || d->_Pacemaker_local__Atrig3;
  801ce8:	e0bffc17 	ldw	r2,-16(fp)
  801cec:	10801a83 	ldbu	r2,106(r2)
  801cf0:	10803fcc 	andi	r2,r2,255
  801cf4:	1080201c 	xori	r2,r2,128
  801cf8:	10bfe004 	addi	r2,r2,-128
  801cfc:	1000061e 	bne	r2,zero,801d18 <logic+0x1918>
  801d00:	e0bffc17 	ldw	r2,-16(fp)
  801d04:	10801ac3 	ldbu	r2,107(r2)
  801d08:	10803fcc 	andi	r2,r2,255
  801d0c:	1080201c 	xori	r2,r2,128
  801d10:	10bfe004 	addi	r2,r2,-128
  801d14:	10000226 	beq	r2,zero,801d20 <logic+0x1920>
  801d18:	00800044 	movi	r2,1
  801d1c:	00000106 	br	801d24 <logic+0x1924>
  801d20:	0005883a 	mov	r2,zero
  801d24:	1007883a 	mov	r3,r2
  801d28:	e0bffc17 	ldw	r2,-16(fp)
  801d2c:	10c03c45 	stb	r3,241(r2)
  d->_g34 = d->_g33 && !d->_cg34;
  801d30:	e0bffc17 	ldw	r2,-16(fp)
  801d34:	10802243 	ldbu	r2,137(r2)
  801d38:	10803fcc 	andi	r2,r2,255
  801d3c:	1080201c 	xori	r2,r2,128
  801d40:	10bfe004 	addi	r2,r2,-128
  801d44:	10000826 	beq	r2,zero,801d68 <logic+0x1968>
  801d48:	e0bffc17 	ldw	r2,-16(fp)
  801d4c:	10803c83 	ldbu	r2,242(r2)
  801d50:	10803fcc 	andi	r2,r2,255
  801d54:	1080201c 	xori	r2,r2,128
  801d58:	10bfe004 	addi	r2,r2,-128
  801d5c:	1000021e 	bne	r2,zero,801d68 <logic+0x1968>
  801d60:	00800044 	movi	r2,1
  801d64:	00000106 	br	801d6c <logic+0x196c>
  801d68:	0005883a 	mov	r2,zero
  801d6c:	1007883a 	mov	r3,r2
  801d70:	e0bffc17 	ldw	r2,-16(fp)
  801d74:	10c02285 	stb	r3,138(r2)
  d->_cg37 = d->_Pacemaker_local__Atrig2 || d->_Pacemaker_local__Atrig3;
  801d78:	e0bffc17 	ldw	r2,-16(fp)
  801d7c:	10801a83 	ldbu	r2,106(r2)
  801d80:	10803fcc 	andi	r2,r2,255
  801d84:	1080201c 	xori	r2,r2,128
  801d88:	10bfe004 	addi	r2,r2,-128
  801d8c:	1000061e 	bne	r2,zero,801da8 <logic+0x19a8>
  801d90:	e0bffc17 	ldw	r2,-16(fp)
  801d94:	10801ac3 	ldbu	r2,107(r2)
  801d98:	10803fcc 	andi	r2,r2,255
  801d9c:	1080201c 	xori	r2,r2,128
  801da0:	10bfe004 	addi	r2,r2,-128
  801da4:	10000226 	beq	r2,zero,801db0 <logic+0x19b0>
  801da8:	00800044 	movi	r2,1
  801dac:	00000106 	br	801db4 <logic+0x19b4>
  801db0:	0005883a 	mov	r2,zero
  801db4:	1007883a 	mov	r3,r2
  801db8:	e0bffc17 	ldw	r2,-16(fp)
  801dbc:	10c03cc5 	stb	r3,243(r2)
  d->_g36 = d->_g39 && d->_cg35 || d->_g34 && d->_cg37;
  801dc0:	e0bffc17 	ldw	r2,-16(fp)
  801dc4:	10802383 	ldbu	r2,142(r2)
  801dc8:	10803fcc 	andi	r2,r2,255
  801dcc:	1080201c 	xori	r2,r2,128
  801dd0:	10bfe004 	addi	r2,r2,-128
  801dd4:	10000626 	beq	r2,zero,801df0 <logic+0x19f0>
  801dd8:	e0bffc17 	ldw	r2,-16(fp)
  801ddc:	10803c43 	ldbu	r2,241(r2)
  801de0:	10803fcc 	andi	r2,r2,255
  801de4:	1080201c 	xori	r2,r2,128
  801de8:	10bfe004 	addi	r2,r2,-128
  801dec:	10000c1e 	bne	r2,zero,801e20 <logic+0x1a20>
  801df0:	e0bffc17 	ldw	r2,-16(fp)
  801df4:	10802283 	ldbu	r2,138(r2)
  801df8:	10803fcc 	andi	r2,r2,255
  801dfc:	1080201c 	xori	r2,r2,128
  801e00:	10bfe004 	addi	r2,r2,-128
  801e04:	10000826 	beq	r2,zero,801e28 <logic+0x1a28>
  801e08:	e0bffc17 	ldw	r2,-16(fp)
  801e0c:	10803cc3 	ldbu	r2,243(r2)
  801e10:	10803fcc 	andi	r2,r2,255
  801e14:	1080201c 	xori	r2,r2,128
  801e18:	10bfe004 	addi	r2,r2,-128
  801e1c:	10000226 	beq	r2,zero,801e28 <logic+0x1a28>
  801e20:	00800044 	movi	r2,1
  801e24:	00000106 	br	801e2c <logic+0x1a2c>
  801e28:	0005883a 	mov	r2,zero
  801e2c:	1007883a 	mov	r3,r2
  801e30:	e0bffc17 	ldw	r2,-16(fp)
  801e34:	10c02305 	stb	r3,140(r2)
  d->_g43 = !d->_g22;
  801e38:	e0bffc17 	ldw	r2,-16(fp)
  801e3c:	108020c3 	ldbu	r2,131(r2)
  801e40:	10803fcc 	andi	r2,r2,255
  801e44:	1080201c 	xori	r2,r2,128
  801e48:	10bfe004 	addi	r2,r2,-128
  801e4c:	1005003a 	cmpeq	r2,r2,zero
  801e50:	1007883a 	mov	r3,r2
  801e54:	e0bffc17 	ldw	r2,-16(fp)
  801e58:	10c02405 	stb	r3,144(r2)
  d->_g44 = d->_g23 || d->_g47;
  801e5c:	e0bffc17 	ldw	r2,-16(fp)
  801e60:	10802103 	ldbu	r2,132(r2)
  801e64:	10803fcc 	andi	r2,r2,255
  801e68:	1080201c 	xori	r2,r2,128
  801e6c:	10bfe004 	addi	r2,r2,-128
  801e70:	1000061e 	bne	r2,zero,801e8c <logic+0x1a8c>
  801e74:	e0bffc17 	ldw	r2,-16(fp)
  801e78:	10802503 	ldbu	r2,148(r2)
  801e7c:	10803fcc 	andi	r2,r2,255
  801e80:	1080201c 	xori	r2,r2,128
  801e84:	10bfe004 	addi	r2,r2,-128
  801e88:	10000226 	beq	r2,zero,801e94 <logic+0x1a94>
  801e8c:	00800044 	movi	r2,1
  801e90:	00000106 	br	801e98 <logic+0x1a98>
  801e94:	0005883a 	mov	r2,zero
  801e98:	1007883a 	mov	r3,r2
  801e9c:	e0bffc17 	ldw	r2,-16(fp)
  801ea0:	10c02445 	stb	r3,145(r2)
  d->_g47 = (d->_g19_e2 || d->_g36) && (d->_g43 || d->_g44) && (d->_g36 || d->_g44);
  801ea4:	e0bffc17 	ldw	r2,-16(fp)
  801ea8:	10804743 	ldbu	r2,285(r2)
  801eac:	10803fcc 	andi	r2,r2,255
  801eb0:	1080201c 	xori	r2,r2,128
  801eb4:	10bfe004 	addi	r2,r2,-128
  801eb8:	1000061e 	bne	r2,zero,801ed4 <logic+0x1ad4>
  801ebc:	e0bffc17 	ldw	r2,-16(fp)
  801ec0:	10802303 	ldbu	r2,140(r2)
  801ec4:	10803fcc 	andi	r2,r2,255
  801ec8:	1080201c 	xori	r2,r2,128
  801ecc:	10bfe004 	addi	r2,r2,-128
  801ed0:	10001a26 	beq	r2,zero,801f3c <logic+0x1b3c>
  801ed4:	e0bffc17 	ldw	r2,-16(fp)
  801ed8:	10802403 	ldbu	r2,144(r2)
  801edc:	10803fcc 	andi	r2,r2,255
  801ee0:	1080201c 	xori	r2,r2,128
  801ee4:	10bfe004 	addi	r2,r2,-128
  801ee8:	1000061e 	bne	r2,zero,801f04 <logic+0x1b04>
  801eec:	e0bffc17 	ldw	r2,-16(fp)
  801ef0:	10802443 	ldbu	r2,145(r2)
  801ef4:	10803fcc 	andi	r2,r2,255
  801ef8:	1080201c 	xori	r2,r2,128
  801efc:	10bfe004 	addi	r2,r2,-128
  801f00:	10000e26 	beq	r2,zero,801f3c <logic+0x1b3c>
  801f04:	e0bffc17 	ldw	r2,-16(fp)
  801f08:	10802303 	ldbu	r2,140(r2)
  801f0c:	10803fcc 	andi	r2,r2,255
  801f10:	1080201c 	xori	r2,r2,128
  801f14:	10bfe004 	addi	r2,r2,-128
  801f18:	1000061e 	bne	r2,zero,801f34 <logic+0x1b34>
  801f1c:	e0bffc17 	ldw	r2,-16(fp)
  801f20:	10802443 	ldbu	r2,145(r2)
  801f24:	10803fcc 	andi	r2,r2,255
  801f28:	1080201c 	xori	r2,r2,128
  801f2c:	10bfe004 	addi	r2,r2,-128
  801f30:	10000226 	beq	r2,zero,801f3c <logic+0x1b3c>
  801f34:	00800044 	movi	r2,1
  801f38:	00000106 	br	801f40 <logic+0x1b40>
  801f3c:	0005883a 	mov	r2,zero
  801f40:	1007883a 	mov	r3,r2
  801f44:	e0bffc17 	ldw	r2,-16(fp)
  801f48:	10c02505 	stb	r3,148(r2)
  d->_cg48 = d->_Pacemaker_local__Atrig2;
  801f4c:	e0bffc17 	ldw	r2,-16(fp)
  801f50:	10c01a83 	ldbu	r3,106(r2)
  801f54:	e0bffc17 	ldw	r2,-16(fp)
  801f58:	10c03b05 	stb	r3,236(r2)
  d->_g45_e2 = d->_GO || d->_g47 && !d->_cg48 || d->_g51 || d->_g50 && !d->_cg50;
  801f5c:	e0bffc17 	ldw	r2,-16(fp)
  801f60:	10803903 	ldbu	r2,228(r2)
  801f64:	10803fcc 	andi	r2,r2,255
  801f68:	1080201c 	xori	r2,r2,128
  801f6c:	10bfe004 	addi	r2,r2,-128
  801f70:	10001e1e 	bne	r2,zero,801fec <logic+0x1bec>
  801f74:	e0bffc17 	ldw	r2,-16(fp)
  801f78:	10802503 	ldbu	r2,148(r2)
  801f7c:	10803fcc 	andi	r2,r2,255
  801f80:	1080201c 	xori	r2,r2,128
  801f84:	10bfe004 	addi	r2,r2,-128
  801f88:	10000626 	beq	r2,zero,801fa4 <logic+0x1ba4>
  801f8c:	e0bffc17 	ldw	r2,-16(fp)
  801f90:	10803b03 	ldbu	r2,236(r2)
  801f94:	10803fcc 	andi	r2,r2,255
  801f98:	1080201c 	xori	r2,r2,128
  801f9c:	10bfe004 	addi	r2,r2,-128
  801fa0:	10001226 	beq	r2,zero,801fec <logic+0x1bec>
  801fa4:	e0bffc17 	ldw	r2,-16(fp)
  801fa8:	10802603 	ldbu	r2,152(r2)
  801fac:	10803fcc 	andi	r2,r2,255
  801fb0:	1080201c 	xori	r2,r2,128
  801fb4:	10bfe004 	addi	r2,r2,-128
  801fb8:	10000c1e 	bne	r2,zero,801fec <logic+0x1bec>
  801fbc:	e0bffc17 	ldw	r2,-16(fp)
  801fc0:	108025c3 	ldbu	r2,151(r2)
  801fc4:	10803fcc 	andi	r2,r2,255
  801fc8:	1080201c 	xori	r2,r2,128
  801fcc:	10bfe004 	addi	r2,r2,-128
  801fd0:	10000826 	beq	r2,zero,801ff4 <logic+0x1bf4>
  801fd4:	e0bffc17 	ldw	r2,-16(fp)
  801fd8:	10803b43 	ldbu	r2,237(r2)
  801fdc:	10803fcc 	andi	r2,r2,255
  801fe0:	1080201c 	xori	r2,r2,128
  801fe4:	10bfe004 	addi	r2,r2,-128
  801fe8:	1000021e 	bne	r2,zero,801ff4 <logic+0x1bf4>
  801fec:	00800044 	movi	r2,1
  801ff0:	00000106 	br	801ff8 <logic+0x1bf8>
  801ff4:	0005883a 	mov	r2,zero
  801ff8:	1007883a 	mov	r3,r2
  801ffc:	e0bffc17 	ldw	r2,-16(fp)
  802000:	10c047c5 	stb	r3,287(r2)
  d->_g36_e1 = d->_g27 && d->_cg27;
  802004:	e0bffc17 	ldw	r2,-16(fp)
  802008:	10802143 	ldbu	r2,133(r2)
  80200c:	10803fcc 	andi	r2,r2,255
  802010:	1080201c 	xori	r2,r2,128
  802014:	10bfe004 	addi	r2,r2,-128
  802018:	10000826 	beq	r2,zero,80203c <logic+0x1c3c>
  80201c:	e0bffc17 	ldw	r2,-16(fp)
  802020:	10803b83 	ldbu	r2,238(r2)
  802024:	10803fcc 	andi	r2,r2,255
  802028:	1080201c 	xori	r2,r2,128
  80202c:	10bfe004 	addi	r2,r2,-128
  802030:	10000226 	beq	r2,zero,80203c <logic+0x1c3c>
  802034:	00800044 	movi	r2,1
  802038:	00000106 	br	802040 <logic+0x1c40>
  80203c:	0005883a 	mov	r2,zero
  802040:	1007883a 	mov	r3,r2
  802044:	e0bffc17 	ldw	r2,-16(fp)
  802048:	10c04785 	stb	r3,286(r2)
  if (d->_g36_e1) {
  80204c:	e0bffc17 	ldw	r2,-16(fp)
  802050:	10804783 	ldbu	r2,286(r2)
  802054:	10803fcc 	andi	r2,r2,255
  802058:	1080201c 	xori	r2,r2,128
  80205c:	10bfe004 	addi	r2,r2,-128
  802060:	10000326 	beq	r2,zero,802070 <logic+0x1c70>
    d->_region1_PVARP_timer_t = 0;
  802064:	e0bffc17 	ldw	r2,-16(fp)
  802068:	10000915 	stw	zero,36(r2)
  80206c:	10000a15 	stw	zero,40(r2)
  }
  d->_g45 = d->_g47 && d->_cg48;
  802070:	e0bffc17 	ldw	r2,-16(fp)
  802074:	10802503 	ldbu	r2,148(r2)
  802078:	10803fcc 	andi	r2,r2,255
  80207c:	1080201c 	xori	r2,r2,128
  802080:	10bfe004 	addi	r2,r2,-128
  802084:	10000826 	beq	r2,zero,8020a8 <logic+0x1ca8>
  802088:	e0bffc17 	ldw	r2,-16(fp)
  80208c:	10803b03 	ldbu	r2,236(r2)
  802090:	10803fcc 	andi	r2,r2,255
  802094:	1080201c 	xori	r2,r2,128
  802098:	10bfe004 	addi	r2,r2,-128
  80209c:	10000226 	beq	r2,zero,8020a8 <logic+0x1ca8>
  8020a0:	00800044 	movi	r2,1
  8020a4:	00000106 	br	8020ac <logic+0x1cac>
  8020a8:	0005883a 	mov	r2,zero
  8020ac:	1007883a 	mov	r3,r2
  8020b0:	e0bffc17 	ldw	r2,-16(fp)
  8020b4:	10c02485 	stb	r3,146(r2)
  if (d->_g45) {
  8020b8:	e0bffc17 	ldw	r2,-16(fp)
  8020bc:	10802483 	ldbu	r2,146(r2)
  8020c0:	10803fcc 	andi	r2,r2,255
  8020c4:	1080201c 	xori	r2,r2,128
  8020c8:	10bfe004 	addi	r2,r2,-128
  8020cc:	10000626 	beq	r2,zero,8020e8 <logic+0x1ce8>
    d->AR |= 1;
  8020d0:	e0bffc17 	ldw	r2,-16(fp)
  8020d4:	108018c3 	ldbu	r2,99(r2)
  8020d8:	10800054 	ori	r2,r2,1
  8020dc:	1007883a 	mov	r3,r2
  8020e0:	e0bffc17 	ldw	r2,-16(fp)
  8020e4:	10c018c5 	stb	r3,99(r2)
  }
  d->_g36 = d->_g36_e1 || d->_g45;
  8020e8:	e0bffc17 	ldw	r2,-16(fp)
  8020ec:	10804783 	ldbu	r2,286(r2)
  8020f0:	10803fcc 	andi	r2,r2,255
  8020f4:	1080201c 	xori	r2,r2,128
  8020f8:	10bfe004 	addi	r2,r2,-128
  8020fc:	1000061e 	bne	r2,zero,802118 <logic+0x1d18>
  802100:	e0bffc17 	ldw	r2,-16(fp)
  802104:	10802483 	ldbu	r2,146(r2)
  802108:	10803fcc 	andi	r2,r2,255
  80210c:	1080201c 	xori	r2,r2,128
  802110:	10bfe004 	addi	r2,r2,-128
  802114:	10000226 	beq	r2,zero,802120 <logic+0x1d20>
  802118:	00800044 	movi	r2,1
  80211c:	00000106 	br	802124 <logic+0x1d24>
  802120:	0005883a 	mov	r2,zero
  802124:	1007883a 	mov	r3,r2
  802128:	e0bffc17 	ldw	r2,-16(fp)
  80212c:	10c02305 	stb	r3,140(r2)
  if (d->_g36) {
  802130:	e0bffc17 	ldw	r2,-16(fp)
  802134:	10802303 	ldbu	r2,140(r2)
  802138:	10803fcc 	andi	r2,r2,255
  80213c:	1080201c 	xori	r2,r2,128
  802140:	10bfe004 	addi	r2,r2,-128
  802144:	10000426 	beq	r2,zero,802158 <logic+0x1d58>
    d->_Pacemaker_local__Atrig2 = 0;
  802148:	e0bffc17 	ldw	r2,-16(fp)
  80214c:	10001a85 	stb	zero,106(r2)
    d->_Pacemaker_local__Atrig3 = 0;
  802150:	e0bffc17 	ldw	r2,-16(fp)
  802154:	10001ac5 	stb	zero,107(r2)
  }
  d->_cg30 = d->_region1_PVARP_timer_t < d->PVARP_Constraint;
  802158:	e0bffc17 	ldw	r2,-16(fp)
  80215c:	14000917 	ldw	r16,36(r2)
  802160:	14400a17 	ldw	r17,40(r2)
  802164:	e0bffc17 	ldw	r2,-16(fp)
  802168:	10800217 	ldw	r2,8(r2)
  80216c:	1009883a 	mov	r4,r2
  802170:	08064e40 	call	8064e4 <__floatsidf>
  802174:	1009883a 	mov	r4,r2
  802178:	180b883a 	mov	r5,r3
  80217c:	04800044 	movi	r18,1
  802180:	200d883a 	mov	r6,r4
  802184:	280f883a 	mov	r7,r5
  802188:	8009883a 	mov	r4,r16
  80218c:	880b883a 	mov	r5,r17
  802190:	0805af40 	call	805af4 <__ledf2>
  802194:	10000116 	blt	r2,zero,80219c <logic+0x1d9c>
  802198:	0025883a 	mov	r18,zero
  80219c:	9007883a 	mov	r3,r18
  8021a0:	e0bffc17 	ldw	r2,-16(fp)
  8021a4:	10c03bc5 	stb	r3,239(r2)
  d->_g51 = d->_g36 && d->_cg30;
  8021a8:	e0bffc17 	ldw	r2,-16(fp)
  8021ac:	10802303 	ldbu	r2,140(r2)
  8021b0:	10803fcc 	andi	r2,r2,255
  8021b4:	1080201c 	xori	r2,r2,128
  8021b8:	10bfe004 	addi	r2,r2,-128
  8021bc:	10000826 	beq	r2,zero,8021e0 <logic+0x1de0>
  8021c0:	e0bffc17 	ldw	r2,-16(fp)
  8021c4:	10803bc3 	ldbu	r2,239(r2)
  8021c8:	10803fcc 	andi	r2,r2,255
  8021cc:	1080201c 	xori	r2,r2,128
  8021d0:	10bfe004 	addi	r2,r2,-128
  8021d4:	10000226 	beq	r2,zero,8021e0 <logic+0x1de0>
  8021d8:	00800044 	movi	r2,1
  8021dc:	00000106 	br	8021e4 <logic+0x1de4>
  8021e0:	0005883a 	mov	r2,zero
  8021e4:	1007883a 	mov	r3,r2
  8021e8:	e0bffc17 	ldw	r2,-16(fp)
  8021ec:	10c02605 	stb	r3,152(r2)
  if (d->_g51) {
  8021f0:	e0bffc17 	ldw	r2,-16(fp)
  8021f4:	10802603 	ldbu	r2,152(r2)
  8021f8:	10803fcc 	andi	r2,r2,255
  8021fc:	1080201c 	xori	r2,r2,128
  802200:	10bfe004 	addi	r2,r2,-128
  802204:	10003426 	beq	r2,zero,8022d8 <logic+0x1ed8>
    d->sleepT = (d->sleepT < (d->PVARP_Constraint - d->_region1_PVARP_timer_t)) ? d->sleepT : (d->PVARP_Constraint - d->_region1_PVARP_timer_t);
  802208:	e0bffc17 	ldw	r2,-16(fp)
  80220c:	14001517 	ldw	r16,84(r2)
  802210:	14401617 	ldw	r17,88(r2)
  802214:	e0bffc17 	ldw	r2,-16(fp)
  802218:	10800217 	ldw	r2,8(r2)
  80221c:	1009883a 	mov	r4,r2
  802220:	08064e40 	call	8064e4 <__floatsidf>
  802224:	1011883a 	mov	r8,r2
  802228:	1813883a 	mov	r9,r3
  80222c:	e13ffc17 	ldw	r4,-16(fp)
  802230:	20800917 	ldw	r2,36(r4)
  802234:	20c00a17 	ldw	r3,40(r4)
  802238:	100d883a 	mov	r6,r2
  80223c:	180f883a 	mov	r7,r3
  802240:	4009883a 	mov	r4,r8
  802244:	480b883a 	mov	r5,r9
  802248:	0805be80 	call	805be8 <__subdf3>
  80224c:	1009883a 	mov	r4,r2
  802250:	180b883a 	mov	r5,r3
  802254:	2005883a 	mov	r2,r4
  802258:	2807883a 	mov	r3,r5
  80225c:	100d883a 	mov	r6,r2
  802260:	180f883a 	mov	r7,r3
  802264:	8009883a 	mov	r4,r16
  802268:	880b883a 	mov	r5,r17
  80226c:	0805af40 	call	805af4 <__ledf2>
  802270:	1000040e 	bge	r2,zero,802284 <logic+0x1e84>
  802274:	e13ffc17 	ldw	r4,-16(fp)
  802278:	20801517 	ldw	r2,84(r4)
  80227c:	20c01617 	ldw	r3,88(r4)
  802280:	00001206 	br	8022cc <logic+0x1ecc>
  802284:	e0bffc17 	ldw	r2,-16(fp)
  802288:	10800217 	ldw	r2,8(r2)
  80228c:	1009883a 	mov	r4,r2
  802290:	08064e40 	call	8064e4 <__floatsidf>
  802294:	1011883a 	mov	r8,r2
  802298:	1813883a 	mov	r9,r3
  80229c:	e13ffc17 	ldw	r4,-16(fp)
  8022a0:	20800917 	ldw	r2,36(r4)
  8022a4:	20c00a17 	ldw	r3,40(r4)
  8022a8:	100d883a 	mov	r6,r2
  8022ac:	180f883a 	mov	r7,r3
  8022b0:	4009883a 	mov	r4,r8
  8022b4:	480b883a 	mov	r5,r9
  8022b8:	0805be80 	call	805be8 <__subdf3>
  8022bc:	1009883a 	mov	r4,r2
  8022c0:	180b883a 	mov	r5,r3
  8022c4:	2005883a 	mov	r2,r4
  8022c8:	2807883a 	mov	r3,r5
  8022cc:	e13ffc17 	ldw	r4,-16(fp)
  8022d0:	20801515 	stw	r2,84(r4)
  8022d4:	20c01615 	stw	r3,88(r4)
  }
  d->_cg31 = d->_Pacemaker_local__Atrig2 || d->_Pacemaker_local__Atrig3;
  8022d8:	e0bffc17 	ldw	r2,-16(fp)
  8022dc:	10801a83 	ldbu	r2,106(r2)
  8022e0:	10803fcc 	andi	r2,r2,255
  8022e4:	1080201c 	xori	r2,r2,128
  8022e8:	10bfe004 	addi	r2,r2,-128
  8022ec:	1000061e 	bne	r2,zero,802308 <logic+0x1f08>
  8022f0:	e0bffc17 	ldw	r2,-16(fp)
  8022f4:	10801ac3 	ldbu	r2,107(r2)
  8022f8:	10803fcc 	andi	r2,r2,255
  8022fc:	1080201c 	xori	r2,r2,128
  802300:	10bfe004 	addi	r2,r2,-128
  802304:	10000226 	beq	r2,zero,802310 <logic+0x1f10>
  802308:	00800044 	movi	r2,1
  80230c:	00000106 	br	802314 <logic+0x1f14>
  802310:	0005883a 	mov	r2,zero
  802314:	1007883a 	mov	r3,r2
  802318:	e0bffc17 	ldw	r2,-16(fp)
  80231c:	10c03c05 	stb	r3,240(r2)
  d->_g50 = d->_g51 && !d->_cg31 || d->_g39 && !d->_cg35;
  802320:	e0bffc17 	ldw	r2,-16(fp)
  802324:	10802603 	ldbu	r2,152(r2)
  802328:	10803fcc 	andi	r2,r2,255
  80232c:	1080201c 	xori	r2,r2,128
  802330:	10bfe004 	addi	r2,r2,-128
  802334:	10000626 	beq	r2,zero,802350 <logic+0x1f50>
  802338:	e0bffc17 	ldw	r2,-16(fp)
  80233c:	10803c03 	ldbu	r2,240(r2)
  802340:	10803fcc 	andi	r2,r2,255
  802344:	1080201c 	xori	r2,r2,128
  802348:	10bfe004 	addi	r2,r2,-128
  80234c:	10000c26 	beq	r2,zero,802380 <logic+0x1f80>
  802350:	e0bffc17 	ldw	r2,-16(fp)
  802354:	10802383 	ldbu	r2,142(r2)
  802358:	10803fcc 	andi	r2,r2,255
  80235c:	1080201c 	xori	r2,r2,128
  802360:	10bfe004 	addi	r2,r2,-128
  802364:	10000826 	beq	r2,zero,802388 <logic+0x1f88>
  802368:	e0bffc17 	ldw	r2,-16(fp)
  80236c:	10803c43 	ldbu	r2,241(r2)
  802370:	10803fcc 	andi	r2,r2,255
  802374:	1080201c 	xori	r2,r2,128
  802378:	10bfe004 	addi	r2,r2,-128
  80237c:	1000021e 	bne	r2,zero,802388 <logic+0x1f88>
  802380:	00800044 	movi	r2,1
  802384:	00000106 	br	80238c <logic+0x1f8c>
  802388:	0005883a 	mov	r2,zero
  80238c:	1007883a 	mov	r3,r2
  802390:	e0bffc17 	ldw	r2,-16(fp)
  802394:	10c025c5 	stb	r3,151(r2)
  d->_g27 = d->_g36 && !d->_cg30;
  802398:	e0bffc17 	ldw	r2,-16(fp)
  80239c:	10802303 	ldbu	r2,140(r2)
  8023a0:	10803fcc 	andi	r2,r2,255
  8023a4:	1080201c 	xori	r2,r2,128
  8023a8:	10bfe004 	addi	r2,r2,-128
  8023ac:	10000826 	beq	r2,zero,8023d0 <logic+0x1fd0>
  8023b0:	e0bffc17 	ldw	r2,-16(fp)
  8023b4:	10803bc3 	ldbu	r2,239(r2)
  8023b8:	10803fcc 	andi	r2,r2,255
  8023bc:	1080201c 	xori	r2,r2,128
  8023c0:	10bfe004 	addi	r2,r2,-128
  8023c4:	1000021e 	bne	r2,zero,8023d0 <logic+0x1fd0>
  8023c8:	00800044 	movi	r2,1
  8023cc:	00000106 	br	8023d4 <logic+0x1fd4>
  8023d0:	0005883a 	mov	r2,zero
  8023d4:	1007883a 	mov	r3,r2
  8023d8:	e0bffc17 	ldw	r2,-16(fp)
  8023dc:	10c02145 	stb	r3,133(r2)
  d->_cg40 = d->_Pacemaker_local__Atrig2 || d->_Pacemaker_local__Atrig3;
  8023e0:	e0bffc17 	ldw	r2,-16(fp)
  8023e4:	10801a83 	ldbu	r2,106(r2)
  8023e8:	10803fcc 	andi	r2,r2,255
  8023ec:	1080201c 	xori	r2,r2,128
  8023f0:	10bfe004 	addi	r2,r2,-128
  8023f4:	1000061e 	bne	r2,zero,802410 <logic+0x2010>
  8023f8:	e0bffc17 	ldw	r2,-16(fp)
  8023fc:	10801ac3 	ldbu	r2,107(r2)
  802400:	10803fcc 	andi	r2,r2,255
  802404:	1080201c 	xori	r2,r2,128
  802408:	10bfe004 	addi	r2,r2,-128
  80240c:	10000226 	beq	r2,zero,802418 <logic+0x2018>
  802410:	00800044 	movi	r2,1
  802414:	00000106 	br	80241c <logic+0x201c>
  802418:	0005883a 	mov	r2,zero
  80241c:	1007883a 	mov	r3,r2
  802420:	e0bffc17 	ldw	r2,-16(fp)
  802424:	10c03d05 	stb	r3,244(r2)
  d->_g48 = d->_g34 && !d->_cg37 || d->_g27 && !d->_cg40;
  802428:	e0bffc17 	ldw	r2,-16(fp)
  80242c:	10802283 	ldbu	r2,138(r2)
  802430:	10803fcc 	andi	r2,r2,255
  802434:	1080201c 	xori	r2,r2,128
  802438:	10bfe004 	addi	r2,r2,-128
  80243c:	10000626 	beq	r2,zero,802458 <logic+0x2058>
  802440:	e0bffc17 	ldw	r2,-16(fp)
  802444:	10803cc3 	ldbu	r2,243(r2)
  802448:	10803fcc 	andi	r2,r2,255
  80244c:	1080201c 	xori	r2,r2,128
  802450:	10bfe004 	addi	r2,r2,-128
  802454:	10000c26 	beq	r2,zero,802488 <logic+0x2088>
  802458:	e0bffc17 	ldw	r2,-16(fp)
  80245c:	10802143 	ldbu	r2,133(r2)
  802460:	10803fcc 	andi	r2,r2,255
  802464:	1080201c 	xori	r2,r2,128
  802468:	10bfe004 	addi	r2,r2,-128
  80246c:	10000826 	beq	r2,zero,802490 <logic+0x2090>
  802470:	e0bffc17 	ldw	r2,-16(fp)
  802474:	10803d03 	ldbu	r2,244(r2)
  802478:	10803fcc 	andi	r2,r2,255
  80247c:	1080201c 	xori	r2,r2,128
  802480:	10bfe004 	addi	r2,r2,-128
  802484:	1000021e 	bne	r2,zero,802490 <logic+0x2090>
  802488:	00800044 	movi	r2,1
  80248c:	00000106 	br	802494 <logic+0x2094>
  802490:	0005883a 	mov	r2,zero
  802494:	1007883a 	mov	r3,r2
  802498:	e0bffc17 	ldw	r2,-16(fp)
  80249c:	10c02545 	stb	r3,149(r2)
  d->_g49 = d->_g36 || d->_g46 && !d->_cg46;
  8024a0:	e0bffc17 	ldw	r2,-16(fp)
  8024a4:	10802303 	ldbu	r2,140(r2)
  8024a8:	10803fcc 	andi	r2,r2,255
  8024ac:	1080201c 	xori	r2,r2,128
  8024b0:	10bfe004 	addi	r2,r2,-128
  8024b4:	10000c1e 	bne	r2,zero,8024e8 <logic+0x20e8>
  8024b8:	e0bffc17 	ldw	r2,-16(fp)
  8024bc:	108024c3 	ldbu	r2,147(r2)
  8024c0:	10803fcc 	andi	r2,r2,255
  8024c4:	1080201c 	xori	r2,r2,128
  8024c8:	10bfe004 	addi	r2,r2,-128
  8024cc:	10000826 	beq	r2,zero,8024f0 <logic+0x20f0>
  8024d0:	e0bffc17 	ldw	r2,-16(fp)
  8024d4:	10803d43 	ldbu	r2,245(r2)
  8024d8:	10803fcc 	andi	r2,r2,255
  8024dc:	1080201c 	xori	r2,r2,128
  8024e0:	10bfe004 	addi	r2,r2,-128
  8024e4:	1000021e 	bne	r2,zero,8024f0 <logic+0x20f0>
  8024e8:	00800044 	movi	r2,1
  8024ec:	00000106 	br	8024f4 <logic+0x20f4>
  8024f0:	0005883a 	mov	r2,zero
  8024f4:	1007883a 	mov	r3,r2
  8024f8:	e0bffc17 	ldw	r2,-16(fp)
  8024fc:	10c02585 	stb	r3,150(r2)
  d->_g28 = d->_pg77;
  802500:	e0bffc17 	ldw	r2,-16(fp)
  802504:	10c04ec3 	ldbu	r3,315(r2)
  802508:	e0bffc17 	ldw	r2,-16(fp)
  80250c:	10c02185 	stb	r3,134(r2)
  d->_g35 = d->_pg55;
  802510:	e0bffc17 	ldw	r2,-16(fp)
  802514:	10c04f03 	ldbu	r3,316(r2)
  802518:	e0bffc17 	ldw	r2,-16(fp)
  80251c:	10c022c5 	stb	r3,139(r2)
  d->_g31 = !(d->_g28 || d->_g35);
  802520:	e0bffc17 	ldw	r2,-16(fp)
  802524:	10802183 	ldbu	r2,134(r2)
  802528:	10803fcc 	andi	r2,r2,255
  80252c:	1080201c 	xori	r2,r2,128
  802530:	10bfe004 	addi	r2,r2,-128
  802534:	1000081e 	bne	r2,zero,802558 <logic+0x2158>
  802538:	e0bffc17 	ldw	r2,-16(fp)
  80253c:	108022c3 	ldbu	r2,139(r2)
  802540:	10803fcc 	andi	r2,r2,255
  802544:	1080201c 	xori	r2,r2,128
  802548:	10bfe004 	addi	r2,r2,-128
  80254c:	1000021e 	bne	r2,zero,802558 <logic+0x2158>
  802550:	00800044 	movi	r2,1
  802554:	00000106 	br	80255c <logic+0x215c>
  802558:	0005883a 	mov	r2,zero
  80255c:	1007883a 	mov	r3,r2
  802560:	e0bffc17 	ldw	r2,-16(fp)
  802564:	10c02205 	stb	r3,136(r2)
  d->_g40 = d->_pg56;
  802568:	e0bffc17 	ldw	r2,-16(fp)
  80256c:	10c04f43 	ldbu	r3,317(r2)
  802570:	e0bffc17 	ldw	r2,-16(fp)
  802574:	10c023c5 	stb	r3,143(r2)
  d->_g37 = d->_g40 && d->VS;
  802578:	e0bffc17 	ldw	r2,-16(fp)
  80257c:	108023c3 	ldbu	r2,143(r2)
  802580:	10803fcc 	andi	r2,r2,255
  802584:	1080201c 	xori	r2,r2,128
  802588:	10bfe004 	addi	r2,r2,-128
  80258c:	10000826 	beq	r2,zero,8025b0 <logic+0x21b0>
  802590:	e0bffc17 	ldw	r2,-16(fp)
  802594:	10801743 	ldbu	r2,93(r2)
  802598:	10803fcc 	andi	r2,r2,255
  80259c:	1080201c 	xori	r2,r2,128
  8025a0:	10bfe004 	addi	r2,r2,-128
  8025a4:	10000226 	beq	r2,zero,8025b0 <logic+0x21b0>
  8025a8:	00800044 	movi	r2,1
  8025ac:	00000106 	br	8025b4 <logic+0x21b4>
  8025b0:	0005883a 	mov	r2,zero
  8025b4:	1007883a 	mov	r3,r2
  8025b8:	e0bffc17 	ldw	r2,-16(fp)
  8025bc:	10c02345 	stb	r3,141(r2)
  if (d->_g37) {
  8025c0:	e0bffc17 	ldw	r2,-16(fp)
  8025c4:	10802343 	ldbu	r2,141(r2)
  8025c8:	10803fcc 	andi	r2,r2,255
  8025cc:	1080201c 	xori	r2,r2,128
  8025d0:	10bfe004 	addi	r2,r2,-128
  8025d4:	10000326 	beq	r2,zero,8025e4 <logic+0x21e4>
    d->_Pacemaker_local__Atrig4 = 1;
  8025d8:	e0bffc17 	ldw	r2,-16(fp)
  8025dc:	00c00044 	movi	r3,1
  8025e0:	10c01b05 	stb	r3,108(r2)
  }
  d->_g46 = d->_g40 && !d->VS;
  8025e4:	e0bffc17 	ldw	r2,-16(fp)
  8025e8:	108023c3 	ldbu	r2,143(r2)
  8025ec:	10803fcc 	andi	r2,r2,255
  8025f0:	1080201c 	xori	r2,r2,128
  8025f4:	10bfe004 	addi	r2,r2,-128
  8025f8:	10000826 	beq	r2,zero,80261c <logic+0x221c>
  8025fc:	e0bffc17 	ldw	r2,-16(fp)
  802600:	10801743 	ldbu	r2,93(r2)
  802604:	10803fcc 	andi	r2,r2,255
  802608:	1080201c 	xori	r2,r2,128
  80260c:	10bfe004 	addi	r2,r2,-128
  802610:	1000021e 	bne	r2,zero,80261c <logic+0x221c>
  802614:	00800044 	movi	r2,1
  802618:	00000106 	br	802620 <logic+0x2220>
  80261c:	0005883a 	mov	r2,zero
  802620:	1007883a 	mov	r3,r2
  802624:	e0bffc17 	ldw	r2,-16(fp)
  802628:	10c024c5 	stb	r3,147(r2)
  d->_cg74 = d->_region2_VRP_timer_t >= d->VRP_Constraint;
  80262c:	e0bffc17 	ldw	r2,-16(fp)
  802630:	14000b17 	ldw	r16,44(r2)
  802634:	14400c17 	ldw	r17,48(r2)
  802638:	e0bffc17 	ldw	r2,-16(fp)
  80263c:	10800317 	ldw	r2,12(r2)
  802640:	1009883a 	mov	r4,r2
  802644:	08064e40 	call	8064e4 <__floatsidf>
  802648:	1009883a 	mov	r4,r2
  80264c:	180b883a 	mov	r5,r3
  802650:	04800044 	movi	r18,1
  802654:	200d883a 	mov	r6,r4
  802658:	280f883a 	mov	r7,r5
  80265c:	8009883a 	mov	r4,r16
  802660:	880b883a 	mov	r5,r17
  802664:	0805a180 	call	805a18 <__gedf2>
  802668:	1000010e 	bge	r2,zero,802670 <logic+0x2270>
  80266c:	0025883a 	mov	r18,zero
  802670:	9007883a 	mov	r3,r18
  802674:	e0bffc17 	ldw	r2,-16(fp)
  802678:	10c03fc5 	stb	r3,255(r2)
  d->_g29 = d->_g46 && d->_cg74;
  80267c:	e0bffc17 	ldw	r2,-16(fp)
  802680:	108024c3 	ldbu	r2,147(r2)
  802684:	10803fcc 	andi	r2,r2,255
  802688:	1080201c 	xori	r2,r2,128
  80268c:	10bfe004 	addi	r2,r2,-128
  802690:	10000826 	beq	r2,zero,8026b4 <logic+0x22b4>
  802694:	e0bffc17 	ldw	r2,-16(fp)
  802698:	10803fc3 	ldbu	r2,255(r2)
  80269c:	10803fcc 	andi	r2,r2,255
  8026a0:	1080201c 	xori	r2,r2,128
  8026a4:	10bfe004 	addi	r2,r2,-128
  8026a8:	10000226 	beq	r2,zero,8026b4 <logic+0x22b4>
  8026ac:	00800044 	movi	r2,1
  8026b0:	00000106 	br	8026b8 <logic+0x22b8>
  8026b4:	0005883a 	mov	r2,zero
  8026b8:	1007883a 	mov	r3,r2
  8026bc:	e0bffc17 	ldw	r2,-16(fp)
  8026c0:	10c021c5 	stb	r3,135(r2)
  if (d->_g29) {
  8026c4:	e0bffc17 	ldw	r2,-16(fp)
  8026c8:	108021c3 	ldbu	r2,135(r2)
  8026cc:	10803fcc 	andi	r2,r2,255
  8026d0:	1080201c 	xori	r2,r2,128
  8026d4:	10bfe004 	addi	r2,r2,-128
  8026d8:	10000326 	beq	r2,zero,8026e8 <logic+0x22e8>
    d->_Pacemaker_local__Atrig5 = 1;
  8026dc:	e0bffc17 	ldw	r2,-16(fp)
  8026e0:	00c00044 	movi	r3,1
  8026e4:	10c01b45 	stb	r3,109(r2)
  }
  d->_g67 = d->_g35 || d->_g28;
  8026e8:	e0bffc17 	ldw	r2,-16(fp)
  8026ec:	108022c3 	ldbu	r2,139(r2)
  8026f0:	10803fcc 	andi	r2,r2,255
  8026f4:	1080201c 	xori	r2,r2,128
  8026f8:	10bfe004 	addi	r2,r2,-128
  8026fc:	1000061e 	bne	r2,zero,802718 <logic+0x2318>
  802700:	e0bffc17 	ldw	r2,-16(fp)
  802704:	10802183 	ldbu	r2,134(r2)
  802708:	10803fcc 	andi	r2,r2,255
  80270c:	1080201c 	xori	r2,r2,128
  802710:	10bfe004 	addi	r2,r2,-128
  802714:	10000226 	beq	r2,zero,802720 <logic+0x2320>
  802718:	00800044 	movi	r2,1
  80271c:	00000106 	br	802724 <logic+0x2324>
  802720:	0005883a 	mov	r2,zero
  802724:	1007883a 	mov	r3,r2
  802728:	e0bffc17 	ldw	r2,-16(fp)
  80272c:	10c02885 	stb	r3,162(r2)
  d->_cg62 = d->_region2_VRP_timer_t < d->VRP_Constraint;
  802730:	e0bffc17 	ldw	r2,-16(fp)
  802734:	14000b17 	ldw	r16,44(r2)
  802738:	14400c17 	ldw	r17,48(r2)
  80273c:	e0bffc17 	ldw	r2,-16(fp)
  802740:	10800317 	ldw	r2,12(r2)
  802744:	1009883a 	mov	r4,r2
  802748:	08064e40 	call	8064e4 <__floatsidf>
  80274c:	1009883a 	mov	r4,r2
  802750:	180b883a 	mov	r5,r3
  802754:	04800044 	movi	r18,1
  802758:	200d883a 	mov	r6,r4
  80275c:	280f883a 	mov	r7,r5
  802760:	8009883a 	mov	r4,r16
  802764:	880b883a 	mov	r5,r17
  802768:	0805af40 	call	805af4 <__ledf2>
  80276c:	10000116 	blt	r2,zero,802774 <logic+0x2374>
  802770:	0025883a 	mov	r18,zero
  802774:	9007883a 	mov	r3,r18
  802778:	e0bffc17 	ldw	r2,-16(fp)
  80277c:	10c03f05 	stb	r3,252(r2)
  d->_g61 = d->_g67 && d->_cg62;
  802780:	e0bffc17 	ldw	r2,-16(fp)
  802784:	10802883 	ldbu	r2,162(r2)
  802788:	10803fcc 	andi	r2,r2,255
  80278c:	1080201c 	xori	r2,r2,128
  802790:	10bfe004 	addi	r2,r2,-128
  802794:	10000826 	beq	r2,zero,8027b8 <logic+0x23b8>
  802798:	e0bffc17 	ldw	r2,-16(fp)
  80279c:	10803f03 	ldbu	r2,252(r2)
  8027a0:	10803fcc 	andi	r2,r2,255
  8027a4:	1080201c 	xori	r2,r2,128
  8027a8:	10bfe004 	addi	r2,r2,-128
  8027ac:	10000226 	beq	r2,zero,8027b8 <logic+0x23b8>
  8027b0:	00800044 	movi	r2,1
  8027b4:	00000106 	br	8027bc <logic+0x23bc>
  8027b8:	0005883a 	mov	r2,zero
  8027bc:	1007883a 	mov	r3,r2
  8027c0:	e0bffc17 	ldw	r2,-16(fp)
  8027c4:	10c02745 	stb	r3,157(r2)
  if (d->_g61) {
  8027c8:	e0bffc17 	ldw	r2,-16(fp)
  8027cc:	10802743 	ldbu	r2,157(r2)
  8027d0:	10803fcc 	andi	r2,r2,255
  8027d4:	1080201c 	xori	r2,r2,128
  8027d8:	10bfe004 	addi	r2,r2,-128
  8027dc:	10003426 	beq	r2,zero,8028b0 <logic+0x24b0>
    d->sleepT = (d->sleepT < (d->VRP_Constraint - d->_region2_VRP_timer_t)) ? d->sleepT : (d->VRP_Constraint - d->_region2_VRP_timer_t);
  8027e0:	e0bffc17 	ldw	r2,-16(fp)
  8027e4:	14001517 	ldw	r16,84(r2)
  8027e8:	14401617 	ldw	r17,88(r2)
  8027ec:	e0bffc17 	ldw	r2,-16(fp)
  8027f0:	10800317 	ldw	r2,12(r2)
  8027f4:	1009883a 	mov	r4,r2
  8027f8:	08064e40 	call	8064e4 <__floatsidf>
  8027fc:	1011883a 	mov	r8,r2
  802800:	1813883a 	mov	r9,r3
  802804:	e13ffc17 	ldw	r4,-16(fp)
  802808:	20800b17 	ldw	r2,44(r4)
  80280c:	20c00c17 	ldw	r3,48(r4)
  802810:	100d883a 	mov	r6,r2
  802814:	180f883a 	mov	r7,r3
  802818:	4009883a 	mov	r4,r8
  80281c:	480b883a 	mov	r5,r9
  802820:	0805be80 	call	805be8 <__subdf3>
  802824:	1009883a 	mov	r4,r2
  802828:	180b883a 	mov	r5,r3
  80282c:	2005883a 	mov	r2,r4
  802830:	2807883a 	mov	r3,r5
  802834:	100d883a 	mov	r6,r2
  802838:	180f883a 	mov	r7,r3
  80283c:	8009883a 	mov	r4,r16
  802840:	880b883a 	mov	r5,r17
  802844:	0805af40 	call	805af4 <__ledf2>
  802848:	1000040e 	bge	r2,zero,80285c <logic+0x245c>
  80284c:	e13ffc17 	ldw	r4,-16(fp)
  802850:	20801517 	ldw	r2,84(r4)
  802854:	20c01617 	ldw	r3,88(r4)
  802858:	00001206 	br	8028a4 <logic+0x24a4>
  80285c:	e0bffc17 	ldw	r2,-16(fp)
  802860:	10800317 	ldw	r2,12(r2)
  802864:	1009883a 	mov	r4,r2
  802868:	08064e40 	call	8064e4 <__floatsidf>
  80286c:	1011883a 	mov	r8,r2
  802870:	1813883a 	mov	r9,r3
  802874:	e13ffc17 	ldw	r4,-16(fp)
  802878:	20800b17 	ldw	r2,44(r4)
  80287c:	20c00c17 	ldw	r3,48(r4)
  802880:	100d883a 	mov	r6,r2
  802884:	180f883a 	mov	r7,r3
  802888:	4009883a 	mov	r4,r8
  80288c:	480b883a 	mov	r5,r9
  802890:	0805be80 	call	805be8 <__subdf3>
  802894:	1009883a 	mov	r4,r2
  802898:	180b883a 	mov	r5,r3
  80289c:	2005883a 	mov	r2,r4
  8028a0:	2807883a 	mov	r3,r5
  8028a4:	e13ffc17 	ldw	r4,-16(fp)
  8028a8:	20801515 	stw	r2,84(r4)
  8028ac:	20c01615 	stw	r3,88(r4)
  }
  d->_cg63 = d->_Pacemaker_local__Atrig4 || d->_Pacemaker_local__Atrig5;
  8028b0:	e0bffc17 	ldw	r2,-16(fp)
  8028b4:	10801b03 	ldbu	r2,108(r2)
  8028b8:	10803fcc 	andi	r2,r2,255
  8028bc:	1080201c 	xori	r2,r2,128
  8028c0:	10bfe004 	addi	r2,r2,-128
  8028c4:	1000061e 	bne	r2,zero,8028e0 <logic+0x24e0>
  8028c8:	e0bffc17 	ldw	r2,-16(fp)
  8028cc:	10801b43 	ldbu	r2,109(r2)
  8028d0:	10803fcc 	andi	r2,r2,255
  8028d4:	1080201c 	xori	r2,r2,128
  8028d8:	10bfe004 	addi	r2,r2,-128
  8028dc:	10000226 	beq	r2,zero,8028e8 <logic+0x24e8>
  8028e0:	00800044 	movi	r2,1
  8028e4:	00000106 	br	8028ec <logic+0x24ec>
  8028e8:	0005883a 	mov	r2,zero
  8028ec:	1007883a 	mov	r3,r2
  8028f0:	e0bffc17 	ldw	r2,-16(fp)
  8028f4:	10c03ec5 	stb	r3,251(r2)
  d->_g62 = d->_g67 && !d->_cg62;
  8028f8:	e0bffc17 	ldw	r2,-16(fp)
  8028fc:	10802883 	ldbu	r2,162(r2)
  802900:	10803fcc 	andi	r2,r2,255
  802904:	1080201c 	xori	r2,r2,128
  802908:	10bfe004 	addi	r2,r2,-128
  80290c:	10000826 	beq	r2,zero,802930 <logic+0x2530>
  802910:	e0bffc17 	ldw	r2,-16(fp)
  802914:	10803f03 	ldbu	r2,252(r2)
  802918:	10803fcc 	andi	r2,r2,255
  80291c:	1080201c 	xori	r2,r2,128
  802920:	10bfe004 	addi	r2,r2,-128
  802924:	1000021e 	bne	r2,zero,802930 <logic+0x2530>
  802928:	00800044 	movi	r2,1
  80292c:	00000106 	br	802934 <logic+0x2534>
  802930:	0005883a 	mov	r2,zero
  802934:	1007883a 	mov	r3,r2
  802938:	e0bffc17 	ldw	r2,-16(fp)
  80293c:	10c02785 	stb	r3,158(r2)
  d->_cg65 = d->_Pacemaker_local__Atrig4 || d->_Pacemaker_local__Atrig5;
  802940:	e0bffc17 	ldw	r2,-16(fp)
  802944:	10801b03 	ldbu	r2,108(r2)
  802948:	10803fcc 	andi	r2,r2,255
  80294c:	1080201c 	xori	r2,r2,128
  802950:	10bfe004 	addi	r2,r2,-128
  802954:	1000061e 	bne	r2,zero,802970 <logic+0x2570>
  802958:	e0bffc17 	ldw	r2,-16(fp)
  80295c:	10801b43 	ldbu	r2,109(r2)
  802960:	10803fcc 	andi	r2,r2,255
  802964:	1080201c 	xori	r2,r2,128
  802968:	10bfe004 	addi	r2,r2,-128
  80296c:	10000226 	beq	r2,zero,802978 <logic+0x2578>
  802970:	00800044 	movi	r2,1
  802974:	00000106 	br	80297c <logic+0x257c>
  802978:	0005883a 	mov	r2,zero
  80297c:	1007883a 	mov	r3,r2
  802980:	e0bffc17 	ldw	r2,-16(fp)
  802984:	10c03f45 	stb	r3,253(r2)
  d->_g64 = d->_g61 && d->_cg63 || d->_g62 && d->_cg65;
  802988:	e0bffc17 	ldw	r2,-16(fp)
  80298c:	10802743 	ldbu	r2,157(r2)
  802990:	10803fcc 	andi	r2,r2,255
  802994:	1080201c 	xori	r2,r2,128
  802998:	10bfe004 	addi	r2,r2,-128
  80299c:	10000626 	beq	r2,zero,8029b8 <logic+0x25b8>
  8029a0:	e0bffc17 	ldw	r2,-16(fp)
  8029a4:	10803ec3 	ldbu	r2,251(r2)
  8029a8:	10803fcc 	andi	r2,r2,255
  8029ac:	1080201c 	xori	r2,r2,128
  8029b0:	10bfe004 	addi	r2,r2,-128
  8029b4:	10000c1e 	bne	r2,zero,8029e8 <logic+0x25e8>
  8029b8:	e0bffc17 	ldw	r2,-16(fp)
  8029bc:	10802783 	ldbu	r2,158(r2)
  8029c0:	10803fcc 	andi	r2,r2,255
  8029c4:	1080201c 	xori	r2,r2,128
  8029c8:	10bfe004 	addi	r2,r2,-128
  8029cc:	10000826 	beq	r2,zero,8029f0 <logic+0x25f0>
  8029d0:	e0bffc17 	ldw	r2,-16(fp)
  8029d4:	10803f43 	ldbu	r2,253(r2)
  8029d8:	10803fcc 	andi	r2,r2,255
  8029dc:	1080201c 	xori	r2,r2,128
  8029e0:	10bfe004 	addi	r2,r2,-128
  8029e4:	10000226 	beq	r2,zero,8029f0 <logic+0x25f0>
  8029e8:	00800044 	movi	r2,1
  8029ec:	00000106 	br	8029f4 <logic+0x25f4>
  8029f0:	0005883a 	mov	r2,zero
  8029f4:	1007883a 	mov	r3,r2
  8029f8:	e0bffc17 	ldw	r2,-16(fp)
  8029fc:	10c02805 	stb	r3,160(r2)
  d->_g71 = !d->_g40;
  802a00:	e0bffc17 	ldw	r2,-16(fp)
  802a04:	108023c3 	ldbu	r2,143(r2)
  802a08:	10803fcc 	andi	r2,r2,255
  802a0c:	1080201c 	xori	r2,r2,128
  802a10:	10bfe004 	addi	r2,r2,-128
  802a14:	1005003a 	cmpeq	r2,r2,zero
  802a18:	1007883a 	mov	r3,r2
  802a1c:	e0bffc17 	ldw	r2,-16(fp)
  802a20:	10c02905 	stb	r3,164(r2)
  d->_g75 = d->_g37 || d->_g29;
  802a24:	e0bffc17 	ldw	r2,-16(fp)
  802a28:	10802343 	ldbu	r2,141(r2)
  802a2c:	10803fcc 	andi	r2,r2,255
  802a30:	1080201c 	xori	r2,r2,128
  802a34:	10bfe004 	addi	r2,r2,-128
  802a38:	1000061e 	bne	r2,zero,802a54 <logic+0x2654>
  802a3c:	e0bffc17 	ldw	r2,-16(fp)
  802a40:	108021c3 	ldbu	r2,135(r2)
  802a44:	10803fcc 	andi	r2,r2,255
  802a48:	1080201c 	xori	r2,r2,128
  802a4c:	10bfe004 	addi	r2,r2,-128
  802a50:	10000226 	beq	r2,zero,802a5c <logic+0x265c>
  802a54:	00800044 	movi	r2,1
  802a58:	00000106 	br	802a60 <logic+0x2660>
  802a5c:	0005883a 	mov	r2,zero
  802a60:	1007883a 	mov	r3,r2
  802a64:	e0bffc17 	ldw	r2,-16(fp)
  802a68:	10c02a05 	stb	r3,168(r2)
  d->_g72 = (d->_g31 || d->_g64) && (d->_g71 || d->_g75) && (d->_g64 || d->_g75);
  802a6c:	e0bffc17 	ldw	r2,-16(fp)
  802a70:	10802203 	ldbu	r2,136(r2)
  802a74:	10803fcc 	andi	r2,r2,255
  802a78:	1080201c 	xori	r2,r2,128
  802a7c:	10bfe004 	addi	r2,r2,-128
  802a80:	1000061e 	bne	r2,zero,802a9c <logic+0x269c>
  802a84:	e0bffc17 	ldw	r2,-16(fp)
  802a88:	10802803 	ldbu	r2,160(r2)
  802a8c:	10803fcc 	andi	r2,r2,255
  802a90:	1080201c 	xori	r2,r2,128
  802a94:	10bfe004 	addi	r2,r2,-128
  802a98:	10001a26 	beq	r2,zero,802b04 <logic+0x2704>
  802a9c:	e0bffc17 	ldw	r2,-16(fp)
  802aa0:	10802903 	ldbu	r2,164(r2)
  802aa4:	10803fcc 	andi	r2,r2,255
  802aa8:	1080201c 	xori	r2,r2,128
  802aac:	10bfe004 	addi	r2,r2,-128
  802ab0:	1000061e 	bne	r2,zero,802acc <logic+0x26cc>
  802ab4:	e0bffc17 	ldw	r2,-16(fp)
  802ab8:	10802a03 	ldbu	r2,168(r2)
  802abc:	10803fcc 	andi	r2,r2,255
  802ac0:	1080201c 	xori	r2,r2,128
  802ac4:	10bfe004 	addi	r2,r2,-128
  802ac8:	10000e26 	beq	r2,zero,802b04 <logic+0x2704>
  802acc:	e0bffc17 	ldw	r2,-16(fp)
  802ad0:	10802803 	ldbu	r2,160(r2)
  802ad4:	10803fcc 	andi	r2,r2,255
  802ad8:	1080201c 	xori	r2,r2,128
  802adc:	10bfe004 	addi	r2,r2,-128
  802ae0:	1000061e 	bne	r2,zero,802afc <logic+0x26fc>
  802ae4:	e0bffc17 	ldw	r2,-16(fp)
  802ae8:	10802a03 	ldbu	r2,168(r2)
  802aec:	10803fcc 	andi	r2,r2,255
  802af0:	1080201c 	xori	r2,r2,128
  802af4:	10bfe004 	addi	r2,r2,-128
  802af8:	10000226 	beq	r2,zero,802b04 <logic+0x2704>
  802afc:	00800044 	movi	r2,1
  802b00:	00000106 	br	802b08 <logic+0x2708>
  802b04:	0005883a 	mov	r2,zero
  802b08:	1007883a 	mov	r3,r2
  802b0c:	e0bffc17 	ldw	r2,-16(fp)
  802b10:	10c02945 	stb	r3,165(r2)
  d->_cg76 = d->_Pacemaker_local__Atrig4;
  802b14:	e0bffc17 	ldw	r2,-16(fp)
  802b18:	10c01b03 	ldbu	r3,108(r2)
  802b1c:	e0bffc17 	ldw	r2,-16(fp)
  802b20:	10c03dc5 	stb	r3,247(r2)
  d->_g64_e1 = d->_GO || d->_g72 && !d->_cg76 || d->_g55 && !d->_cg55;
  802b24:	e0bffc17 	ldw	r2,-16(fp)
  802b28:	10803903 	ldbu	r2,228(r2)
  802b2c:	10803fcc 	andi	r2,r2,255
  802b30:	1080201c 	xori	r2,r2,128
  802b34:	10bfe004 	addi	r2,r2,-128
  802b38:	1000181e 	bne	r2,zero,802b9c <logic+0x279c>
  802b3c:	e0bffc17 	ldw	r2,-16(fp)
  802b40:	10802943 	ldbu	r2,165(r2)
  802b44:	10803fcc 	andi	r2,r2,255
  802b48:	1080201c 	xori	r2,r2,128
  802b4c:	10bfe004 	addi	r2,r2,-128
  802b50:	10000626 	beq	r2,zero,802b6c <logic+0x276c>
  802b54:	e0bffc17 	ldw	r2,-16(fp)
  802b58:	10803dc3 	ldbu	r2,247(r2)
  802b5c:	10803fcc 	andi	r2,r2,255
  802b60:	1080201c 	xori	r2,r2,128
  802b64:	10bfe004 	addi	r2,r2,-128
  802b68:	10000c26 	beq	r2,zero,802b9c <logic+0x279c>
  802b6c:	e0bffc17 	ldw	r2,-16(fp)
  802b70:	10802643 	ldbu	r2,153(r2)
  802b74:	10803fcc 	andi	r2,r2,255
  802b78:	1080201c 	xori	r2,r2,128
  802b7c:	10bfe004 	addi	r2,r2,-128
  802b80:	10000826 	beq	r2,zero,802ba4 <logic+0x27a4>
  802b84:	e0bffc17 	ldw	r2,-16(fp)
  802b88:	10803e03 	ldbu	r2,248(r2)
  802b8c:	10803fcc 	andi	r2,r2,255
  802b90:	1080201c 	xori	r2,r2,128
  802b94:	10bfe004 	addi	r2,r2,-128
  802b98:	1000021e 	bne	r2,zero,802ba4 <logic+0x27a4>
  802b9c:	00800044 	movi	r2,1
  802ba0:	00000106 	br	802ba8 <logic+0x27a8>
  802ba4:	0005883a 	mov	r2,zero
  802ba8:	1007883a 	mov	r3,r2
  802bac:	e0bffc17 	ldw	r2,-16(fp)
  802bb0:	10c04805 	stb	r3,288(r2)
  d->_g73 = d->_g72 && d->_cg76;
  802bb4:	e0bffc17 	ldw	r2,-16(fp)
  802bb8:	10802943 	ldbu	r2,165(r2)
  802bbc:	10803fcc 	andi	r2,r2,255
  802bc0:	1080201c 	xori	r2,r2,128
  802bc4:	10bfe004 	addi	r2,r2,-128
  802bc8:	10000826 	beq	r2,zero,802bec <logic+0x27ec>
  802bcc:	e0bffc17 	ldw	r2,-16(fp)
  802bd0:	10803dc3 	ldbu	r2,247(r2)
  802bd4:	10803fcc 	andi	r2,r2,255
  802bd8:	1080201c 	xori	r2,r2,128
  802bdc:	10bfe004 	addi	r2,r2,-128
  802be0:	10000226 	beq	r2,zero,802bec <logic+0x27ec>
  802be4:	00800044 	movi	r2,1
  802be8:	00000106 	br	802bf0 <logic+0x27f0>
  802bec:	0005883a 	mov	r2,zero
  802bf0:	1007883a 	mov	r3,r2
  802bf4:	e0bffc17 	ldw	r2,-16(fp)
  802bf8:	10c02985 	stb	r3,166(r2)
  if (d->_g73) {
  802bfc:	e0bffc17 	ldw	r2,-16(fp)
  802c00:	10802983 	ldbu	r2,166(r2)
  802c04:	10803fcc 	andi	r2,r2,255
  802c08:	1080201c 	xori	r2,r2,128
  802c0c:	10bfe004 	addi	r2,r2,-128
  802c10:	10000626 	beq	r2,zero,802c2c <logic+0x282c>
    d->VR |= 1;
  802c14:	e0bffc17 	ldw	r2,-16(fp)
  802c18:	10801843 	ldbu	r2,97(r2)
  802c1c:	10800054 	ori	r2,r2,1
  802c20:	1007883a 	mov	r3,r2
  802c24:	e0bffc17 	ldw	r2,-16(fp)
  802c28:	10c01845 	stb	r3,97(r2)
  }
  d->_g64 = d->_g56 || d->_g73;
  802c2c:	e0bffc17 	ldw	r2,-16(fp)
  802c30:	10802683 	ldbu	r2,154(r2)
  802c34:	10803fcc 	andi	r2,r2,255
  802c38:	1080201c 	xori	r2,r2,128
  802c3c:	10bfe004 	addi	r2,r2,-128
  802c40:	1000061e 	bne	r2,zero,802c5c <logic+0x285c>
  802c44:	e0bffc17 	ldw	r2,-16(fp)
  802c48:	10802983 	ldbu	r2,166(r2)
  802c4c:	10803fcc 	andi	r2,r2,255
  802c50:	1080201c 	xori	r2,r2,128
  802c54:	10bfe004 	addi	r2,r2,-128
  802c58:	10000226 	beq	r2,zero,802c64 <logic+0x2864>
  802c5c:	00800044 	movi	r2,1
  802c60:	00000106 	br	802c68 <logic+0x2868>
  802c64:	0005883a 	mov	r2,zero
  802c68:	1007883a 	mov	r3,r2
  802c6c:	e0bffc17 	ldw	r2,-16(fp)
  802c70:	10c02805 	stb	r3,160(r2)
  if (d->_g64) {
  802c74:	e0bffc17 	ldw	r2,-16(fp)
  802c78:	10802803 	ldbu	r2,160(r2)
  802c7c:	10803fcc 	andi	r2,r2,255
  802c80:	1080201c 	xori	r2,r2,128
  802c84:	10bfe004 	addi	r2,r2,-128
  802c88:	10000426 	beq	r2,zero,802c9c <logic+0x289c>
    d->_Pacemaker_local__Atrig4 = 0;
  802c8c:	e0bffc17 	ldw	r2,-16(fp)
  802c90:	10001b05 	stb	zero,108(r2)
    d->_Pacemaker_local__Atrig5 = 0;
  802c94:	e0bffc17 	ldw	r2,-16(fp)
  802c98:	10001b45 	stb	zero,109(r2)
  }
  d->_cg58 = d->_region2_VRP_timer_t < d->VRP_Constraint;
  802c9c:	e0bffc17 	ldw	r2,-16(fp)
  802ca0:	14000b17 	ldw	r16,44(r2)
  802ca4:	14400c17 	ldw	r17,48(r2)
  802ca8:	e0bffc17 	ldw	r2,-16(fp)
  802cac:	10800317 	ldw	r2,12(r2)
  802cb0:	1009883a 	mov	r4,r2
  802cb4:	08064e40 	call	8064e4 <__floatsidf>
  802cb8:	1009883a 	mov	r4,r2
  802cbc:	180b883a 	mov	r5,r3
  802cc0:	04800044 	movi	r18,1
  802cc4:	200d883a 	mov	r6,r4
  802cc8:	280f883a 	mov	r7,r5
  802ccc:	8009883a 	mov	r4,r16
  802cd0:	880b883a 	mov	r5,r17
  802cd4:	0805af40 	call	805af4 <__ledf2>
  802cd8:	10000116 	blt	r2,zero,802ce0 <logic+0x28e0>
  802cdc:	0025883a 	mov	r18,zero
  802ce0:	9007883a 	mov	r3,r18
  802ce4:	e0bffc17 	ldw	r2,-16(fp)
  802ce8:	10c03e45 	stb	r3,249(r2)
  d->_g73_e2 = d->_g64 && d->_cg58;
  802cec:	e0bffc17 	ldw	r2,-16(fp)
  802cf0:	10802803 	ldbu	r2,160(r2)
  802cf4:	10803fcc 	andi	r2,r2,255
  802cf8:	1080201c 	xori	r2,r2,128
  802cfc:	10bfe004 	addi	r2,r2,-128
  802d00:	10000826 	beq	r2,zero,802d24 <logic+0x2924>
  802d04:	e0bffc17 	ldw	r2,-16(fp)
  802d08:	10803e43 	ldbu	r2,249(r2)
  802d0c:	10803fcc 	andi	r2,r2,255
  802d10:	1080201c 	xori	r2,r2,128
  802d14:	10bfe004 	addi	r2,r2,-128
  802d18:	10000226 	beq	r2,zero,802d24 <logic+0x2924>
  802d1c:	00800044 	movi	r2,1
  802d20:	00000106 	br	802d28 <logic+0x2928>
  802d24:	0005883a 	mov	r2,zero
  802d28:	1007883a 	mov	r3,r2
  802d2c:	e0bffc17 	ldw	r2,-16(fp)
  802d30:	10c04845 	stb	r3,289(r2)
  if (d->_g73_e2) {
  802d34:	e0bffc17 	ldw	r2,-16(fp)
  802d38:	10804843 	ldbu	r2,289(r2)
  802d3c:	10803fcc 	andi	r2,r2,255
  802d40:	1080201c 	xori	r2,r2,128
  802d44:	10bfe004 	addi	r2,r2,-128
  802d48:	10003426 	beq	r2,zero,802e1c <logic+0x2a1c>
    d->sleepT = (d->sleepT < (d->VRP_Constraint - d->_region2_VRP_timer_t)) ? d->sleepT : (d->VRP_Constraint - d->_region2_VRP_timer_t);
  802d4c:	e0bffc17 	ldw	r2,-16(fp)
  802d50:	14001517 	ldw	r16,84(r2)
  802d54:	14401617 	ldw	r17,88(r2)
  802d58:	e0bffc17 	ldw	r2,-16(fp)
  802d5c:	10800317 	ldw	r2,12(r2)
  802d60:	1009883a 	mov	r4,r2
  802d64:	08064e40 	call	8064e4 <__floatsidf>
  802d68:	1011883a 	mov	r8,r2
  802d6c:	1813883a 	mov	r9,r3
  802d70:	e13ffc17 	ldw	r4,-16(fp)
  802d74:	20800b17 	ldw	r2,44(r4)
  802d78:	20c00c17 	ldw	r3,48(r4)
  802d7c:	100d883a 	mov	r6,r2
  802d80:	180f883a 	mov	r7,r3
  802d84:	4009883a 	mov	r4,r8
  802d88:	480b883a 	mov	r5,r9
  802d8c:	0805be80 	call	805be8 <__subdf3>
  802d90:	1009883a 	mov	r4,r2
  802d94:	180b883a 	mov	r5,r3
  802d98:	2005883a 	mov	r2,r4
  802d9c:	2807883a 	mov	r3,r5
  802da0:	100d883a 	mov	r6,r2
  802da4:	180f883a 	mov	r7,r3
  802da8:	8009883a 	mov	r4,r16
  802dac:	880b883a 	mov	r5,r17
  802db0:	0805af40 	call	805af4 <__ledf2>
  802db4:	1000040e 	bge	r2,zero,802dc8 <logic+0x29c8>
  802db8:	e13ffc17 	ldw	r4,-16(fp)
  802dbc:	20801517 	ldw	r2,84(r4)
  802dc0:	20c01617 	ldw	r3,88(r4)
  802dc4:	00001206 	br	802e10 <logic+0x2a10>
  802dc8:	e0bffc17 	ldw	r2,-16(fp)
  802dcc:	10800317 	ldw	r2,12(r2)
  802dd0:	1009883a 	mov	r4,r2
  802dd4:	08064e40 	call	8064e4 <__floatsidf>
  802dd8:	1011883a 	mov	r8,r2
  802ddc:	1813883a 	mov	r9,r3
  802de0:	e13ffc17 	ldw	r4,-16(fp)
  802de4:	20800b17 	ldw	r2,44(r4)
  802de8:	20c00c17 	ldw	r3,48(r4)
  802dec:	100d883a 	mov	r6,r2
  802df0:	180f883a 	mov	r7,r3
  802df4:	4009883a 	mov	r4,r8
  802df8:	480b883a 	mov	r5,r9
  802dfc:	0805be80 	call	805be8 <__subdf3>
  802e00:	1009883a 	mov	r4,r2
  802e04:	180b883a 	mov	r5,r3
  802e08:	2005883a 	mov	r2,r4
  802e0c:	2807883a 	mov	r3,r5
  802e10:	e13ffc17 	ldw	r4,-16(fp)
  802e14:	20801515 	stw	r2,84(r4)
  802e18:	20c01615 	stw	r3,88(r4)
  }
  d->_cg59 = d->_Pacemaker_local__Atrig4 || d->_Pacemaker_local__Atrig5;
  802e1c:	e0bffc17 	ldw	r2,-16(fp)
  802e20:	10801b03 	ldbu	r2,108(r2)
  802e24:	10803fcc 	andi	r2,r2,255
  802e28:	1080201c 	xori	r2,r2,128
  802e2c:	10bfe004 	addi	r2,r2,-128
  802e30:	1000061e 	bne	r2,zero,802e4c <logic+0x2a4c>
  802e34:	e0bffc17 	ldw	r2,-16(fp)
  802e38:	10801b43 	ldbu	r2,109(r2)
  802e3c:	10803fcc 	andi	r2,r2,255
  802e40:	1080201c 	xori	r2,r2,128
  802e44:	10bfe004 	addi	r2,r2,-128
  802e48:	10000226 	beq	r2,zero,802e54 <logic+0x2a54>
  802e4c:	00800044 	movi	r2,1
  802e50:	00000106 	br	802e58 <logic+0x2a58>
  802e54:	0005883a 	mov	r2,zero
  802e58:	1007883a 	mov	r3,r2
  802e5c:	e0bffc17 	ldw	r2,-16(fp)
  802e60:	10c03e85 	stb	r3,250(r2)
  d->_g55 = d->_g73_e2 && !d->_cg59 || d->_g61 && !d->_cg63;
  802e64:	e0bffc17 	ldw	r2,-16(fp)
  802e68:	10804843 	ldbu	r2,289(r2)
  802e6c:	10803fcc 	andi	r2,r2,255
  802e70:	1080201c 	xori	r2,r2,128
  802e74:	10bfe004 	addi	r2,r2,-128
  802e78:	10000626 	beq	r2,zero,802e94 <logic+0x2a94>
  802e7c:	e0bffc17 	ldw	r2,-16(fp)
  802e80:	10803e83 	ldbu	r2,250(r2)
  802e84:	10803fcc 	andi	r2,r2,255
  802e88:	1080201c 	xori	r2,r2,128
  802e8c:	10bfe004 	addi	r2,r2,-128
  802e90:	10000c26 	beq	r2,zero,802ec4 <logic+0x2ac4>
  802e94:	e0bffc17 	ldw	r2,-16(fp)
  802e98:	10802743 	ldbu	r2,157(r2)
  802e9c:	10803fcc 	andi	r2,r2,255
  802ea0:	1080201c 	xori	r2,r2,128
  802ea4:	10bfe004 	addi	r2,r2,-128
  802ea8:	10000826 	beq	r2,zero,802ecc <logic+0x2acc>
  802eac:	e0bffc17 	ldw	r2,-16(fp)
  802eb0:	10803ec3 	ldbu	r2,251(r2)
  802eb4:	10803fcc 	andi	r2,r2,255
  802eb8:	1080201c 	xori	r2,r2,128
  802ebc:	10bfe004 	addi	r2,r2,-128
  802ec0:	1000021e 	bne	r2,zero,802ecc <logic+0x2acc>
  802ec4:	00800044 	movi	r2,1
  802ec8:	00000106 	br	802ed0 <logic+0x2ad0>
  802ecc:	0005883a 	mov	r2,zero
  802ed0:	1007883a 	mov	r3,r2
  802ed4:	e0bffc17 	ldw	r2,-16(fp)
  802ed8:	10c02645 	stb	r3,153(r2)
  d->_g76 = d->_g64 && !d->_cg58;
  802edc:	e0bffc17 	ldw	r2,-16(fp)
  802ee0:	10802803 	ldbu	r2,160(r2)
  802ee4:	10803fcc 	andi	r2,r2,255
  802ee8:	1080201c 	xori	r2,r2,128
  802eec:	10bfe004 	addi	r2,r2,-128
  802ef0:	10000826 	beq	r2,zero,802f14 <logic+0x2b14>
  802ef4:	e0bffc17 	ldw	r2,-16(fp)
  802ef8:	10803e43 	ldbu	r2,249(r2)
  802efc:	10803fcc 	andi	r2,r2,255
  802f00:	1080201c 	xori	r2,r2,128
  802f04:	10bfe004 	addi	r2,r2,-128
  802f08:	1000021e 	bne	r2,zero,802f14 <logic+0x2b14>
  802f0c:	00800044 	movi	r2,1
  802f10:	00000106 	br	802f18 <logic+0x2b18>
  802f14:	0005883a 	mov	r2,zero
  802f18:	1007883a 	mov	r3,r2
  802f1c:	e0bffc17 	ldw	r2,-16(fp)
  802f20:	10c02a45 	stb	r3,169(r2)
  d->_cg68 = d->_Pacemaker_local__Atrig4 || d->_Pacemaker_local__Atrig5;
  802f24:	e0bffc17 	ldw	r2,-16(fp)
  802f28:	10801b03 	ldbu	r2,108(r2)
  802f2c:	10803fcc 	andi	r2,r2,255
  802f30:	1080201c 	xori	r2,r2,128
  802f34:	10bfe004 	addi	r2,r2,-128
  802f38:	1000061e 	bne	r2,zero,802f54 <logic+0x2b54>
  802f3c:	e0bffc17 	ldw	r2,-16(fp)
  802f40:	10801b43 	ldbu	r2,109(r2)
  802f44:	10803fcc 	andi	r2,r2,255
  802f48:	1080201c 	xori	r2,r2,128
  802f4c:	10bfe004 	addi	r2,r2,-128
  802f50:	10000226 	beq	r2,zero,802f5c <logic+0x2b5c>
  802f54:	00800044 	movi	r2,1
  802f58:	00000106 	br	802f60 <logic+0x2b60>
  802f5c:	0005883a 	mov	r2,zero
  802f60:	1007883a 	mov	r3,r2
  802f64:	e0bffc17 	ldw	r2,-16(fp)
  802f68:	10c03f85 	stb	r3,254(r2)
  d->_g77 = d->_g62 && !d->_cg65 || d->_g76 && !d->_cg68;
  802f6c:	e0bffc17 	ldw	r2,-16(fp)
  802f70:	10802783 	ldbu	r2,158(r2)
  802f74:	10803fcc 	andi	r2,r2,255
  802f78:	1080201c 	xori	r2,r2,128
  802f7c:	10bfe004 	addi	r2,r2,-128
  802f80:	10000626 	beq	r2,zero,802f9c <logic+0x2b9c>
  802f84:	e0bffc17 	ldw	r2,-16(fp)
  802f88:	10803f43 	ldbu	r2,253(r2)
  802f8c:	10803fcc 	andi	r2,r2,255
  802f90:	1080201c 	xori	r2,r2,128
  802f94:	10bfe004 	addi	r2,r2,-128
  802f98:	10000c26 	beq	r2,zero,802fcc <logic+0x2bcc>
  802f9c:	e0bffc17 	ldw	r2,-16(fp)
  802fa0:	10802a43 	ldbu	r2,169(r2)
  802fa4:	10803fcc 	andi	r2,r2,255
  802fa8:	1080201c 	xori	r2,r2,128
  802fac:	10bfe004 	addi	r2,r2,-128
  802fb0:	10000826 	beq	r2,zero,802fd4 <logic+0x2bd4>
  802fb4:	e0bffc17 	ldw	r2,-16(fp)
  802fb8:	10803f83 	ldbu	r2,254(r2)
  802fbc:	10803fcc 	andi	r2,r2,255
  802fc0:	1080201c 	xori	r2,r2,128
  802fc4:	10bfe004 	addi	r2,r2,-128
  802fc8:	1000021e 	bne	r2,zero,802fd4 <logic+0x2bd4>
  802fcc:	00800044 	movi	r2,1
  802fd0:	00000106 	br	802fd8 <logic+0x2bd8>
  802fd4:	0005883a 	mov	r2,zero
  802fd8:	1007883a 	mov	r3,r2
  802fdc:	e0bffc17 	ldw	r2,-16(fp)
  802fe0:	10c02a85 	stb	r3,170(r2)
  d->_g56 = d->_g64 || d->_g46 && !d->_cg74;
  802fe4:	e0bffc17 	ldw	r2,-16(fp)
  802fe8:	10802803 	ldbu	r2,160(r2)
  802fec:	10803fcc 	andi	r2,r2,255
  802ff0:	1080201c 	xori	r2,r2,128
  802ff4:	10bfe004 	addi	r2,r2,-128
  802ff8:	10000c1e 	bne	r2,zero,80302c <logic+0x2c2c>
  802ffc:	e0bffc17 	ldw	r2,-16(fp)
  803000:	108024c3 	ldbu	r2,147(r2)
  803004:	10803fcc 	andi	r2,r2,255
  803008:	1080201c 	xori	r2,r2,128
  80300c:	10bfe004 	addi	r2,r2,-128
  803010:	10000826 	beq	r2,zero,803034 <logic+0x2c34>
  803014:	e0bffc17 	ldw	r2,-16(fp)
  803018:	10803fc3 	ldbu	r2,255(r2)
  80301c:	10803fcc 	andi	r2,r2,255
  803020:	1080201c 	xori	r2,r2,128
  803024:	10bfe004 	addi	r2,r2,-128
  803028:	1000021e 	bne	r2,zero,803034 <logic+0x2c34>
  80302c:	00800044 	movi	r2,1
  803030:	00000106 	br	803038 <logic+0x2c38>
  803034:	0005883a 	mov	r2,zero
  803038:	1007883a 	mov	r3,r2
  80303c:	e0bffc17 	ldw	r2,-16(fp)
  803040:	10c02685 	stb	r3,154(r2)
  d->_g59 = d->_pg85;
  803044:	e0bffc17 	ldw	r2,-16(fp)
  803048:	10c04f83 	ldbu	r3,318(r2)
  80304c:	e0bffc17 	ldw	r2,-16(fp)
  803050:	10c02705 	stb	r3,156(r2)
  d->_cg94 = d->A_event;
  803054:	e0bffc17 	ldw	r2,-16(fp)
  803058:	10c01883 	ldbu	r3,98(r2)
  80305c:	e0bffc17 	ldw	r2,-16(fp)
  803060:	10c041c5 	stb	r3,263(r2)
  d->_g63 = d->_g59 && d->_cg94;
  803064:	e0bffc17 	ldw	r2,-16(fp)
  803068:	10802703 	ldbu	r2,156(r2)
  80306c:	10803fcc 	andi	r2,r2,255
  803070:	1080201c 	xori	r2,r2,128
  803074:	10bfe004 	addi	r2,r2,-128
  803078:	10000826 	beq	r2,zero,80309c <logic+0x2c9c>
  80307c:	e0bffc17 	ldw	r2,-16(fp)
  803080:	108041c3 	ldbu	r2,263(r2)
  803084:	10803fcc 	andi	r2,r2,255
  803088:	1080201c 	xori	r2,r2,128
  80308c:	10bfe004 	addi	r2,r2,-128
  803090:	10000226 	beq	r2,zero,80309c <logic+0x2c9c>
  803094:	00800044 	movi	r2,1
  803098:	00000106 	br	8030a0 <logic+0x2ca0>
  80309c:	0005883a 	mov	r2,zero
  8030a0:	1007883a 	mov	r3,r2
  8030a4:	e0bffc17 	ldw	r2,-16(fp)
  8030a8:	10c027c5 	stb	r3,159(r2)
  if (d->_g63) {
  8030ac:	e0bffc17 	ldw	r2,-16(fp)
  8030b0:	108027c3 	ldbu	r2,159(r2)
  8030b4:	10803fcc 	andi	r2,r2,255
  8030b8:	1080201c 	xori	r2,r2,128
  8030bc:	10bfe004 	addi	r2,r2,-128
  8030c0:	10000326 	beq	r2,zero,8030d0 <logic+0x2cd0>
    d->_Pacemaker_local__Atrig6 = 1;
  8030c4:	e0bffc17 	ldw	r2,-16(fp)
  8030c8:	00c00044 	movi	r3,1
  8030cc:	10c01b85 	stb	r3,110(r2)
  }
  d->_g68 = d->_pg141;
  8030d0:	e0bffc17 	ldw	r2,-16(fp)
  8030d4:	10c04fc3 	ldbu	r3,319(r2)
  8030d8:	e0bffc17 	ldw	r2,-16(fp)
  8030dc:	10c028c5 	stb	r3,163(r2)
  if (d->_g68) {
  8030e0:	e0bffc17 	ldw	r2,-16(fp)
  8030e4:	108028c3 	ldbu	r2,163(r2)
  8030e8:	10803fcc 	andi	r2,r2,255
  8030ec:	1080201c 	xori	r2,r2,128
  8030f0:	10bfe004 	addi	r2,r2,-128
  8030f4:	10001226 	beq	r2,zero,803140 <logic+0x2d40>
    d->_region3_AEI_timer_t += d->deltaT;
  8030f8:	e13ffc17 	ldw	r4,-16(fp)
  8030fc:	20800d17 	ldw	r2,52(r4)
  803100:	20c00e17 	ldw	r3,56(r4)
  803104:	e1bffc17 	ldw	r6,-16(fp)
  803108:	31001317 	ldw	r4,76(r6)
  80310c:	31401417 	ldw	r5,80(r6)
  803110:	200d883a 	mov	r6,r4
  803114:	280f883a 	mov	r7,r5
  803118:	1009883a 	mov	r4,r2
  80311c:	180b883a 	mov	r5,r3
  803120:	080516c0 	call	80516c <__adddf3>
  803124:	1009883a 	mov	r4,r2
  803128:	180b883a 	mov	r5,r3
  80312c:	2005883a 	mov	r2,r4
  803130:	2807883a 	mov	r3,r5
  803134:	e13ffc17 	ldw	r4,-16(fp)
  803138:	20800d15 	stw	r2,52(r4)
  80313c:	20c00e15 	stw	r3,56(r4)
  }
  d->_g65 = d->_g59 && !d->_cg94;
  803140:	e0bffc17 	ldw	r2,-16(fp)
  803144:	10802703 	ldbu	r2,156(r2)
  803148:	10803fcc 	andi	r2,r2,255
  80314c:	1080201c 	xori	r2,r2,128
  803150:	10bfe004 	addi	r2,r2,-128
  803154:	10000826 	beq	r2,zero,803178 <logic+0x2d78>
  803158:	e0bffc17 	ldw	r2,-16(fp)
  80315c:	108041c3 	ldbu	r2,263(r2)
  803160:	10803fcc 	andi	r2,r2,255
  803164:	1080201c 	xori	r2,r2,128
  803168:	10bfe004 	addi	r2,r2,-128
  80316c:	1000021e 	bne	r2,zero,803178 <logic+0x2d78>
  803170:	00800044 	movi	r2,1
  803174:	00000106 	br	80317c <logic+0x2d7c>
  803178:	0005883a 	mov	r2,zero
  80317c:	1007883a 	mov	r3,r2
  803180:	e0bffc17 	ldw	r2,-16(fp)
  803184:	10c02845 	stb	r3,161(r2)
  d->_cg97 = d->_region3_AEI_timer_t >= d->AEI_Constraint;
  803188:	e0bffc17 	ldw	r2,-16(fp)
  80318c:	14000d17 	ldw	r16,52(r2)
  803190:	14400e17 	ldw	r17,56(r2)
  803194:	e0bffc17 	ldw	r2,-16(fp)
  803198:	10800417 	ldw	r2,16(r2)
  80319c:	1009883a 	mov	r4,r2
  8031a0:	08064e40 	call	8064e4 <__floatsidf>
  8031a4:	1009883a 	mov	r4,r2
  8031a8:	180b883a 	mov	r5,r3
  8031ac:	04800044 	movi	r18,1
  8031b0:	200d883a 	mov	r6,r4
  8031b4:	280f883a 	mov	r7,r5
  8031b8:	8009883a 	mov	r4,r16
  8031bc:	880b883a 	mov	r5,r17
  8031c0:	0805a180 	call	805a18 <__gedf2>
  8031c4:	1000010e 	bge	r2,zero,8031cc <logic+0x2dcc>
  8031c8:	0025883a 	mov	r18,zero
  8031cc:	9007883a 	mov	r3,r18
  8031d0:	e0bffc17 	ldw	r2,-16(fp)
  8031d4:	10c04185 	stb	r3,262(r2)
  d->_g74 = d->_g65 && d->_cg97;
  8031d8:	e0bffc17 	ldw	r2,-16(fp)
  8031dc:	10802843 	ldbu	r2,161(r2)
  8031e0:	10803fcc 	andi	r2,r2,255
  8031e4:	1080201c 	xori	r2,r2,128
  8031e8:	10bfe004 	addi	r2,r2,-128
  8031ec:	10000826 	beq	r2,zero,803210 <logic+0x2e10>
  8031f0:	e0bffc17 	ldw	r2,-16(fp)
  8031f4:	10804183 	ldbu	r2,262(r2)
  8031f8:	10803fcc 	andi	r2,r2,255
  8031fc:	1080201c 	xori	r2,r2,128
  803200:	10bfe004 	addi	r2,r2,-128
  803204:	10000226 	beq	r2,zero,803210 <logic+0x2e10>
  803208:	00800044 	movi	r2,1
  80320c:	00000106 	br	803214 <logic+0x2e14>
  803210:	0005883a 	mov	r2,zero
  803214:	1007883a 	mov	r3,r2
  803218:	e0bffc17 	ldw	r2,-16(fp)
  80321c:	10c029c5 	stb	r3,167(r2)
  if (d->_g74) {
  803220:	e0bffc17 	ldw	r2,-16(fp)
  803224:	108029c3 	ldbu	r2,167(r2)
  803228:	10803fcc 	andi	r2,r2,255
  80322c:	1080201c 	xori	r2,r2,128
  803230:	10bfe004 	addi	r2,r2,-128
  803234:	10000326 	beq	r2,zero,803244 <logic+0x2e44>
    d->_Pacemaker_local__Atrig7 = 1;
  803238:	e0bffc17 	ldw	r2,-16(fp)
  80323c:	00c00044 	movi	r3,1
  803240:	10c01bc5 	stb	r3,111(r2)
  }
  d->_g57 = d->_pg96;
  803244:	e0bffc17 	ldw	r2,-16(fp)
  803248:	10c05003 	ldbu	r3,320(r2)
  80324c:	e0bffc17 	ldw	r2,-16(fp)
  803250:	10c026c5 	stb	r3,155(r2)
  d->_cg81 = d->V_event;
  803254:	e0bffc17 	ldw	r2,-16(fp)
  803258:	10c01803 	ldbu	r3,96(r2)
  80325c:	e0bffc17 	ldw	r2,-16(fp)
  803260:	10c04085 	stb	r3,258(r2)
  d->_g94 = d->_g57 && d->_cg81;
  803264:	e0bffc17 	ldw	r2,-16(fp)
  803268:	108026c3 	ldbu	r2,155(r2)
  80326c:	10803fcc 	andi	r2,r2,255
  803270:	1080201c 	xori	r2,r2,128
  803274:	10bfe004 	addi	r2,r2,-128
  803278:	10000826 	beq	r2,zero,80329c <logic+0x2e9c>
  80327c:	e0bffc17 	ldw	r2,-16(fp)
  803280:	10804083 	ldbu	r2,258(r2)
  803284:	10803fcc 	andi	r2,r2,255
  803288:	1080201c 	xori	r2,r2,128
  80328c:	10bfe004 	addi	r2,r2,-128
  803290:	10000226 	beq	r2,zero,80329c <logic+0x2e9c>
  803294:	00800044 	movi	r2,1
  803298:	00000106 	br	8032a0 <logic+0x2ea0>
  80329c:	0005883a 	mov	r2,zero
  8032a0:	1007883a 	mov	r3,r2
  8032a4:	e0bffc17 	ldw	r2,-16(fp)
  8032a8:	10c02d45 	stb	r3,181(r2)
  if (d->_g94) {
  8032ac:	e0bffc17 	ldw	r2,-16(fp)
  8032b0:	10802d43 	ldbu	r2,181(r2)
  8032b4:	10803fcc 	andi	r2,r2,255
  8032b8:	1080201c 	xori	r2,r2,128
  8032bc:	10bfe004 	addi	r2,r2,-128
  8032c0:	10000726 	beq	r2,zero,8032e0 <logic+0x2ee0>
    d->_region3_AEI_timer_t = 0;
  8032c4:	e0bffc17 	ldw	r2,-16(fp)
  8032c8:	10000d15 	stw	zero,52(r2)
  8032cc:	10000e15 	stw	zero,56(r2)
    d->_Pacemaker_local__Atrig6 = 0;
  8032d0:	e0bffc17 	ldw	r2,-16(fp)
  8032d4:	10001b85 	stb	zero,110(r2)
    d->_Pacemaker_local__Atrig7 = 0;
  8032d8:	e0bffc17 	ldw	r2,-16(fp)
  8032dc:	10001bc5 	stb	zero,111(r2)
  }
  d->_g88 = d->_pg87;
  8032e0:	e0bffc17 	ldw	r2,-16(fp)
  8032e4:	10c05043 	ldbu	r3,321(r2)
  8032e8:	e0bffc17 	ldw	r2,-16(fp)
  8032ec:	10c02c45 	stb	r3,177(r2)
  d->_g91 = d->_pg90;
  8032f0:	e0bffc17 	ldw	r2,-16(fp)
  8032f4:	10c05083 	ldbu	r3,322(r2)
  8032f8:	e0bffc17 	ldw	r2,-16(fp)
  8032fc:	10c02d05 	stb	r3,180(r2)
  d->_g91 = d->_g94 || d->_g88 || d->_g91;
  803300:	e0bffc17 	ldw	r2,-16(fp)
  803304:	10802d43 	ldbu	r2,181(r2)
  803308:	10803fcc 	andi	r2,r2,255
  80330c:	1080201c 	xori	r2,r2,128
  803310:	10bfe004 	addi	r2,r2,-128
  803314:	10000c1e 	bne	r2,zero,803348 <logic+0x2f48>
  803318:	e0bffc17 	ldw	r2,-16(fp)
  80331c:	10802c43 	ldbu	r2,177(r2)
  803320:	10803fcc 	andi	r2,r2,255
  803324:	1080201c 	xori	r2,r2,128
  803328:	10bfe004 	addi	r2,r2,-128
  80332c:	1000061e 	bne	r2,zero,803348 <logic+0x2f48>
  803330:	e0bffc17 	ldw	r2,-16(fp)
  803334:	10802d03 	ldbu	r2,180(r2)
  803338:	10803fcc 	andi	r2,r2,255
  80333c:	1080201c 	xori	r2,r2,128
  803340:	10bfe004 	addi	r2,r2,-128
  803344:	10000226 	beq	r2,zero,803350 <logic+0x2f50>
  803348:	00800044 	movi	r2,1
  80334c:	00000106 	br	803354 <logic+0x2f54>
  803350:	0005883a 	mov	r2,zero
  803354:	1007883a 	mov	r3,r2
  803358:	e0bffc17 	ldw	r2,-16(fp)
  80335c:	10c02d05 	stb	r3,180(r2)
  d->_cg84 = d->_region3_AEI_timer_t < d->AEI_Constraint;
  803360:	e0bffc17 	ldw	r2,-16(fp)
  803364:	14000d17 	ldw	r16,52(r2)
  803368:	14400e17 	ldw	r17,56(r2)
  80336c:	e0bffc17 	ldw	r2,-16(fp)
  803370:	10800417 	ldw	r2,16(r2)
  803374:	1009883a 	mov	r4,r2
  803378:	08064e40 	call	8064e4 <__floatsidf>
  80337c:	1009883a 	mov	r4,r2
  803380:	180b883a 	mov	r5,r3
  803384:	04800044 	movi	r18,1
  803388:	200d883a 	mov	r6,r4
  80338c:	280f883a 	mov	r7,r5
  803390:	8009883a 	mov	r4,r16
  803394:	880b883a 	mov	r5,r17
  803398:	0805af40 	call	805af4 <__ledf2>
  80339c:	10000116 	blt	r2,zero,8033a4 <logic+0x2fa4>
  8033a0:	0025883a 	mov	r18,zero
  8033a4:	9007883a 	mov	r3,r18
  8033a8:	e0bffc17 	ldw	r2,-16(fp)
  8033ac:	10c040c5 	stb	r3,259(r2)
  d->_g88 = d->_g91 && !d->_cg84;
  8033b0:	e0bffc17 	ldw	r2,-16(fp)
  8033b4:	10802d03 	ldbu	r2,180(r2)
  8033b8:	10803fcc 	andi	r2,r2,255
  8033bc:	1080201c 	xori	r2,r2,128
  8033c0:	10bfe004 	addi	r2,r2,-128
  8033c4:	10000826 	beq	r2,zero,8033e8 <logic+0x2fe8>
  8033c8:	e0bffc17 	ldw	r2,-16(fp)
  8033cc:	108040c3 	ldbu	r2,259(r2)
  8033d0:	10803fcc 	andi	r2,r2,255
  8033d4:	1080201c 	xori	r2,r2,128
  8033d8:	10bfe004 	addi	r2,r2,-128
  8033dc:	1000021e 	bne	r2,zero,8033e8 <logic+0x2fe8>
  8033e0:	00800044 	movi	r2,1
  8033e4:	00000106 	br	8033ec <logic+0x2fec>
  8033e8:	0005883a 	mov	r2,zero
  8033ec:	1007883a 	mov	r3,r2
  8033f0:	e0bffc17 	ldw	r2,-16(fp)
  8033f4:	10c02c45 	stb	r3,177(r2)
  d->_cg89 = d->_Pacemaker_local__Atrig6 || d->_Pacemaker_local__Atrig7;
  8033f8:	e0bffc17 	ldw	r2,-16(fp)
  8033fc:	10801b83 	ldbu	r2,110(r2)
  803400:	10803fcc 	andi	r2,r2,255
  803404:	1080201c 	xori	r2,r2,128
  803408:	10bfe004 	addi	r2,r2,-128
  80340c:	1000061e 	bne	r2,zero,803428 <logic+0x3028>
  803410:	e0bffc17 	ldw	r2,-16(fp)
  803414:	10801bc3 	ldbu	r2,111(r2)
  803418:	10803fcc 	andi	r2,r2,255
  80341c:	1080201c 	xori	r2,r2,128
  803420:	10bfe004 	addi	r2,r2,-128
  803424:	10000226 	beq	r2,zero,803430 <logic+0x3030>
  803428:	00800044 	movi	r2,1
  80342c:	00000106 	br	803434 <logic+0x3034>
  803430:	0005883a 	mov	r2,zero
  803434:	1007883a 	mov	r3,r2
  803438:	e0bffc17 	ldw	r2,-16(fp)
  80343c:	10c04145 	stb	r3,261(r2)
  d->_g90 = d->_g88 && !d->_cg89;
  803440:	e0bffc17 	ldw	r2,-16(fp)
  803444:	10802c43 	ldbu	r2,177(r2)
  803448:	10803fcc 	andi	r2,r2,255
  80344c:	1080201c 	xori	r2,r2,128
  803450:	10bfe004 	addi	r2,r2,-128
  803454:	10000826 	beq	r2,zero,803478 <logic+0x3078>
  803458:	e0bffc17 	ldw	r2,-16(fp)
  80345c:	10804143 	ldbu	r2,261(r2)
  803460:	10803fcc 	andi	r2,r2,255
  803464:	1080201c 	xori	r2,r2,128
  803468:	10bfe004 	addi	r2,r2,-128
  80346c:	1000021e 	bne	r2,zero,803478 <logic+0x3078>
  803470:	00800044 	movi	r2,1
  803474:	00000106 	br	80347c <logic+0x307c>
  803478:	0005883a 	mov	r2,zero
  80347c:	1007883a 	mov	r3,r2
  803480:	e0bffc17 	ldw	r2,-16(fp)
  803484:	10c02cc5 	stb	r3,179(r2)
  d->_g84 = d->_g91 && d->_cg84;
  803488:	e0bffc17 	ldw	r2,-16(fp)
  80348c:	10802d03 	ldbu	r2,180(r2)
  803490:	10803fcc 	andi	r2,r2,255
  803494:	1080201c 	xori	r2,r2,128
  803498:	10bfe004 	addi	r2,r2,-128
  80349c:	10000826 	beq	r2,zero,8034c0 <logic+0x30c0>
  8034a0:	e0bffc17 	ldw	r2,-16(fp)
  8034a4:	108040c3 	ldbu	r2,259(r2)
  8034a8:	10803fcc 	andi	r2,r2,255
  8034ac:	1080201c 	xori	r2,r2,128
  8034b0:	10bfe004 	addi	r2,r2,-128
  8034b4:	10000226 	beq	r2,zero,8034c0 <logic+0x30c0>
  8034b8:	00800044 	movi	r2,1
  8034bc:	00000106 	br	8034c4 <logic+0x30c4>
  8034c0:	0005883a 	mov	r2,zero
  8034c4:	1007883a 	mov	r3,r2
  8034c8:	e0bffc17 	ldw	r2,-16(fp)
  8034cc:	10c02b45 	stb	r3,173(r2)
  if (d->_g84) {
  8034d0:	e0bffc17 	ldw	r2,-16(fp)
  8034d4:	10802b43 	ldbu	r2,173(r2)
  8034d8:	10803fcc 	andi	r2,r2,255
  8034dc:	1080201c 	xori	r2,r2,128
  8034e0:	10bfe004 	addi	r2,r2,-128
  8034e4:	10003426 	beq	r2,zero,8035b8 <logic+0x31b8>
    d->sleepT = (d->sleepT < (d->AEI_Constraint - d->_region3_AEI_timer_t)) ? d->sleepT : (d->AEI_Constraint - d->_region3_AEI_timer_t);
  8034e8:	e0bffc17 	ldw	r2,-16(fp)
  8034ec:	14001517 	ldw	r16,84(r2)
  8034f0:	14401617 	ldw	r17,88(r2)
  8034f4:	e0bffc17 	ldw	r2,-16(fp)
  8034f8:	10800417 	ldw	r2,16(r2)
  8034fc:	1009883a 	mov	r4,r2
  803500:	08064e40 	call	8064e4 <__floatsidf>
  803504:	1011883a 	mov	r8,r2
  803508:	1813883a 	mov	r9,r3
  80350c:	e13ffc17 	ldw	r4,-16(fp)
  803510:	20800d17 	ldw	r2,52(r4)
  803514:	20c00e17 	ldw	r3,56(r4)
  803518:	100d883a 	mov	r6,r2
  80351c:	180f883a 	mov	r7,r3
  803520:	4009883a 	mov	r4,r8
  803524:	480b883a 	mov	r5,r9
  803528:	0805be80 	call	805be8 <__subdf3>
  80352c:	1009883a 	mov	r4,r2
  803530:	180b883a 	mov	r5,r3
  803534:	2005883a 	mov	r2,r4
  803538:	2807883a 	mov	r3,r5
  80353c:	100d883a 	mov	r6,r2
  803540:	180f883a 	mov	r7,r3
  803544:	8009883a 	mov	r4,r16
  803548:	880b883a 	mov	r5,r17
  80354c:	0805af40 	call	805af4 <__ledf2>
  803550:	1000040e 	bge	r2,zero,803564 <logic+0x3164>
  803554:	e13ffc17 	ldw	r4,-16(fp)
  803558:	20801517 	ldw	r2,84(r4)
  80355c:	20c01617 	ldw	r3,88(r4)
  803560:	00001206 	br	8035ac <logic+0x31ac>
  803564:	e0bffc17 	ldw	r2,-16(fp)
  803568:	10800417 	ldw	r2,16(r2)
  80356c:	1009883a 	mov	r4,r2
  803570:	08064e40 	call	8064e4 <__floatsidf>
  803574:	1011883a 	mov	r8,r2
  803578:	1813883a 	mov	r9,r3
  80357c:	e13ffc17 	ldw	r4,-16(fp)
  803580:	20800d17 	ldw	r2,52(r4)
  803584:	20c00e17 	ldw	r3,56(r4)
  803588:	100d883a 	mov	r6,r2
  80358c:	180f883a 	mov	r7,r3
  803590:	4009883a 	mov	r4,r8
  803594:	480b883a 	mov	r5,r9
  803598:	0805be80 	call	805be8 <__subdf3>
  80359c:	1009883a 	mov	r4,r2
  8035a0:	180b883a 	mov	r5,r3
  8035a4:	2005883a 	mov	r2,r4
  8035a8:	2807883a 	mov	r3,r5
  8035ac:	e13ffc17 	ldw	r4,-16(fp)
  8035b0:	20801515 	stw	r2,84(r4)
  8035b4:	20c01615 	stw	r3,88(r4)
  }
  d->_cg85 = d->_Pacemaker_local__Atrig6 || d->_Pacemaker_local__Atrig7;
  8035b8:	e0bffc17 	ldw	r2,-16(fp)
  8035bc:	10801b83 	ldbu	r2,110(r2)
  8035c0:	10803fcc 	andi	r2,r2,255
  8035c4:	1080201c 	xori	r2,r2,128
  8035c8:	10bfe004 	addi	r2,r2,-128
  8035cc:	1000061e 	bne	r2,zero,8035e8 <logic+0x31e8>
  8035d0:	e0bffc17 	ldw	r2,-16(fp)
  8035d4:	10801bc3 	ldbu	r2,111(r2)
  8035d8:	10803fcc 	andi	r2,r2,255
  8035dc:	1080201c 	xori	r2,r2,128
  8035e0:	10bfe004 	addi	r2,r2,-128
  8035e4:	10000226 	beq	r2,zero,8035f0 <logic+0x31f0>
  8035e8:	00800044 	movi	r2,1
  8035ec:	00000106 	br	8035f4 <logic+0x31f4>
  8035f0:	0005883a 	mov	r2,zero
  8035f4:	1007883a 	mov	r3,r2
  8035f8:	e0bffc17 	ldw	r2,-16(fp)
  8035fc:	10c04105 	stb	r3,260(r2)
  d->_g87 = d->_g84 && !d->_cg85;
  803600:	e0bffc17 	ldw	r2,-16(fp)
  803604:	10802b43 	ldbu	r2,173(r2)
  803608:	10803fcc 	andi	r2,r2,255
  80360c:	1080201c 	xori	r2,r2,128
  803610:	10bfe004 	addi	r2,r2,-128
  803614:	10000826 	beq	r2,zero,803638 <logic+0x3238>
  803618:	e0bffc17 	ldw	r2,-16(fp)
  80361c:	10804103 	ldbu	r2,260(r2)
  803620:	10803fcc 	andi	r2,r2,255
  803624:	1080201c 	xori	r2,r2,128
  803628:	10bfe004 	addi	r2,r2,-128
  80362c:	1000021e 	bne	r2,zero,803638 <logic+0x3238>
  803630:	00800044 	movi	r2,1
  803634:	00000106 	br	80363c <logic+0x323c>
  803638:	0005883a 	mov	r2,zero
  80363c:	1007883a 	mov	r3,r2
  803640:	e0bffc17 	ldw	r2,-16(fp)
  803644:	10c02c05 	stb	r3,176(r2)
  d->_g86_e1 = !(d->_g90 || d->_g87);
  803648:	e0bffc17 	ldw	r2,-16(fp)
  80364c:	10802cc3 	ldbu	r2,179(r2)
  803650:	10803fcc 	andi	r2,r2,255
  803654:	1080201c 	xori	r2,r2,128
  803658:	10bfe004 	addi	r2,r2,-128
  80365c:	1000081e 	bne	r2,zero,803680 <logic+0x3280>
  803660:	e0bffc17 	ldw	r2,-16(fp)
  803664:	10802c03 	ldbu	r2,176(r2)
  803668:	10803fcc 	andi	r2,r2,255
  80366c:	1080201c 	xori	r2,r2,128
  803670:	10bfe004 	addi	r2,r2,-128
  803674:	1000021e 	bne	r2,zero,803680 <logic+0x3280>
  803678:	00800044 	movi	r2,1
  80367c:	00000106 	br	803684 <logic+0x3284>
  803680:	0005883a 	mov	r2,zero
  803684:	1007883a 	mov	r3,r2
  803688:	e0bffc17 	ldw	r2,-16(fp)
  80368c:	10c04885 	stb	r3,290(r2)
  d->_g89 = d->_g84 && d->_cg85 || d->_g88 && d->_cg89;
  803690:	e0bffc17 	ldw	r2,-16(fp)
  803694:	10802b43 	ldbu	r2,173(r2)
  803698:	10803fcc 	andi	r2,r2,255
  80369c:	1080201c 	xori	r2,r2,128
  8036a0:	10bfe004 	addi	r2,r2,-128
  8036a4:	10000626 	beq	r2,zero,8036c0 <logic+0x32c0>
  8036a8:	e0bffc17 	ldw	r2,-16(fp)
  8036ac:	10804103 	ldbu	r2,260(r2)
  8036b0:	10803fcc 	andi	r2,r2,255
  8036b4:	1080201c 	xori	r2,r2,128
  8036b8:	10bfe004 	addi	r2,r2,-128
  8036bc:	10000c1e 	bne	r2,zero,8036f0 <logic+0x32f0>
  8036c0:	e0bffc17 	ldw	r2,-16(fp)
  8036c4:	10802c43 	ldbu	r2,177(r2)
  8036c8:	10803fcc 	andi	r2,r2,255
  8036cc:	1080201c 	xori	r2,r2,128
  8036d0:	10bfe004 	addi	r2,r2,-128
  8036d4:	10000826 	beq	r2,zero,8036f8 <logic+0x32f8>
  8036d8:	e0bffc17 	ldw	r2,-16(fp)
  8036dc:	10804143 	ldbu	r2,261(r2)
  8036e0:	10803fcc 	andi	r2,r2,255
  8036e4:	1080201c 	xori	r2,r2,128
  8036e8:	10bfe004 	addi	r2,r2,-128
  8036ec:	10000226 	beq	r2,zero,8036f8 <logic+0x32f8>
  8036f0:	00800044 	movi	r2,1
  8036f4:	00000106 	br	8036fc <logic+0x32fc>
  8036f8:	0005883a 	mov	r2,zero
  8036fc:	1007883a 	mov	r3,r2
  803700:	e0bffc17 	ldw	r2,-16(fp)
  803704:	10c02c85 	stb	r3,178(r2)
  d->_g85 = d->_g94 || d->_g65 && !d->_cg97;
  803708:	e0bffc17 	ldw	r2,-16(fp)
  80370c:	10802d43 	ldbu	r2,181(r2)
  803710:	10803fcc 	andi	r2,r2,255
  803714:	1080201c 	xori	r2,r2,128
  803718:	10bfe004 	addi	r2,r2,-128
  80371c:	10000c1e 	bne	r2,zero,803750 <logic+0x3350>
  803720:	e0bffc17 	ldw	r2,-16(fp)
  803724:	10802843 	ldbu	r2,161(r2)
  803728:	10803fcc 	andi	r2,r2,255
  80372c:	1080201c 	xori	r2,r2,128
  803730:	10bfe004 	addi	r2,r2,-128
  803734:	10000826 	beq	r2,zero,803758 <logic+0x3358>
  803738:	e0bffc17 	ldw	r2,-16(fp)
  80373c:	10804183 	ldbu	r2,262(r2)
  803740:	10803fcc 	andi	r2,r2,255
  803744:	1080201c 	xori	r2,r2,128
  803748:	10bfe004 	addi	r2,r2,-128
  80374c:	1000021e 	bne	r2,zero,803758 <logic+0x3358>
  803750:	00800044 	movi	r2,1
  803754:	00000106 	br	80375c <logic+0x335c>
  803758:	0005883a 	mov	r2,zero
  80375c:	1007883a 	mov	r3,r2
  803760:	e0bffc17 	ldw	r2,-16(fp)
  803764:	10c02b85 	stb	r3,174(r2)
  d->_g97 = !d->_g85;
  803768:	e0bffc17 	ldw	r2,-16(fp)
  80376c:	10802b83 	ldbu	r2,174(r2)
  803770:	10803fcc 	andi	r2,r2,255
  803774:	1080201c 	xori	r2,r2,128
  803778:	10bfe004 	addi	r2,r2,-128
  80377c:	1005003a 	cmpeq	r2,r2,zero
  803780:	1007883a 	mov	r3,r2
  803784:	e0bffc17 	ldw	r2,-16(fp)
  803788:	10c02e05 	stb	r3,184(r2)
  d->_g82 = d->_g63 || d->_g74;
  80378c:	e0bffc17 	ldw	r2,-16(fp)
  803790:	108027c3 	ldbu	r2,159(r2)
  803794:	10803fcc 	andi	r2,r2,255
  803798:	1080201c 	xori	r2,r2,128
  80379c:	10bfe004 	addi	r2,r2,-128
  8037a0:	1000061e 	bne	r2,zero,8037bc <logic+0x33bc>
  8037a4:	e0bffc17 	ldw	r2,-16(fp)
  8037a8:	108029c3 	ldbu	r2,167(r2)
  8037ac:	10803fcc 	andi	r2,r2,255
  8037b0:	1080201c 	xori	r2,r2,128
  8037b4:	10bfe004 	addi	r2,r2,-128
  8037b8:	10000226 	beq	r2,zero,8037c4 <logic+0x33c4>
  8037bc:	00800044 	movi	r2,1
  8037c0:	00000106 	br	8037c8 <logic+0x33c8>
  8037c4:	0005883a 	mov	r2,zero
  8037c8:	1007883a 	mov	r3,r2
  8037cc:	e0bffc17 	ldw	r2,-16(fp)
  8037d0:	10c02b05 	stb	r3,172(r2)
  d->_g95 = (d->_g86_e1 || d->_g89) && (d->_g97 || d->_g82) && (d->_g89 || d->_g82);
  8037d4:	e0bffc17 	ldw	r2,-16(fp)
  8037d8:	10804883 	ldbu	r2,290(r2)
  8037dc:	10803fcc 	andi	r2,r2,255
  8037e0:	1080201c 	xori	r2,r2,128
  8037e4:	10bfe004 	addi	r2,r2,-128
  8037e8:	1000061e 	bne	r2,zero,803804 <logic+0x3404>
  8037ec:	e0bffc17 	ldw	r2,-16(fp)
  8037f0:	10802c83 	ldbu	r2,178(r2)
  8037f4:	10803fcc 	andi	r2,r2,255
  8037f8:	1080201c 	xori	r2,r2,128
  8037fc:	10bfe004 	addi	r2,r2,-128
  803800:	10001a26 	beq	r2,zero,80386c <logic+0x346c>
  803804:	e0bffc17 	ldw	r2,-16(fp)
  803808:	10802e03 	ldbu	r2,184(r2)
  80380c:	10803fcc 	andi	r2,r2,255
  803810:	1080201c 	xori	r2,r2,128
  803814:	10bfe004 	addi	r2,r2,-128
  803818:	1000061e 	bne	r2,zero,803834 <logic+0x3434>
  80381c:	e0bffc17 	ldw	r2,-16(fp)
  803820:	10802b03 	ldbu	r2,172(r2)
  803824:	10803fcc 	andi	r2,r2,255
  803828:	1080201c 	xori	r2,r2,128
  80382c:	10bfe004 	addi	r2,r2,-128
  803830:	10000e26 	beq	r2,zero,80386c <logic+0x346c>
  803834:	e0bffc17 	ldw	r2,-16(fp)
  803838:	10802c83 	ldbu	r2,178(r2)
  80383c:	10803fcc 	andi	r2,r2,255
  803840:	1080201c 	xori	r2,r2,128
  803844:	10bfe004 	addi	r2,r2,-128
  803848:	1000061e 	bne	r2,zero,803864 <logic+0x3464>
  80384c:	e0bffc17 	ldw	r2,-16(fp)
  803850:	10802b03 	ldbu	r2,172(r2)
  803854:	10803fcc 	andi	r2,r2,255
  803858:	1080201c 	xori	r2,r2,128
  80385c:	10bfe004 	addi	r2,r2,-128
  803860:	10000226 	beq	r2,zero,80386c <logic+0x346c>
  803864:	00800044 	movi	r2,1
  803868:	00000106 	br	803870 <logic+0x3470>
  80386c:	0005883a 	mov	r2,zero
  803870:	1007883a 	mov	r3,r2
  803874:	e0bffc17 	ldw	r2,-16(fp)
  803878:	10c02d85 	stb	r3,182(r2)
  d->_cg99 = d->_Pacemaker_local__Atrig6;
  80387c:	e0bffc17 	ldw	r2,-16(fp)
  803880:	10c01b83 	ldbu	r3,110(r2)
  803884:	e0bffc17 	ldw	r2,-16(fp)
  803888:	10c04045 	stb	r3,257(r2)
  d->_g98 = d->_g95 && !d->_cg99;
  80388c:	e0bffc17 	ldw	r2,-16(fp)
  803890:	10802d83 	ldbu	r2,182(r2)
  803894:	10803fcc 	andi	r2,r2,255
  803898:	1080201c 	xori	r2,r2,128
  80389c:	10bfe004 	addi	r2,r2,-128
  8038a0:	10000826 	beq	r2,zero,8038c4 <logic+0x34c4>
  8038a4:	e0bffc17 	ldw	r2,-16(fp)
  8038a8:	10804043 	ldbu	r2,257(r2)
  8038ac:	10803fcc 	andi	r2,r2,255
  8038b0:	1080201c 	xori	r2,r2,128
  8038b4:	10bfe004 	addi	r2,r2,-128
  8038b8:	1000021e 	bne	r2,zero,8038c4 <logic+0x34c4>
  8038bc:	00800044 	movi	r2,1
  8038c0:	00000106 	br	8038c8 <logic+0x34c8>
  8038c4:	0005883a 	mov	r2,zero
  8038c8:	1007883a 	mov	r3,r2
  8038cc:	e0bffc17 	ldw	r2,-16(fp)
  8038d0:	10c02e45 	stb	r3,185(r2)
  if (d->_g98) {
  8038d4:	e0bffc17 	ldw	r2,-16(fp)
  8038d8:	10802e43 	ldbu	r2,185(r2)
  8038dc:	10803fcc 	andi	r2,r2,255
  8038e0:	1080201c 	xori	r2,r2,128
  8038e4:	10bfe004 	addi	r2,r2,-128
  8038e8:	10000626 	beq	r2,zero,803904 <logic+0x3504>
    d->AP |= 1;
  8038ec:	e0bffc17 	ldw	r2,-16(fp)
  8038f0:	10801783 	ldbu	r2,94(r2)
  8038f4:	10800054 	ori	r2,r2,1
  8038f8:	1007883a 	mov	r3,r2
  8038fc:	e0bffc17 	ldw	r2,-16(fp)
  803900:	10c01785 	stb	r3,94(r2)
  }
  d->_g96 = d->_GO || d->_g95 && d->_cg99 || d->_g98 || d->_g57 && !d->_cg81;
  803904:	e0bffc17 	ldw	r2,-16(fp)
  803908:	10803903 	ldbu	r2,228(r2)
  80390c:	10803fcc 	andi	r2,r2,255
  803910:	1080201c 	xori	r2,r2,128
  803914:	10bfe004 	addi	r2,r2,-128
  803918:	10001e1e 	bne	r2,zero,803994 <logic+0x3594>
  80391c:	e0bffc17 	ldw	r2,-16(fp)
  803920:	10802d83 	ldbu	r2,182(r2)
  803924:	10803fcc 	andi	r2,r2,255
  803928:	1080201c 	xori	r2,r2,128
  80392c:	10bfe004 	addi	r2,r2,-128
  803930:	10000626 	beq	r2,zero,80394c <logic+0x354c>
  803934:	e0bffc17 	ldw	r2,-16(fp)
  803938:	10804043 	ldbu	r2,257(r2)
  80393c:	10803fcc 	andi	r2,r2,255
  803940:	1080201c 	xori	r2,r2,128
  803944:	10bfe004 	addi	r2,r2,-128
  803948:	1000121e 	bne	r2,zero,803994 <logic+0x3594>
  80394c:	e0bffc17 	ldw	r2,-16(fp)
  803950:	10802e43 	ldbu	r2,185(r2)
  803954:	10803fcc 	andi	r2,r2,255
  803958:	1080201c 	xori	r2,r2,128
  80395c:	10bfe004 	addi	r2,r2,-128
  803960:	10000c1e 	bne	r2,zero,803994 <logic+0x3594>
  803964:	e0bffc17 	ldw	r2,-16(fp)
  803968:	108026c3 	ldbu	r2,155(r2)
  80396c:	10803fcc 	andi	r2,r2,255
  803970:	1080201c 	xori	r2,r2,128
  803974:	10bfe004 	addi	r2,r2,-128
  803978:	10000826 	beq	r2,zero,80399c <logic+0x359c>
  80397c:	e0bffc17 	ldw	r2,-16(fp)
  803980:	10804083 	ldbu	r2,258(r2)
  803984:	10803fcc 	andi	r2,r2,255
  803988:	1080201c 	xori	r2,r2,128
  80398c:	10bfe004 	addi	r2,r2,-128
  803990:	1000021e 	bne	r2,zero,80399c <logic+0x359c>
  803994:	00800044 	movi	r2,1
  803998:	00000106 	br	8039a0 <logic+0x35a0>
  80399c:	0005883a 	mov	r2,zero
  8039a0:	1007883a 	mov	r3,r2
  8039a4:	e0bffc17 	ldw	r2,-16(fp)
  8039a8:	10c02dc5 	stb	r3,183(r2)
  d->_g86 = d->_pg112;
  8039ac:	e0bffc17 	ldw	r2,-16(fp)
  8039b0:	10c050c3 	ldbu	r3,323(r2)
  8039b4:	e0bffc17 	ldw	r2,-16(fp)
  8039b8:	10c02bc5 	stb	r3,175(r2)
  d->_g86_e1 = d->_pg105;
  8039bc:	e0bffc17 	ldw	r2,-16(fp)
  8039c0:	10c05103 	ldbu	r3,324(r2)
  8039c4:	e0bffc17 	ldw	r2,-16(fp)
  8039c8:	10c04885 	stb	r3,290(r2)
  d->_g96_e2 = !(d->_g86 || d->_g86_e1);
  8039cc:	e0bffc17 	ldw	r2,-16(fp)
  8039d0:	10802bc3 	ldbu	r2,175(r2)
  8039d4:	10803fcc 	andi	r2,r2,255
  8039d8:	1080201c 	xori	r2,r2,128
  8039dc:	10bfe004 	addi	r2,r2,-128
  8039e0:	1000081e 	bne	r2,zero,803a04 <logic+0x3604>
  8039e4:	e0bffc17 	ldw	r2,-16(fp)
  8039e8:	10804883 	ldbu	r2,290(r2)
  8039ec:	10803fcc 	andi	r2,r2,255
  8039f0:	1080201c 	xori	r2,r2,128
  8039f4:	10bfe004 	addi	r2,r2,-128
  8039f8:	1000021e 	bne	r2,zero,803a04 <logic+0x3604>
  8039fc:	00800044 	movi	r2,1
  803a00:	00000106 	br	803a08 <logic+0x3608>
  803a04:	0005883a 	mov	r2,zero
  803a08:	1007883a 	mov	r3,r2
  803a0c:	e0bffc17 	ldw	r2,-16(fp)
  803a10:	10c048c5 	stb	r3,291(r2)
  d->_g99 = d->_pg108;
  803a14:	e0bffc17 	ldw	r2,-16(fp)
  803a18:	10c05143 	ldbu	r3,325(r2)
  803a1c:	e0bffc17 	ldw	r2,-16(fp)
  803a20:	10c02e85 	stb	r3,186(r2)
  d->_cg120 = d->V_event;
  803a24:	e0bffc17 	ldw	r2,-16(fp)
  803a28:	10c01803 	ldbu	r3,96(r2)
  803a2c:	e0bffc17 	ldw	r2,-16(fp)
  803a30:	10c04405 	stb	r3,272(r2)
  d->_g81 = d->_g99 && d->_cg120;
  803a34:	e0bffc17 	ldw	r2,-16(fp)
  803a38:	10802e83 	ldbu	r2,186(r2)
  803a3c:	10803fcc 	andi	r2,r2,255
  803a40:	1080201c 	xori	r2,r2,128
  803a44:	10bfe004 	addi	r2,r2,-128
  803a48:	10000826 	beq	r2,zero,803a6c <logic+0x366c>
  803a4c:	e0bffc17 	ldw	r2,-16(fp)
  803a50:	10804403 	ldbu	r2,272(r2)
  803a54:	10803fcc 	andi	r2,r2,255
  803a58:	1080201c 	xori	r2,r2,128
  803a5c:	10bfe004 	addi	r2,r2,-128
  803a60:	10000226 	beq	r2,zero,803a6c <logic+0x366c>
  803a64:	00800044 	movi	r2,1
  803a68:	00000106 	br	803a70 <logic+0x3670>
  803a6c:	0005883a 	mov	r2,zero
  803a70:	1007883a 	mov	r3,r2
  803a74:	e0bffc17 	ldw	r2,-16(fp)
  803a78:	10c02ac5 	stb	r3,171(r2)
  if (d->_g81) {
  803a7c:	e0bffc17 	ldw	r2,-16(fp)
  803a80:	10802ac3 	ldbu	r2,171(r2)
  803a84:	10803fcc 	andi	r2,r2,255
  803a88:	1080201c 	xori	r2,r2,128
  803a8c:	10bfe004 	addi	r2,r2,-128
  803a90:	10000326 	beq	r2,zero,803aa0 <logic+0x36a0>
    d->_Pacemaker_local__Atrig8 = 1;
  803a94:	e0bffc17 	ldw	r2,-16(fp)
  803a98:	00c00044 	movi	r3,1
  803a9c:	10c01c05 	stb	r3,112(r2)
  }
  d->_g100 = d->_pg144;
  803aa0:	e0bffc17 	ldw	r2,-16(fp)
  803aa4:	10c05183 	ldbu	r3,326(r2)
  803aa8:	e0bffc17 	ldw	r2,-16(fp)
  803aac:	10c02ec5 	stb	r3,187(r2)
  if (d->_g100) {
  803ab0:	e0bffc17 	ldw	r2,-16(fp)
  803ab4:	10802ec3 	ldbu	r2,187(r2)
  803ab8:	10803fcc 	andi	r2,r2,255
  803abc:	1080201c 	xori	r2,r2,128
  803ac0:	10bfe004 	addi	r2,r2,-128
  803ac4:	10001226 	beq	r2,zero,803b10 <logic+0x3710>
    d->_region4_LRI_timer_t += d->deltaT;
  803ac8:	e13ffc17 	ldw	r4,-16(fp)
  803acc:	20800f17 	ldw	r2,60(r4)
  803ad0:	20c01017 	ldw	r3,64(r4)
  803ad4:	e1bffc17 	ldw	r6,-16(fp)
  803ad8:	31001317 	ldw	r4,76(r6)
  803adc:	31401417 	ldw	r5,80(r6)
  803ae0:	200d883a 	mov	r6,r4
  803ae4:	280f883a 	mov	r7,r5
  803ae8:	1009883a 	mov	r4,r2
  803aec:	180b883a 	mov	r5,r3
  803af0:	080516c0 	call	80516c <__adddf3>
  803af4:	1009883a 	mov	r4,r2
  803af8:	180b883a 	mov	r5,r3
  803afc:	2005883a 	mov	r2,r4
  803b00:	2807883a 	mov	r3,r5
  803b04:	e13ffc17 	ldw	r4,-16(fp)
  803b08:	20800f15 	stw	r2,60(r4)
  803b0c:	20c01015 	stw	r3,64(r4)
  }
  d->_g123 = d->_g99 && !d->_cg120;
  803b10:	e0bffc17 	ldw	r2,-16(fp)
  803b14:	10802e83 	ldbu	r2,186(r2)
  803b18:	10803fcc 	andi	r2,r2,255
  803b1c:	1080201c 	xori	r2,r2,128
  803b20:	10bfe004 	addi	r2,r2,-128
  803b24:	10000826 	beq	r2,zero,803b48 <logic+0x3748>
  803b28:	e0bffc17 	ldw	r2,-16(fp)
  803b2c:	10804403 	ldbu	r2,272(r2)
  803b30:	10803fcc 	andi	r2,r2,255
  803b34:	1080201c 	xori	r2,r2,128
  803b38:	10bfe004 	addi	r2,r2,-128
  803b3c:	1000021e 	bne	r2,zero,803b48 <logic+0x3748>
  803b40:	00800044 	movi	r2,1
  803b44:	00000106 	br	803b4c <logic+0x374c>
  803b48:	0005883a 	mov	r2,zero
  803b4c:	1007883a 	mov	r3,r2
  803b50:	e0bffc17 	ldw	r2,-16(fp)
  803b54:	10c03285 	stb	r3,202(r2)
  d->_cg123 = d->_region4_LRI_timer_t >= d->LRI_Constraint;
  803b58:	e0bffc17 	ldw	r2,-16(fp)
  803b5c:	14000f17 	ldw	r16,60(r2)
  803b60:	14401017 	ldw	r17,64(r2)
  803b64:	e0bffc17 	ldw	r2,-16(fp)
  803b68:	10800517 	ldw	r2,20(r2)
  803b6c:	1009883a 	mov	r4,r2
  803b70:	08064e40 	call	8064e4 <__floatsidf>
  803b74:	1009883a 	mov	r4,r2
  803b78:	180b883a 	mov	r5,r3
  803b7c:	04800044 	movi	r18,1
  803b80:	200d883a 	mov	r6,r4
  803b84:	280f883a 	mov	r7,r5
  803b88:	8009883a 	mov	r4,r16
  803b8c:	880b883a 	mov	r5,r17
  803b90:	0805a180 	call	805a18 <__gedf2>
  803b94:	1000010e 	bge	r2,zero,803b9c <logic+0x379c>
  803b98:	0025883a 	mov	r18,zero
  803b9c:	9007883a 	mov	r3,r18
  803ba0:	e0bffc17 	ldw	r2,-16(fp)
  803ba4:	10c043c5 	stb	r3,271(r2)
  d->_g124 = d->_g123 && d->_cg123;
  803ba8:	e0bffc17 	ldw	r2,-16(fp)
  803bac:	10803283 	ldbu	r2,202(r2)
  803bb0:	10803fcc 	andi	r2,r2,255
  803bb4:	1080201c 	xori	r2,r2,128
  803bb8:	10bfe004 	addi	r2,r2,-128
  803bbc:	10000826 	beq	r2,zero,803be0 <logic+0x37e0>
  803bc0:	e0bffc17 	ldw	r2,-16(fp)
  803bc4:	108043c3 	ldbu	r2,271(r2)
  803bc8:	10803fcc 	andi	r2,r2,255
  803bcc:	1080201c 	xori	r2,r2,128
  803bd0:	10bfe004 	addi	r2,r2,-128
  803bd4:	10000226 	beq	r2,zero,803be0 <logic+0x37e0>
  803bd8:	00800044 	movi	r2,1
  803bdc:	00000106 	br	803be4 <logic+0x37e4>
  803be0:	0005883a 	mov	r2,zero
  803be4:	1007883a 	mov	r3,r2
  803be8:	e0bffc17 	ldw	r2,-16(fp)
  803bec:	10c032c5 	stb	r3,203(r2)
  if (d->_g124) {
  803bf0:	e0bffc17 	ldw	r2,-16(fp)
  803bf4:	108032c3 	ldbu	r2,203(r2)
  803bf8:	10803fcc 	andi	r2,r2,255
  803bfc:	1080201c 	xori	r2,r2,128
  803c00:	10bfe004 	addi	r2,r2,-128
  803c04:	10000326 	beq	r2,zero,803c14 <logic+0x3814>
    d->_Pacemaker_local__Atrig9 = 1;
  803c08:	e0bffc17 	ldw	r2,-16(fp)
  803c0c:	00c00044 	movi	r3,1
  803c10:	10c01c45 	stb	r3,113(r2)
  }
  d->_g116 = d->_g86_e1 || d->_g86;
  803c14:	e0bffc17 	ldw	r2,-16(fp)
  803c18:	10804883 	ldbu	r2,290(r2)
  803c1c:	10803fcc 	andi	r2,r2,255
  803c20:	1080201c 	xori	r2,r2,128
  803c24:	10bfe004 	addi	r2,r2,-128
  803c28:	1000061e 	bne	r2,zero,803c44 <logic+0x3844>
  803c2c:	e0bffc17 	ldw	r2,-16(fp)
  803c30:	10802bc3 	ldbu	r2,175(r2)
  803c34:	10803fcc 	andi	r2,r2,255
  803c38:	1080201c 	xori	r2,r2,128
  803c3c:	10bfe004 	addi	r2,r2,-128
  803c40:	10000226 	beq	r2,zero,803c4c <logic+0x384c>
  803c44:	00800044 	movi	r2,1
  803c48:	00000106 	br	803c50 <logic+0x3850>
  803c4c:	0005883a 	mov	r2,zero
  803c50:	1007883a 	mov	r3,r2
  803c54:	e0bffc17 	ldw	r2,-16(fp)
  803c58:	10c03145 	stb	r3,197(r2)
  d->_cg111 = d->_region4_LRI_timer_t < d->LRI_Constraint;
  803c5c:	e0bffc17 	ldw	r2,-16(fp)
  803c60:	14000f17 	ldw	r16,60(r2)
  803c64:	14401017 	ldw	r17,64(r2)
  803c68:	e0bffc17 	ldw	r2,-16(fp)
  803c6c:	10800517 	ldw	r2,20(r2)
  803c70:	1009883a 	mov	r4,r2
  803c74:	08064e40 	call	8064e4 <__floatsidf>
  803c78:	1009883a 	mov	r4,r2
  803c7c:	180b883a 	mov	r5,r3
  803c80:	04800044 	movi	r18,1
  803c84:	200d883a 	mov	r6,r4
  803c88:	280f883a 	mov	r7,r5
  803c8c:	8009883a 	mov	r4,r16
  803c90:	880b883a 	mov	r5,r17
  803c94:	0805af40 	call	805af4 <__ledf2>
  803c98:	10000116 	blt	r2,zero,803ca0 <logic+0x38a0>
  803c9c:	0025883a 	mov	r18,zero
  803ca0:	9007883a 	mov	r3,r18
  803ca4:	e0bffc17 	ldw	r2,-16(fp)
  803ca8:	10c04305 	stb	r3,268(r2)
  d->_g110 = d->_g116 && d->_cg111;
  803cac:	e0bffc17 	ldw	r2,-16(fp)
  803cb0:	10803143 	ldbu	r2,197(r2)
  803cb4:	10803fcc 	andi	r2,r2,255
  803cb8:	1080201c 	xori	r2,r2,128
  803cbc:	10bfe004 	addi	r2,r2,-128
  803cc0:	10000826 	beq	r2,zero,803ce4 <logic+0x38e4>
  803cc4:	e0bffc17 	ldw	r2,-16(fp)
  803cc8:	10804303 	ldbu	r2,268(r2)
  803ccc:	10803fcc 	andi	r2,r2,255
  803cd0:	1080201c 	xori	r2,r2,128
  803cd4:	10bfe004 	addi	r2,r2,-128
  803cd8:	10000226 	beq	r2,zero,803ce4 <logic+0x38e4>
  803cdc:	00800044 	movi	r2,1
  803ce0:	00000106 	br	803ce8 <logic+0x38e8>
  803ce4:	0005883a 	mov	r2,zero
  803ce8:	1007883a 	mov	r3,r2
  803cec:	e0bffc17 	ldw	r2,-16(fp)
  803cf0:	10c03005 	stb	r3,192(r2)
  if (d->_g110) {
  803cf4:	e0bffc17 	ldw	r2,-16(fp)
  803cf8:	10803003 	ldbu	r2,192(r2)
  803cfc:	10803fcc 	andi	r2,r2,255
  803d00:	1080201c 	xori	r2,r2,128
  803d04:	10bfe004 	addi	r2,r2,-128
  803d08:	10003426 	beq	r2,zero,803ddc <logic+0x39dc>
    d->sleepT = (d->sleepT < (d->LRI_Constraint - d->_region4_LRI_timer_t)) ? d->sleepT : (d->LRI_Constraint - d->_region4_LRI_timer_t);
  803d0c:	e0bffc17 	ldw	r2,-16(fp)
  803d10:	14001517 	ldw	r16,84(r2)
  803d14:	14401617 	ldw	r17,88(r2)
  803d18:	e0bffc17 	ldw	r2,-16(fp)
  803d1c:	10800517 	ldw	r2,20(r2)
  803d20:	1009883a 	mov	r4,r2
  803d24:	08064e40 	call	8064e4 <__floatsidf>
  803d28:	1011883a 	mov	r8,r2
  803d2c:	1813883a 	mov	r9,r3
  803d30:	e13ffc17 	ldw	r4,-16(fp)
  803d34:	20800f17 	ldw	r2,60(r4)
  803d38:	20c01017 	ldw	r3,64(r4)
  803d3c:	100d883a 	mov	r6,r2
  803d40:	180f883a 	mov	r7,r3
  803d44:	4009883a 	mov	r4,r8
  803d48:	480b883a 	mov	r5,r9
  803d4c:	0805be80 	call	805be8 <__subdf3>
  803d50:	1009883a 	mov	r4,r2
  803d54:	180b883a 	mov	r5,r3
  803d58:	2005883a 	mov	r2,r4
  803d5c:	2807883a 	mov	r3,r5
  803d60:	100d883a 	mov	r6,r2
  803d64:	180f883a 	mov	r7,r3
  803d68:	8009883a 	mov	r4,r16
  803d6c:	880b883a 	mov	r5,r17
  803d70:	0805af40 	call	805af4 <__ledf2>
  803d74:	1000040e 	bge	r2,zero,803d88 <logic+0x3988>
  803d78:	e13ffc17 	ldw	r4,-16(fp)
  803d7c:	20801517 	ldw	r2,84(r4)
  803d80:	20c01617 	ldw	r3,88(r4)
  803d84:	00001206 	br	803dd0 <logic+0x39d0>
  803d88:	e0bffc17 	ldw	r2,-16(fp)
  803d8c:	10800517 	ldw	r2,20(r2)
  803d90:	1009883a 	mov	r4,r2
  803d94:	08064e40 	call	8064e4 <__floatsidf>
  803d98:	1011883a 	mov	r8,r2
  803d9c:	1813883a 	mov	r9,r3
  803da0:	e13ffc17 	ldw	r4,-16(fp)
  803da4:	20800f17 	ldw	r2,60(r4)
  803da8:	20c01017 	ldw	r3,64(r4)
  803dac:	100d883a 	mov	r6,r2
  803db0:	180f883a 	mov	r7,r3
  803db4:	4009883a 	mov	r4,r8
  803db8:	480b883a 	mov	r5,r9
  803dbc:	0805be80 	call	805be8 <__subdf3>
  803dc0:	1009883a 	mov	r4,r2
  803dc4:	180b883a 	mov	r5,r3
  803dc8:	2005883a 	mov	r2,r4
  803dcc:	2807883a 	mov	r3,r5
  803dd0:	e13ffc17 	ldw	r4,-16(fp)
  803dd4:	20801515 	stw	r2,84(r4)
  803dd8:	20c01615 	stw	r3,88(r4)
  }
  d->_cg112 = d->_Pacemaker_local__Atrig8 || d->_Pacemaker_local__Atrig9;
  803ddc:	e0bffc17 	ldw	r2,-16(fp)
  803de0:	10801c03 	ldbu	r2,112(r2)
  803de4:	10803fcc 	andi	r2,r2,255
  803de8:	1080201c 	xori	r2,r2,128
  803dec:	10bfe004 	addi	r2,r2,-128
  803df0:	1000061e 	bne	r2,zero,803e0c <logic+0x3a0c>
  803df4:	e0bffc17 	ldw	r2,-16(fp)
  803df8:	10801c43 	ldbu	r2,113(r2)
  803dfc:	10803fcc 	andi	r2,r2,255
  803e00:	1080201c 	xori	r2,r2,128
  803e04:	10bfe004 	addi	r2,r2,-128
  803e08:	10000226 	beq	r2,zero,803e14 <logic+0x3a14>
  803e0c:	00800044 	movi	r2,1
  803e10:	00000106 	br	803e18 <logic+0x3a18>
  803e14:	0005883a 	mov	r2,zero
  803e18:	1007883a 	mov	r3,r2
  803e1c:	e0bffc17 	ldw	r2,-16(fp)
  803e20:	10c042c5 	stb	r3,267(r2)
  d->_g111 = d->_g116 && !d->_cg111;
  803e24:	e0bffc17 	ldw	r2,-16(fp)
  803e28:	10803143 	ldbu	r2,197(r2)
  803e2c:	10803fcc 	andi	r2,r2,255
  803e30:	1080201c 	xori	r2,r2,128
  803e34:	10bfe004 	addi	r2,r2,-128
  803e38:	10000826 	beq	r2,zero,803e5c <logic+0x3a5c>
  803e3c:	e0bffc17 	ldw	r2,-16(fp)
  803e40:	10804303 	ldbu	r2,268(r2)
  803e44:	10803fcc 	andi	r2,r2,255
  803e48:	1080201c 	xori	r2,r2,128
  803e4c:	10bfe004 	addi	r2,r2,-128
  803e50:	1000021e 	bne	r2,zero,803e5c <logic+0x3a5c>
  803e54:	00800044 	movi	r2,1
  803e58:	00000106 	br	803e60 <logic+0x3a60>
  803e5c:	0005883a 	mov	r2,zero
  803e60:	1007883a 	mov	r3,r2
  803e64:	e0bffc17 	ldw	r2,-16(fp)
  803e68:	10c03045 	stb	r3,193(r2)
  d->_cg114 = d->_Pacemaker_local__Atrig8 || d->_Pacemaker_local__Atrig9;
  803e6c:	e0bffc17 	ldw	r2,-16(fp)
  803e70:	10801c03 	ldbu	r2,112(r2)
  803e74:	10803fcc 	andi	r2,r2,255
  803e78:	1080201c 	xori	r2,r2,128
  803e7c:	10bfe004 	addi	r2,r2,-128
  803e80:	1000061e 	bne	r2,zero,803e9c <logic+0x3a9c>
  803e84:	e0bffc17 	ldw	r2,-16(fp)
  803e88:	10801c43 	ldbu	r2,113(r2)
  803e8c:	10803fcc 	andi	r2,r2,255
  803e90:	1080201c 	xori	r2,r2,128
  803e94:	10bfe004 	addi	r2,r2,-128
  803e98:	10000226 	beq	r2,zero,803ea4 <logic+0x3aa4>
  803e9c:	00800044 	movi	r2,1
  803ea0:	00000106 	br	803ea8 <logic+0x3aa8>
  803ea4:	0005883a 	mov	r2,zero
  803ea8:	1007883a 	mov	r3,r2
  803eac:	e0bffc17 	ldw	r2,-16(fp)
  803eb0:	10c04345 	stb	r3,269(r2)
  d->_g113 = d->_g110 && d->_cg112 || d->_g111 && d->_cg114;
  803eb4:	e0bffc17 	ldw	r2,-16(fp)
  803eb8:	10803003 	ldbu	r2,192(r2)
  803ebc:	10803fcc 	andi	r2,r2,255
  803ec0:	1080201c 	xori	r2,r2,128
  803ec4:	10bfe004 	addi	r2,r2,-128
  803ec8:	10000626 	beq	r2,zero,803ee4 <logic+0x3ae4>
  803ecc:	e0bffc17 	ldw	r2,-16(fp)
  803ed0:	108042c3 	ldbu	r2,267(r2)
  803ed4:	10803fcc 	andi	r2,r2,255
  803ed8:	1080201c 	xori	r2,r2,128
  803edc:	10bfe004 	addi	r2,r2,-128
  803ee0:	10000c1e 	bne	r2,zero,803f14 <logic+0x3b14>
  803ee4:	e0bffc17 	ldw	r2,-16(fp)
  803ee8:	10803043 	ldbu	r2,193(r2)
  803eec:	10803fcc 	andi	r2,r2,255
  803ef0:	1080201c 	xori	r2,r2,128
  803ef4:	10bfe004 	addi	r2,r2,-128
  803ef8:	10000826 	beq	r2,zero,803f1c <logic+0x3b1c>
  803efc:	e0bffc17 	ldw	r2,-16(fp)
  803f00:	10804343 	ldbu	r2,269(r2)
  803f04:	10803fcc 	andi	r2,r2,255
  803f08:	1080201c 	xori	r2,r2,128
  803f0c:	10bfe004 	addi	r2,r2,-128
  803f10:	10000226 	beq	r2,zero,803f1c <logic+0x3b1c>
  803f14:	00800044 	movi	r2,1
  803f18:	00000106 	br	803f20 <logic+0x3b20>
  803f1c:	0005883a 	mov	r2,zero
  803f20:	1007883a 	mov	r3,r2
  803f24:	e0bffc17 	ldw	r2,-16(fp)
  803f28:	10c030c5 	stb	r3,195(r2)
  d->_g120 = !d->_g99;
  803f2c:	e0bffc17 	ldw	r2,-16(fp)
  803f30:	10802e83 	ldbu	r2,186(r2)
  803f34:	10803fcc 	andi	r2,r2,255
  803f38:	1080201c 	xori	r2,r2,128
  803f3c:	10bfe004 	addi	r2,r2,-128
  803f40:	1005003a 	cmpeq	r2,r2,zero
  803f44:	1007883a 	mov	r3,r2
  803f48:	e0bffc17 	ldw	r2,-16(fp)
  803f4c:	10c031c5 	stb	r3,199(r2)
  d->_g124 = d->_g81 || d->_g124;
  803f50:	e0bffc17 	ldw	r2,-16(fp)
  803f54:	10802ac3 	ldbu	r2,171(r2)
  803f58:	10803fcc 	andi	r2,r2,255
  803f5c:	1080201c 	xori	r2,r2,128
  803f60:	10bfe004 	addi	r2,r2,-128
  803f64:	1000061e 	bne	r2,zero,803f80 <logic+0x3b80>
  803f68:	e0bffc17 	ldw	r2,-16(fp)
  803f6c:	108032c3 	ldbu	r2,203(r2)
  803f70:	10803fcc 	andi	r2,r2,255
  803f74:	1080201c 	xori	r2,r2,128
  803f78:	10bfe004 	addi	r2,r2,-128
  803f7c:	10000226 	beq	r2,zero,803f88 <logic+0x3b88>
  803f80:	00800044 	movi	r2,1
  803f84:	00000106 	br	803f8c <logic+0x3b8c>
  803f88:	0005883a 	mov	r2,zero
  803f8c:	1007883a 	mov	r3,r2
  803f90:	e0bffc17 	ldw	r2,-16(fp)
  803f94:	10c032c5 	stb	r3,203(r2)
  d->_g121 = (d->_g96_e2 || d->_g113) && (d->_g120 || d->_g124) && (d->_g113 || d->_g124);
  803f98:	e0bffc17 	ldw	r2,-16(fp)
  803f9c:	108048c3 	ldbu	r2,291(r2)
  803fa0:	10803fcc 	andi	r2,r2,255
  803fa4:	1080201c 	xori	r2,r2,128
  803fa8:	10bfe004 	addi	r2,r2,-128
  803fac:	1000061e 	bne	r2,zero,803fc8 <logic+0x3bc8>
  803fb0:	e0bffc17 	ldw	r2,-16(fp)
  803fb4:	108030c3 	ldbu	r2,195(r2)
  803fb8:	10803fcc 	andi	r2,r2,255
  803fbc:	1080201c 	xori	r2,r2,128
  803fc0:	10bfe004 	addi	r2,r2,-128
  803fc4:	10001a26 	beq	r2,zero,804030 <logic+0x3c30>
  803fc8:	e0bffc17 	ldw	r2,-16(fp)
  803fcc:	108031c3 	ldbu	r2,199(r2)
  803fd0:	10803fcc 	andi	r2,r2,255
  803fd4:	1080201c 	xori	r2,r2,128
  803fd8:	10bfe004 	addi	r2,r2,-128
  803fdc:	1000061e 	bne	r2,zero,803ff8 <logic+0x3bf8>
  803fe0:	e0bffc17 	ldw	r2,-16(fp)
  803fe4:	108032c3 	ldbu	r2,203(r2)
  803fe8:	10803fcc 	andi	r2,r2,255
  803fec:	1080201c 	xori	r2,r2,128
  803ff0:	10bfe004 	addi	r2,r2,-128
  803ff4:	10000e26 	beq	r2,zero,804030 <logic+0x3c30>
  803ff8:	e0bffc17 	ldw	r2,-16(fp)
  803ffc:	108030c3 	ldbu	r2,195(r2)
  804000:	10803fcc 	andi	r2,r2,255
  804004:	1080201c 	xori	r2,r2,128
  804008:	10bfe004 	addi	r2,r2,-128
  80400c:	1000061e 	bne	r2,zero,804028 <logic+0x3c28>
  804010:	e0bffc17 	ldw	r2,-16(fp)
  804014:	108032c3 	ldbu	r2,203(r2)
  804018:	10803fcc 	andi	r2,r2,255
  80401c:	1080201c 	xori	r2,r2,128
  804020:	10bfe004 	addi	r2,r2,-128
  804024:	10000226 	beq	r2,zero,804030 <logic+0x3c30>
  804028:	00800044 	movi	r2,1
  80402c:	00000106 	br	804034 <logic+0x3c34>
  804030:	0005883a 	mov	r2,zero
  804034:	1007883a 	mov	r3,r2
  804038:	e0bffc17 	ldw	r2,-16(fp)
  80403c:	10c03205 	stb	r3,200(r2)
  d->_cg125 = d->_Pacemaker_local__Atrig8;
  804040:	e0bffc17 	ldw	r2,-16(fp)
  804044:	10c01c03 	ldbu	r3,112(r2)
  804048:	e0bffc17 	ldw	r2,-16(fp)
  80404c:	10c04445 	stb	r3,273(r2)
  d->_g113 = d->_g121 && !d->_cg125;
  804050:	e0bffc17 	ldw	r2,-16(fp)
  804054:	10803203 	ldbu	r2,200(r2)
  804058:	10803fcc 	andi	r2,r2,255
  80405c:	1080201c 	xori	r2,r2,128
  804060:	10bfe004 	addi	r2,r2,-128
  804064:	10000826 	beq	r2,zero,804088 <logic+0x3c88>
  804068:	e0bffc17 	ldw	r2,-16(fp)
  80406c:	10804443 	ldbu	r2,273(r2)
  804070:	10803fcc 	andi	r2,r2,255
  804074:	1080201c 	xori	r2,r2,128
  804078:	10bfe004 	addi	r2,r2,-128
  80407c:	1000021e 	bne	r2,zero,804088 <logic+0x3c88>
  804080:	00800044 	movi	r2,1
  804084:	00000106 	br	80408c <logic+0x3c8c>
  804088:	0005883a 	mov	r2,zero
  80408c:	1007883a 	mov	r3,r2
  804090:	e0bffc17 	ldw	r2,-16(fp)
  804094:	10c030c5 	stb	r3,195(r2)
  if (d->_g113) {
  804098:	e0bffc17 	ldw	r2,-16(fp)
  80409c:	108030c3 	ldbu	r2,195(r2)
  8040a0:	10803fcc 	andi	r2,r2,255
  8040a4:	1080201c 	xori	r2,r2,128
  8040a8:	10bfe004 	addi	r2,r2,-128
  8040ac:	10000626 	beq	r2,zero,8040c8 <logic+0x3cc8>
    d->VP |= 1;
  8040b0:	e0bffc17 	ldw	r2,-16(fp)
  8040b4:	108017c3 	ldbu	r2,95(r2)
  8040b8:	10800054 	ori	r2,r2,1
  8040bc:	1007883a 	mov	r3,r2
  8040c0:	e0bffc17 	ldw	r2,-16(fp)
  8040c4:	10c017c5 	stb	r3,95(r2)
  }
  d->_g113_e1 = d->_pg122;
  8040c8:	e0bffc17 	ldw	r2,-16(fp)
  8040cc:	10c051c3 	ldbu	r3,327(r2)
  8040d0:	e0bffc17 	ldw	r2,-16(fp)
  8040d4:	10c04905 	stb	r3,292(r2)
  d->_cg104 = d->V_event;
  8040d8:	e0bffc17 	ldw	r2,-16(fp)
  8040dc:	10c01803 	ldbu	r3,96(r2)
  8040e0:	e0bffc17 	ldw	r2,-16(fp)
  8040e4:	10c04205 	stb	r3,264(r2)
  d->_g122 = d->_GO || d->_g113 || d->_g113_e1 && !d->_cg104;
  8040e8:	e0bffc17 	ldw	r2,-16(fp)
  8040ec:	10803903 	ldbu	r2,228(r2)
  8040f0:	10803fcc 	andi	r2,r2,255
  8040f4:	1080201c 	xori	r2,r2,128
  8040f8:	10bfe004 	addi	r2,r2,-128
  8040fc:	1000121e 	bne	r2,zero,804148 <logic+0x3d48>
  804100:	e0bffc17 	ldw	r2,-16(fp)
  804104:	108030c3 	ldbu	r2,195(r2)
  804108:	10803fcc 	andi	r2,r2,255
  80410c:	1080201c 	xori	r2,r2,128
  804110:	10bfe004 	addi	r2,r2,-128
  804114:	10000c1e 	bne	r2,zero,804148 <logic+0x3d48>
  804118:	e0bffc17 	ldw	r2,-16(fp)
  80411c:	10804903 	ldbu	r2,292(r2)
  804120:	10803fcc 	andi	r2,r2,255
  804124:	1080201c 	xori	r2,r2,128
  804128:	10bfe004 	addi	r2,r2,-128
  80412c:	10000826 	beq	r2,zero,804150 <logic+0x3d50>
  804130:	e0bffc17 	ldw	r2,-16(fp)
  804134:	10804203 	ldbu	r2,264(r2)
  804138:	10803fcc 	andi	r2,r2,255
  80413c:	1080201c 	xori	r2,r2,128
  804140:	10bfe004 	addi	r2,r2,-128
  804144:	1000021e 	bne	r2,zero,804150 <logic+0x3d50>
  804148:	00800044 	movi	r2,1
  80414c:	00000106 	br	804154 <logic+0x3d54>
  804150:	0005883a 	mov	r2,zero
  804154:	1007883a 	mov	r3,r2
  804158:	e0bffc17 	ldw	r2,-16(fp)
  80415c:	10c03245 	stb	r3,201(r2)
  d->_g122_e2 = d->_g113_e1 && d->_cg104;
  804160:	e0bffc17 	ldw	r2,-16(fp)
  804164:	10804903 	ldbu	r2,292(r2)
  804168:	10803fcc 	andi	r2,r2,255
  80416c:	1080201c 	xori	r2,r2,128
  804170:	10bfe004 	addi	r2,r2,-128
  804174:	10000826 	beq	r2,zero,804198 <logic+0x3d98>
  804178:	e0bffc17 	ldw	r2,-16(fp)
  80417c:	10804203 	ldbu	r2,264(r2)
  804180:	10803fcc 	andi	r2,r2,255
  804184:	1080201c 	xori	r2,r2,128
  804188:	10bfe004 	addi	r2,r2,-128
  80418c:	10000226 	beq	r2,zero,804198 <logic+0x3d98>
  804190:	00800044 	movi	r2,1
  804194:	00000106 	br	80419c <logic+0x3d9c>
  804198:	0005883a 	mov	r2,zero
  80419c:	1007883a 	mov	r3,r2
  8041a0:	e0bffc17 	ldw	r2,-16(fp)
  8041a4:	10c04945 	stb	r3,293(r2)
  if (d->_g122_e2) {
  8041a8:	e0bffc17 	ldw	r2,-16(fp)
  8041ac:	10804943 	ldbu	r2,293(r2)
  8041b0:	10803fcc 	andi	r2,r2,255
  8041b4:	1080201c 	xori	r2,r2,128
  8041b8:	10bfe004 	addi	r2,r2,-128
  8041bc:	10000326 	beq	r2,zero,8041cc <logic+0x3dcc>
    d->_region4_LRI_timer_t = 0;
  8041c0:	e0bffc17 	ldw	r2,-16(fp)
  8041c4:	10000f15 	stw	zero,60(r2)
  8041c8:	10001015 	stw	zero,64(r2)
  }
  d->_g127 = d->_g121 && d->_cg125;
  8041cc:	e0bffc17 	ldw	r2,-16(fp)
  8041d0:	10803203 	ldbu	r2,200(r2)
  8041d4:	10803fcc 	andi	r2,r2,255
  8041d8:	1080201c 	xori	r2,r2,128
  8041dc:	10bfe004 	addi	r2,r2,-128
  8041e0:	10000826 	beq	r2,zero,804204 <logic+0x3e04>
  8041e4:	e0bffc17 	ldw	r2,-16(fp)
  8041e8:	10804443 	ldbu	r2,273(r2)
  8041ec:	10803fcc 	andi	r2,r2,255
  8041f0:	1080201c 	xori	r2,r2,128
  8041f4:	10bfe004 	addi	r2,r2,-128
  8041f8:	10000226 	beq	r2,zero,804204 <logic+0x3e04>
  8041fc:	00800044 	movi	r2,1
  804200:	00000106 	br	804208 <logic+0x3e08>
  804204:	0005883a 	mov	r2,zero
  804208:	1007883a 	mov	r3,r2
  80420c:	e0bffc17 	ldw	r2,-16(fp)
  804210:	10c03385 	stb	r3,206(r2)
  if (d->_g127) {
  804214:	e0bffc17 	ldw	r2,-16(fp)
  804218:	10803383 	ldbu	r2,206(r2)
  80421c:	10803fcc 	andi	r2,r2,255
  804220:	1080201c 	xori	r2,r2,128
  804224:	10bfe004 	addi	r2,r2,-128
  804228:	10000326 	beq	r2,zero,804238 <logic+0x3e38>
    d->_region4_LRI_timer_t = 0;
  80422c:	e0bffc17 	ldw	r2,-16(fp)
  804230:	10000f15 	stw	zero,60(r2)
  804234:	10001015 	stw	zero,64(r2)
  }
  d->_g104 = d->_g122_e2 || d->_g127;
  804238:	e0bffc17 	ldw	r2,-16(fp)
  80423c:	10804943 	ldbu	r2,293(r2)
  804240:	10803fcc 	andi	r2,r2,255
  804244:	1080201c 	xori	r2,r2,128
  804248:	10bfe004 	addi	r2,r2,-128
  80424c:	1000061e 	bne	r2,zero,804268 <logic+0x3e68>
  804250:	e0bffc17 	ldw	r2,-16(fp)
  804254:	10803383 	ldbu	r2,206(r2)
  804258:	10803fcc 	andi	r2,r2,255
  80425c:	1080201c 	xori	r2,r2,128
  804260:	10bfe004 	addi	r2,r2,-128
  804264:	10000226 	beq	r2,zero,804270 <logic+0x3e70>
  804268:	00800044 	movi	r2,1
  80426c:	00000106 	br	804274 <logic+0x3e74>
  804270:	0005883a 	mov	r2,zero
  804274:	1007883a 	mov	r3,r2
  804278:	e0bffc17 	ldw	r2,-16(fp)
  80427c:	10c02f05 	stb	r3,188(r2)
  if (d->_g104) {
  804280:	e0bffc17 	ldw	r2,-16(fp)
  804284:	10802f03 	ldbu	r2,188(r2)
  804288:	10803fcc 	andi	r2,r2,255
  80428c:	1080201c 	xori	r2,r2,128
  804290:	10bfe004 	addi	r2,r2,-128
  804294:	10000426 	beq	r2,zero,8042a8 <logic+0x3ea8>
    d->_Pacemaker_local__Atrig8 = 0;
  804298:	e0bffc17 	ldw	r2,-16(fp)
  80429c:	10001c05 	stb	zero,112(r2)
    d->_Pacemaker_local__Atrig9 = 0;
  8042a0:	e0bffc17 	ldw	r2,-16(fp)
  8042a4:	10001c45 	stb	zero,113(r2)
  }
  d->_cg107 = d->_region4_LRI_timer_t < d->LRI_Constraint;
  8042a8:	e0bffc17 	ldw	r2,-16(fp)
  8042ac:	14000f17 	ldw	r16,60(r2)
  8042b0:	14401017 	ldw	r17,64(r2)
  8042b4:	e0bffc17 	ldw	r2,-16(fp)
  8042b8:	10800517 	ldw	r2,20(r2)
  8042bc:	1009883a 	mov	r4,r2
  8042c0:	08064e40 	call	8064e4 <__floatsidf>
  8042c4:	1009883a 	mov	r4,r2
  8042c8:	180b883a 	mov	r5,r3
  8042cc:	04800044 	movi	r18,1
  8042d0:	200d883a 	mov	r6,r4
  8042d4:	280f883a 	mov	r7,r5
  8042d8:	8009883a 	mov	r4,r16
  8042dc:	880b883a 	mov	r5,r17
  8042e0:	0805af40 	call	805af4 <__ledf2>
  8042e4:	10000116 	blt	r2,zero,8042ec <logic+0x3eec>
  8042e8:	0025883a 	mov	r18,zero
  8042ec:	9007883a 	mov	r3,r18
  8042f0:	e0bffc17 	ldw	r2,-16(fp)
  8042f4:	10c04245 	stb	r3,265(r2)
  d->_g125 = d->_g104 && d->_cg107;
  8042f8:	e0bffc17 	ldw	r2,-16(fp)
  8042fc:	10802f03 	ldbu	r2,188(r2)
  804300:	10803fcc 	andi	r2,r2,255
  804304:	1080201c 	xori	r2,r2,128
  804308:	10bfe004 	addi	r2,r2,-128
  80430c:	10000826 	beq	r2,zero,804330 <logic+0x3f30>
  804310:	e0bffc17 	ldw	r2,-16(fp)
  804314:	10804243 	ldbu	r2,265(r2)
  804318:	10803fcc 	andi	r2,r2,255
  80431c:	1080201c 	xori	r2,r2,128
  804320:	10bfe004 	addi	r2,r2,-128
  804324:	10000226 	beq	r2,zero,804330 <logic+0x3f30>
  804328:	00800044 	movi	r2,1
  80432c:	00000106 	br	804334 <logic+0x3f34>
  804330:	0005883a 	mov	r2,zero
  804334:	1007883a 	mov	r3,r2
  804338:	e0bffc17 	ldw	r2,-16(fp)
  80433c:	10c03305 	stb	r3,204(r2)
  if (d->_g125) {
  804340:	e0bffc17 	ldw	r2,-16(fp)
  804344:	10803303 	ldbu	r2,204(r2)
  804348:	10803fcc 	andi	r2,r2,255
  80434c:	1080201c 	xori	r2,r2,128
  804350:	10bfe004 	addi	r2,r2,-128
  804354:	10003426 	beq	r2,zero,804428 <logic+0x4028>
    d->sleepT = (d->sleepT < (d->LRI_Constraint - d->_region4_LRI_timer_t)) ? d->sleepT : (d->LRI_Constraint - d->_region4_LRI_timer_t);
  804358:	e0bffc17 	ldw	r2,-16(fp)
  80435c:	14001517 	ldw	r16,84(r2)
  804360:	14401617 	ldw	r17,88(r2)
  804364:	e0bffc17 	ldw	r2,-16(fp)
  804368:	10800517 	ldw	r2,20(r2)
  80436c:	1009883a 	mov	r4,r2
  804370:	08064e40 	call	8064e4 <__floatsidf>
  804374:	1011883a 	mov	r8,r2
  804378:	1813883a 	mov	r9,r3
  80437c:	e13ffc17 	ldw	r4,-16(fp)
  804380:	20800f17 	ldw	r2,60(r4)
  804384:	20c01017 	ldw	r3,64(r4)
  804388:	100d883a 	mov	r6,r2
  80438c:	180f883a 	mov	r7,r3
  804390:	4009883a 	mov	r4,r8
  804394:	480b883a 	mov	r5,r9
  804398:	0805be80 	call	805be8 <__subdf3>
  80439c:	1009883a 	mov	r4,r2
  8043a0:	180b883a 	mov	r5,r3
  8043a4:	2005883a 	mov	r2,r4
  8043a8:	2807883a 	mov	r3,r5
  8043ac:	100d883a 	mov	r6,r2
  8043b0:	180f883a 	mov	r7,r3
  8043b4:	8009883a 	mov	r4,r16
  8043b8:	880b883a 	mov	r5,r17
  8043bc:	0805af40 	call	805af4 <__ledf2>
  8043c0:	1000040e 	bge	r2,zero,8043d4 <logic+0x3fd4>
  8043c4:	e13ffc17 	ldw	r4,-16(fp)
  8043c8:	20801517 	ldw	r2,84(r4)
  8043cc:	20c01617 	ldw	r3,88(r4)
  8043d0:	00001206 	br	80441c <logic+0x401c>
  8043d4:	e0bffc17 	ldw	r2,-16(fp)
  8043d8:	10800517 	ldw	r2,20(r2)
  8043dc:	1009883a 	mov	r4,r2
  8043e0:	08064e40 	call	8064e4 <__floatsidf>
  8043e4:	1011883a 	mov	r8,r2
  8043e8:	1813883a 	mov	r9,r3
  8043ec:	e13ffc17 	ldw	r4,-16(fp)
  8043f0:	20800f17 	ldw	r2,60(r4)
  8043f4:	20c01017 	ldw	r3,64(r4)
  8043f8:	100d883a 	mov	r6,r2
  8043fc:	180f883a 	mov	r7,r3
  804400:	4009883a 	mov	r4,r8
  804404:	480b883a 	mov	r5,r9
  804408:	0805be80 	call	805be8 <__subdf3>
  80440c:	1009883a 	mov	r4,r2
  804410:	180b883a 	mov	r5,r3
  804414:	2005883a 	mov	r2,r4
  804418:	2807883a 	mov	r3,r5
  80441c:	e13ffc17 	ldw	r4,-16(fp)
  804420:	20801515 	stw	r2,84(r4)
  804424:	20c01615 	stw	r3,88(r4)
  }
  d->_cg108 = d->_Pacemaker_local__Atrig8 || d->_Pacemaker_local__Atrig9;
  804428:	e0bffc17 	ldw	r2,-16(fp)
  80442c:	10801c03 	ldbu	r2,112(r2)
  804430:	10803fcc 	andi	r2,r2,255
  804434:	1080201c 	xori	r2,r2,128
  804438:	10bfe004 	addi	r2,r2,-128
  80443c:	1000061e 	bne	r2,zero,804458 <logic+0x4058>
  804440:	e0bffc17 	ldw	r2,-16(fp)
  804444:	10801c43 	ldbu	r2,113(r2)
  804448:	10803fcc 	andi	r2,r2,255
  80444c:	1080201c 	xori	r2,r2,128
  804450:	10bfe004 	addi	r2,r2,-128
  804454:	10000226 	beq	r2,zero,804460 <logic+0x4060>
  804458:	00800044 	movi	r2,1
  80445c:	00000106 	br	804464 <logic+0x4064>
  804460:	0005883a 	mov	r2,zero
  804464:	1007883a 	mov	r3,r2
  804468:	e0bffc17 	ldw	r2,-16(fp)
  80446c:	10c04285 	stb	r3,266(r2)
  d->_g105 = d->_g125 && !d->_cg108 || d->_g110 && !d->_cg112;
  804470:	e0bffc17 	ldw	r2,-16(fp)
  804474:	10803303 	ldbu	r2,204(r2)
  804478:	10803fcc 	andi	r2,r2,255
  80447c:	1080201c 	xori	r2,r2,128
  804480:	10bfe004 	addi	r2,r2,-128
  804484:	10000626 	beq	r2,zero,8044a0 <logic+0x40a0>
  804488:	e0bffc17 	ldw	r2,-16(fp)
  80448c:	10804283 	ldbu	r2,266(r2)
  804490:	10803fcc 	andi	r2,r2,255
  804494:	1080201c 	xori	r2,r2,128
  804498:	10bfe004 	addi	r2,r2,-128
  80449c:	10000c26 	beq	r2,zero,8044d0 <logic+0x40d0>
  8044a0:	e0bffc17 	ldw	r2,-16(fp)
  8044a4:	10803003 	ldbu	r2,192(r2)
  8044a8:	10803fcc 	andi	r2,r2,255
  8044ac:	1080201c 	xori	r2,r2,128
  8044b0:	10bfe004 	addi	r2,r2,-128
  8044b4:	10000826 	beq	r2,zero,8044d8 <logic+0x40d8>
  8044b8:	e0bffc17 	ldw	r2,-16(fp)
  8044bc:	108042c3 	ldbu	r2,267(r2)
  8044c0:	10803fcc 	andi	r2,r2,255
  8044c4:	1080201c 	xori	r2,r2,128
  8044c8:	10bfe004 	addi	r2,r2,-128
  8044cc:	1000021e 	bne	r2,zero,8044d8 <logic+0x40d8>
  8044d0:	00800044 	movi	r2,1
  8044d4:	00000106 	br	8044dc <logic+0x40dc>
  8044d8:	0005883a 	mov	r2,zero
  8044dc:	1007883a 	mov	r3,r2
  8044e0:	e0bffc17 	ldw	r2,-16(fp)
  8044e4:	10c02f45 	stb	r3,189(r2)
  d->_g126 = d->_g104 && !d->_cg107;
  8044e8:	e0bffc17 	ldw	r2,-16(fp)
  8044ec:	10802f03 	ldbu	r2,188(r2)
  8044f0:	10803fcc 	andi	r2,r2,255
  8044f4:	1080201c 	xori	r2,r2,128
  8044f8:	10bfe004 	addi	r2,r2,-128
  8044fc:	10000826 	beq	r2,zero,804520 <logic+0x4120>
  804500:	e0bffc17 	ldw	r2,-16(fp)
  804504:	10804243 	ldbu	r2,265(r2)
  804508:	10803fcc 	andi	r2,r2,255
  80450c:	1080201c 	xori	r2,r2,128
  804510:	10bfe004 	addi	r2,r2,-128
  804514:	1000021e 	bne	r2,zero,804520 <logic+0x4120>
  804518:	00800044 	movi	r2,1
  80451c:	00000106 	br	804524 <logic+0x4124>
  804520:	0005883a 	mov	r2,zero
  804524:	1007883a 	mov	r3,r2
  804528:	e0bffc17 	ldw	r2,-16(fp)
  80452c:	10c03345 	stb	r3,205(r2)
  d->_cg117 = d->_Pacemaker_local__Atrig8 || d->_Pacemaker_local__Atrig9;
  804530:	e0bffc17 	ldw	r2,-16(fp)
  804534:	10801c03 	ldbu	r2,112(r2)
  804538:	10803fcc 	andi	r2,r2,255
  80453c:	1080201c 	xori	r2,r2,128
  804540:	10bfe004 	addi	r2,r2,-128
  804544:	1000061e 	bne	r2,zero,804560 <logic+0x4160>
  804548:	e0bffc17 	ldw	r2,-16(fp)
  80454c:	10801c43 	ldbu	r2,113(r2)
  804550:	10803fcc 	andi	r2,r2,255
  804554:	1080201c 	xori	r2,r2,128
  804558:	10bfe004 	addi	r2,r2,-128
  80455c:	10000226 	beq	r2,zero,804568 <logic+0x4168>
  804560:	00800044 	movi	r2,1
  804564:	00000106 	br	80456c <logic+0x416c>
  804568:	0005883a 	mov	r2,zero
  80456c:	1007883a 	mov	r3,r2
  804570:	e0bffc17 	ldw	r2,-16(fp)
  804574:	10c04385 	stb	r3,270(r2)
  d->_g112 = d->_g111 && !d->_cg114 || d->_g126 && !d->_cg117;
  804578:	e0bffc17 	ldw	r2,-16(fp)
  80457c:	10803043 	ldbu	r2,193(r2)
  804580:	10803fcc 	andi	r2,r2,255
  804584:	1080201c 	xori	r2,r2,128
  804588:	10bfe004 	addi	r2,r2,-128
  80458c:	10000626 	beq	r2,zero,8045a8 <logic+0x41a8>
  804590:	e0bffc17 	ldw	r2,-16(fp)
  804594:	10804343 	ldbu	r2,269(r2)
  804598:	10803fcc 	andi	r2,r2,255
  80459c:	1080201c 	xori	r2,r2,128
  8045a0:	10bfe004 	addi	r2,r2,-128
  8045a4:	10000c26 	beq	r2,zero,8045d8 <logic+0x41d8>
  8045a8:	e0bffc17 	ldw	r2,-16(fp)
  8045ac:	10803343 	ldbu	r2,205(r2)
  8045b0:	10803fcc 	andi	r2,r2,255
  8045b4:	1080201c 	xori	r2,r2,128
  8045b8:	10bfe004 	addi	r2,r2,-128
  8045bc:	10000826 	beq	r2,zero,8045e0 <logic+0x41e0>
  8045c0:	e0bffc17 	ldw	r2,-16(fp)
  8045c4:	10804383 	ldbu	r2,270(r2)
  8045c8:	10803fcc 	andi	r2,r2,255
  8045cc:	1080201c 	xori	r2,r2,128
  8045d0:	10bfe004 	addi	r2,r2,-128
  8045d4:	1000021e 	bne	r2,zero,8045e0 <logic+0x41e0>
  8045d8:	00800044 	movi	r2,1
  8045dc:	00000106 	br	8045e4 <logic+0x41e4>
  8045e0:	0005883a 	mov	r2,zero
  8045e4:	1007883a 	mov	r3,r2
  8045e8:	e0bffc17 	ldw	r2,-16(fp)
  8045ec:	10c03085 	stb	r3,194(r2)
  d->_g108 = d->_g104 || d->_g123 && !d->_cg123;
  8045f0:	e0bffc17 	ldw	r2,-16(fp)
  8045f4:	10802f03 	ldbu	r2,188(r2)
  8045f8:	10803fcc 	andi	r2,r2,255
  8045fc:	1080201c 	xori	r2,r2,128
  804600:	10bfe004 	addi	r2,r2,-128
  804604:	10000c1e 	bne	r2,zero,804638 <logic+0x4238>
  804608:	e0bffc17 	ldw	r2,-16(fp)
  80460c:	10803283 	ldbu	r2,202(r2)
  804610:	10803fcc 	andi	r2,r2,255
  804614:	1080201c 	xori	r2,r2,128
  804618:	10bfe004 	addi	r2,r2,-128
  80461c:	10000826 	beq	r2,zero,804640 <logic+0x4240>
  804620:	e0bffc17 	ldw	r2,-16(fp)
  804624:	108043c3 	ldbu	r2,271(r2)
  804628:	10803fcc 	andi	r2,r2,255
  80462c:	1080201c 	xori	r2,r2,128
  804630:	10bfe004 	addi	r2,r2,-128
  804634:	1000021e 	bne	r2,zero,804640 <logic+0x4240>
  804638:	00800044 	movi	r2,1
  80463c:	00000106 	br	804644 <logic+0x4244>
  804640:	0005883a 	mov	r2,zero
  804644:	1007883a 	mov	r3,r2
  804648:	e0bffc17 	ldw	r2,-16(fp)
  80464c:	10c02fc5 	stb	r3,191(r2)
  d->_g117 = d->_GO || d->_g149_e2 || d->_g131 && !d->_cg131;
  804650:	e0bffc17 	ldw	r2,-16(fp)
  804654:	10803903 	ldbu	r2,228(r2)
  804658:	10803fcc 	andi	r2,r2,255
  80465c:	1080201c 	xori	r2,r2,128
  804660:	10bfe004 	addi	r2,r2,-128
  804664:	1000121e 	bne	r2,zero,8046b0 <logic+0x42b0>
  804668:	e0bffc17 	ldw	r2,-16(fp)
  80466c:	108049c3 	ldbu	r2,295(r2)
  804670:	10803fcc 	andi	r2,r2,255
  804674:	1080201c 	xori	r2,r2,128
  804678:	10bfe004 	addi	r2,r2,-128
  80467c:	10000c1e 	bne	r2,zero,8046b0 <logic+0x42b0>
  804680:	e0bffc17 	ldw	r2,-16(fp)
  804684:	108033c3 	ldbu	r2,207(r2)
  804688:	10803fcc 	andi	r2,r2,255
  80468c:	1080201c 	xori	r2,r2,128
  804690:	10bfe004 	addi	r2,r2,-128
  804694:	10000826 	beq	r2,zero,8046b8 <logic+0x42b8>
  804698:	e0bffc17 	ldw	r2,-16(fp)
  80469c:	10804483 	ldbu	r2,274(r2)
  8046a0:	10803fcc 	andi	r2,r2,255
  8046a4:	1080201c 	xori	r2,r2,128
  8046a8:	10bfe004 	addi	r2,r2,-128
  8046ac:	1000021e 	bne	r2,zero,8046b8 <logic+0x42b8>
  8046b0:	00800044 	movi	r2,1
  8046b4:	00000106 	br	8046bc <logic+0x42bc>
  8046b8:	0005883a 	mov	r2,zero
  8046bc:	1007883a 	mov	r3,r2
  8046c0:	e0bffc17 	ldw	r2,-16(fp)
  8046c4:	10c03185 	stb	r3,198(r2)
  d->_g114 = d->_g148 && d->_cg152;
  8046c8:	e0bffc17 	ldw	r2,-16(fp)
  8046cc:	10803683 	ldbu	r2,218(r2)
  8046d0:	10803fcc 	andi	r2,r2,255
  8046d4:	1080201c 	xori	r2,r2,128
  8046d8:	10bfe004 	addi	r2,r2,-128
  8046dc:	10000826 	beq	r2,zero,804700 <logic+0x4300>
  8046e0:	e0bffc17 	ldw	r2,-16(fp)
  8046e4:	108046c3 	ldbu	r2,283(r2)
  8046e8:	10803fcc 	andi	r2,r2,255
  8046ec:	1080201c 	xori	r2,r2,128
  8046f0:	10bfe004 	addi	r2,r2,-128
  8046f4:	10000226 	beq	r2,zero,804700 <logic+0x4300>
  8046f8:	00800044 	movi	r2,1
  8046fc:	00000106 	br	804704 <logic+0x4304>
  804700:	0005883a 	mov	r2,zero
  804704:	1007883a 	mov	r3,r2
  804708:	e0bffc17 	ldw	r2,-16(fp)
  80470c:	10c03105 	stb	r3,196(r2)
  if (d->_g114) {
  804710:	e0bffc17 	ldw	r2,-16(fp)
  804714:	10803103 	ldbu	r2,196(r2)
  804718:	10803fcc 	andi	r2,r2,255
  80471c:	1080201c 	xori	r2,r2,128
  804720:	10bfe004 	addi	r2,r2,-128
  804724:	10000326 	beq	r2,zero,804734 <logic+0x4334>
    d->_region5_URI_timer_t = 0;
  804728:	e0bffc17 	ldw	r2,-16(fp)
  80472c:	10001115 	stw	zero,68(r2)
  804730:	10001215 	stw	zero,72(r2)
  }
  d->_g123 = d->_g132 || d->_g114;
  804734:	e0bffc17 	ldw	r2,-16(fp)
  804738:	10803403 	ldbu	r2,208(r2)
  80473c:	10803fcc 	andi	r2,r2,255
  804740:	1080201c 	xori	r2,r2,128
  804744:	10bfe004 	addi	r2,r2,-128
  804748:	1000061e 	bne	r2,zero,804764 <logic+0x4364>
  80474c:	e0bffc17 	ldw	r2,-16(fp)
  804750:	10803103 	ldbu	r2,196(r2)
  804754:	10803fcc 	andi	r2,r2,255
  804758:	1080201c 	xori	r2,r2,128
  80475c:	10bfe004 	addi	r2,r2,-128
  804760:	10000226 	beq	r2,zero,80476c <logic+0x436c>
  804764:	00800044 	movi	r2,1
  804768:	00000106 	br	804770 <logic+0x4370>
  80476c:	0005883a 	mov	r2,zero
  804770:	1007883a 	mov	r3,r2
  804774:	e0bffc17 	ldw	r2,-16(fp)
  804778:	10c03285 	stb	r3,202(r2)
  if (d->_g123) {
  80477c:	e0bffc17 	ldw	r2,-16(fp)
  804780:	10803283 	ldbu	r2,202(r2)
  804784:	10803fcc 	andi	r2,r2,255
  804788:	1080201c 	xori	r2,r2,128
  80478c:	10bfe004 	addi	r2,r2,-128
  804790:	10000426 	beq	r2,zero,8047a4 <logic+0x43a4>
    d->_Pacemaker_local__Atrig10 = 0;
  804794:	e0bffc17 	ldw	r2,-16(fp)
  804798:	10001c85 	stb	zero,114(r2)
    d->_Pacemaker_local__Atrig11 = 0;
  80479c:	e0bffc17 	ldw	r2,-16(fp)
  8047a0:	10001cc5 	stb	zero,115(r2)
  }
  d->_cg134 = d->_region5_URI_timer_t < d->URI_Constraint;
  8047a4:	e0bffc17 	ldw	r2,-16(fp)
  8047a8:	14001117 	ldw	r16,68(r2)
  8047ac:	14401217 	ldw	r17,72(r2)
  8047b0:	e0bffc17 	ldw	r2,-16(fp)
  8047b4:	10800617 	ldw	r2,24(r2)
  8047b8:	1009883a 	mov	r4,r2
  8047bc:	08064e40 	call	8064e4 <__floatsidf>
  8047c0:	1009883a 	mov	r4,r2
  8047c4:	180b883a 	mov	r5,r3
  8047c8:	04800044 	movi	r18,1
  8047cc:	200d883a 	mov	r6,r4
  8047d0:	280f883a 	mov	r7,r5
  8047d4:	8009883a 	mov	r4,r16
  8047d8:	880b883a 	mov	r5,r17
  8047dc:	0805af40 	call	805af4 <__ledf2>
  8047e0:	10000116 	blt	r2,zero,8047e8 <logic+0x43e8>
  8047e4:	0025883a 	mov	r18,zero
  8047e8:	9007883a 	mov	r3,r18
  8047ec:	e0bffc17 	ldw	r2,-16(fp)
  8047f0:	10c044c5 	stb	r3,275(r2)
  d->_g106 = d->_g123 && d->_cg134;
  8047f4:	e0bffc17 	ldw	r2,-16(fp)
  8047f8:	10803283 	ldbu	r2,202(r2)
  8047fc:	10803fcc 	andi	r2,r2,255
  804800:	1080201c 	xori	r2,r2,128
  804804:	10bfe004 	addi	r2,r2,-128
  804808:	10000826 	beq	r2,zero,80482c <logic+0x442c>
  80480c:	e0bffc17 	ldw	r2,-16(fp)
  804810:	108044c3 	ldbu	r2,275(r2)
  804814:	10803fcc 	andi	r2,r2,255
  804818:	1080201c 	xori	r2,r2,128
  80481c:	10bfe004 	addi	r2,r2,-128
  804820:	10000226 	beq	r2,zero,80482c <logic+0x442c>
  804824:	00800044 	movi	r2,1
  804828:	00000106 	br	804830 <logic+0x4430>
  80482c:	0005883a 	mov	r2,zero
  804830:	1007883a 	mov	r3,r2
  804834:	e0bffc17 	ldw	r2,-16(fp)
  804838:	10c02f85 	stb	r3,190(r2)
  if (d->_g106) {
  80483c:	e0bffc17 	ldw	r2,-16(fp)
  804840:	10802f83 	ldbu	r2,190(r2)
  804844:	10803fcc 	andi	r2,r2,255
  804848:	1080201c 	xori	r2,r2,128
  80484c:	10bfe004 	addi	r2,r2,-128
  804850:	10003426 	beq	r2,zero,804924 <logic+0x4524>
    d->sleepT = (d->sleepT < (d->URI_Constraint - d->_region5_URI_timer_t)) ? d->sleepT : (d->URI_Constraint - d->_region5_URI_timer_t);
  804854:	e0bffc17 	ldw	r2,-16(fp)
  804858:	14001517 	ldw	r16,84(r2)
  80485c:	14401617 	ldw	r17,88(r2)
  804860:	e0bffc17 	ldw	r2,-16(fp)
  804864:	10800617 	ldw	r2,24(r2)
  804868:	1009883a 	mov	r4,r2
  80486c:	08064e40 	call	8064e4 <__floatsidf>
  804870:	1011883a 	mov	r8,r2
  804874:	1813883a 	mov	r9,r3
  804878:	e13ffc17 	ldw	r4,-16(fp)
  80487c:	20801117 	ldw	r2,68(r4)
  804880:	20c01217 	ldw	r3,72(r4)
  804884:	100d883a 	mov	r6,r2
  804888:	180f883a 	mov	r7,r3
  80488c:	4009883a 	mov	r4,r8
  804890:	480b883a 	mov	r5,r9
  804894:	0805be80 	call	805be8 <__subdf3>
  804898:	1009883a 	mov	r4,r2
  80489c:	180b883a 	mov	r5,r3
  8048a0:	2005883a 	mov	r2,r4
  8048a4:	2807883a 	mov	r3,r5
  8048a8:	100d883a 	mov	r6,r2
  8048ac:	180f883a 	mov	r7,r3
  8048b0:	8009883a 	mov	r4,r16
  8048b4:	880b883a 	mov	r5,r17
  8048b8:	0805af40 	call	805af4 <__ledf2>
  8048bc:	1000040e 	bge	r2,zero,8048d0 <logic+0x44d0>
  8048c0:	e13ffc17 	ldw	r4,-16(fp)
  8048c4:	20801517 	ldw	r2,84(r4)
  8048c8:	20c01617 	ldw	r3,88(r4)
  8048cc:	00001206 	br	804918 <logic+0x4518>
  8048d0:	e0bffc17 	ldw	r2,-16(fp)
  8048d4:	10800617 	ldw	r2,24(r2)
  8048d8:	1009883a 	mov	r4,r2
  8048dc:	08064e40 	call	8064e4 <__floatsidf>
  8048e0:	1011883a 	mov	r8,r2
  8048e4:	1813883a 	mov	r9,r3
  8048e8:	e13ffc17 	ldw	r4,-16(fp)
  8048ec:	20801117 	ldw	r2,68(r4)
  8048f0:	20c01217 	ldw	r3,72(r4)
  8048f4:	100d883a 	mov	r6,r2
  8048f8:	180f883a 	mov	r7,r3
  8048fc:	4009883a 	mov	r4,r8
  804900:	480b883a 	mov	r5,r9
  804904:	0805be80 	call	805be8 <__subdf3>
  804908:	1009883a 	mov	r4,r2
  80490c:	180b883a 	mov	r5,r3
  804910:	2005883a 	mov	r2,r4
  804914:	2807883a 	mov	r3,r5
  804918:	e13ffc17 	ldw	r4,-16(fp)
  80491c:	20801515 	stw	r2,84(r4)
  804920:	20c01615 	stw	r3,88(r4)
  }
  d->_cg135 = d->_Pacemaker_local__Atrig10 || d->_Pacemaker_local__Atrig11;
  804924:	e0bffc17 	ldw	r2,-16(fp)
  804928:	10801c83 	ldbu	r2,114(r2)
  80492c:	10803fcc 	andi	r2,r2,255
  804930:	1080201c 	xori	r2,r2,128
  804934:	10bfe004 	addi	r2,r2,-128
  804938:	1000061e 	bne	r2,zero,804954 <logic+0x4554>
  80493c:	e0bffc17 	ldw	r2,-16(fp)
  804940:	10801cc3 	ldbu	r2,115(r2)
  804944:	10803fcc 	andi	r2,r2,255
  804948:	1080201c 	xori	r2,r2,128
  80494c:	10bfe004 	addi	r2,r2,-128
  804950:	10000226 	beq	r2,zero,80495c <logic+0x455c>
  804954:	00800044 	movi	r2,1
  804958:	00000106 	br	804960 <logic+0x4560>
  80495c:	0005883a 	mov	r2,zero
  804960:	1007883a 	mov	r3,r2
  804964:	e0bffc17 	ldw	r2,-16(fp)
  804968:	10c04505 	stb	r3,276(r2)
  d->_g131 = d->_g106 && !d->_cg135 || d->_g137 && !d->_cg139;
  80496c:	e0bffc17 	ldw	r2,-16(fp)
  804970:	10802f83 	ldbu	r2,190(r2)
  804974:	10803fcc 	andi	r2,r2,255
  804978:	1080201c 	xori	r2,r2,128
  80497c:	10bfe004 	addi	r2,r2,-128
  804980:	10000626 	beq	r2,zero,80499c <logic+0x459c>
  804984:	e0bffc17 	ldw	r2,-16(fp)
  804988:	10804503 	ldbu	r2,276(r2)
  80498c:	10803fcc 	andi	r2,r2,255
  804990:	1080201c 	xori	r2,r2,128
  804994:	10bfe004 	addi	r2,r2,-128
  804998:	10000c26 	beq	r2,zero,8049cc <logic+0x45cc>
  80499c:	e0bffc17 	ldw	r2,-16(fp)
  8049a0:	10803483 	ldbu	r2,210(r2)
  8049a4:	10803fcc 	andi	r2,r2,255
  8049a8:	1080201c 	xori	r2,r2,128
  8049ac:	10bfe004 	addi	r2,r2,-128
  8049b0:	10000826 	beq	r2,zero,8049d4 <logic+0x45d4>
  8049b4:	e0bffc17 	ldw	r2,-16(fp)
  8049b8:	10804543 	ldbu	r2,277(r2)
  8049bc:	10803fcc 	andi	r2,r2,255
  8049c0:	1080201c 	xori	r2,r2,128
  8049c4:	10bfe004 	addi	r2,r2,-128
  8049c8:	1000021e 	bne	r2,zero,8049d4 <logic+0x45d4>
  8049cc:	00800044 	movi	r2,1
  8049d0:	00000106 	br	8049d8 <logic+0x45d8>
  8049d4:	0005883a 	mov	r2,zero
  8049d8:	1007883a 	mov	r3,r2
  8049dc:	e0bffc17 	ldw	r2,-16(fp)
  8049e0:	10c033c5 	stb	r3,207(r2)
  d->_g154 = d->_g123 && !d->_cg134;
  8049e4:	e0bffc17 	ldw	r2,-16(fp)
  8049e8:	10803283 	ldbu	r2,202(r2)
  8049ec:	10803fcc 	andi	r2,r2,255
  8049f0:	1080201c 	xori	r2,r2,128
  8049f4:	10bfe004 	addi	r2,r2,-128
  8049f8:	10000826 	beq	r2,zero,804a1c <logic+0x461c>
  8049fc:	e0bffc17 	ldw	r2,-16(fp)
  804a00:	108044c3 	ldbu	r2,275(r2)
  804a04:	10803fcc 	andi	r2,r2,255
  804a08:	1080201c 	xori	r2,r2,128
  804a0c:	10bfe004 	addi	r2,r2,-128
  804a10:	1000021e 	bne	r2,zero,804a1c <logic+0x461c>
  804a14:	00800044 	movi	r2,1
  804a18:	00000106 	br	804a20 <logic+0x4620>
  804a1c:	0005883a 	mov	r2,zero
  804a20:	1007883a 	mov	r3,r2
  804a24:	e0bffc17 	ldw	r2,-16(fp)
  804a28:	10c03805 	stb	r3,224(r2)
  d->_cg144 = d->_Pacemaker_local__Atrig10 || d->_Pacemaker_local__Atrig11;
  804a2c:	e0bffc17 	ldw	r2,-16(fp)
  804a30:	10801c83 	ldbu	r2,114(r2)
  804a34:	10803fcc 	andi	r2,r2,255
  804a38:	1080201c 	xori	r2,r2,128
  804a3c:	10bfe004 	addi	r2,r2,-128
  804a40:	1000061e 	bne	r2,zero,804a5c <logic+0x465c>
  804a44:	e0bffc17 	ldw	r2,-16(fp)
  804a48:	10801cc3 	ldbu	r2,115(r2)
  804a4c:	10803fcc 	andi	r2,r2,255
  804a50:	1080201c 	xori	r2,r2,128
  804a54:	10bfe004 	addi	r2,r2,-128
  804a58:	10000226 	beq	r2,zero,804a64 <logic+0x4664>
  804a5c:	00800044 	movi	r2,1
  804a60:	00000106 	br	804a68 <logic+0x4668>
  804a64:	0005883a 	mov	r2,zero
  804a68:	1007883a 	mov	r3,r2
  804a6c:	e0bffc17 	ldw	r2,-16(fp)
  804a70:	10c04605 	stb	r3,280(r2)
  d->_g152 = d->_g138 && !d->_cg141 || d->_g154 && !d->_cg144;
  804a74:	e0bffc17 	ldw	r2,-16(fp)
  804a78:	108034c3 	ldbu	r2,211(r2)
  804a7c:	10803fcc 	andi	r2,r2,255
  804a80:	1080201c 	xori	r2,r2,128
  804a84:	10bfe004 	addi	r2,r2,-128
  804a88:	10000626 	beq	r2,zero,804aa4 <logic+0x46a4>
  804a8c:	e0bffc17 	ldw	r2,-16(fp)
  804a90:	108045c3 	ldbu	r2,279(r2)
  804a94:	10803fcc 	andi	r2,r2,255
  804a98:	1080201c 	xori	r2,r2,128
  804a9c:	10bfe004 	addi	r2,r2,-128
  804aa0:	10000c26 	beq	r2,zero,804ad4 <logic+0x46d4>
  804aa4:	e0bffc17 	ldw	r2,-16(fp)
  804aa8:	10803803 	ldbu	r2,224(r2)
  804aac:	10803fcc 	andi	r2,r2,255
  804ab0:	1080201c 	xori	r2,r2,128
  804ab4:	10bfe004 	addi	r2,r2,-128
  804ab8:	10000826 	beq	r2,zero,804adc <logic+0x46dc>
  804abc:	e0bffc17 	ldw	r2,-16(fp)
  804ac0:	10804603 	ldbu	r2,280(r2)
  804ac4:	10803fcc 	andi	r2,r2,255
  804ac8:	1080201c 	xori	r2,r2,128
  804acc:	10bfe004 	addi	r2,r2,-128
  804ad0:	1000021e 	bne	r2,zero,804adc <logic+0x46dc>
  804ad4:	00800044 	movi	r2,1
  804ad8:	00000106 	br	804ae0 <logic+0x46e0>
  804adc:	0005883a 	mov	r2,zero
  804ae0:	1007883a 	mov	r3,r2
  804ae4:	e0bffc17 	ldw	r2,-16(fp)
  804ae8:	10c03785 	stb	r3,222(r2)
  d->_g153 = d->_g123 || d->_g150 && !d->_cg150;
  804aec:	e0bffc17 	ldw	r2,-16(fp)
  804af0:	10803283 	ldbu	r2,202(r2)
  804af4:	10803fcc 	andi	r2,r2,255
  804af8:	1080201c 	xori	r2,r2,128
  804afc:	10bfe004 	addi	r2,r2,-128
  804b00:	10000c1e 	bne	r2,zero,804b34 <logic+0x4734>
  804b04:	e0bffc17 	ldw	r2,-16(fp)
  804b08:	10803703 	ldbu	r2,220(r2)
  804b0c:	10803fcc 	andi	r2,r2,255
  804b10:	1080201c 	xori	r2,r2,128
  804b14:	10bfe004 	addi	r2,r2,-128
  804b18:	10000826 	beq	r2,zero,804b3c <logic+0x473c>
  804b1c:	e0bffc17 	ldw	r2,-16(fp)
  804b20:	10804643 	ldbu	r2,281(r2)
  804b24:	10803fcc 	andi	r2,r2,255
  804b28:	1080201c 	xori	r2,r2,128
  804b2c:	10bfe004 	addi	r2,r2,-128
  804b30:	1000021e 	bne	r2,zero,804b3c <logic+0x473c>
  804b34:	00800044 	movi	r2,1
  804b38:	00000106 	br	804b40 <logic+0x4740>
  804b3c:	0005883a 	mov	r2,zero
  804b40:	1007883a 	mov	r3,r2
  804b44:	e0bffc17 	ldw	r2,-16(fp)
  804b48:	10c037c5 	stb	r3,223(r2)
  d->_g132 = d->_GO || d->_g140_e1;
  804b4c:	e0bffc17 	ldw	r2,-16(fp)
  804b50:	10803903 	ldbu	r2,228(r2)
  804b54:	10803fcc 	andi	r2,r2,255
  804b58:	1080201c 	xori	r2,r2,128
  804b5c:	10bfe004 	addi	r2,r2,-128
  804b60:	1000061e 	bne	r2,zero,804b7c <logic+0x477c>
  804b64:	e0bffc17 	ldw	r2,-16(fp)
  804b68:	10804983 	ldbu	r2,294(r2)
  804b6c:	10803fcc 	andi	r2,r2,255
  804b70:	1080201c 	xori	r2,r2,128
  804b74:	10bfe004 	addi	r2,r2,-128
  804b78:	10000226 	beq	r2,zero,804b84 <logic+0x4784>
  804b7c:	00800044 	movi	r2,1
  804b80:	00000106 	br	804b88 <logic+0x4788>
  804b84:	0005883a 	mov	r2,zero
  804b88:	1007883a 	mov	r3,r2
  804b8c:	e0bffc17 	ldw	r2,-16(fp)
  804b90:	10c03405 	stb	r3,208(r2)
  d->_g135 = d->_GO || d->_g4;
  804b94:	e0bffc17 	ldw	r2,-16(fp)
  804b98:	10803903 	ldbu	r2,228(r2)
  804b9c:	10803fcc 	andi	r2,r2,255
  804ba0:	1080201c 	xori	r2,r2,128
  804ba4:	10bfe004 	addi	r2,r2,-128
  804ba8:	1000061e 	bne	r2,zero,804bc4 <logic+0x47c4>
  804bac:	e0bffc17 	ldw	r2,-16(fp)
  804bb0:	10801d03 	ldbu	r2,116(r2)
  804bb4:	10803fcc 	andi	r2,r2,255
  804bb8:	1080201c 	xori	r2,r2,128
  804bbc:	10bfe004 	addi	r2,r2,-128
  804bc0:	10000226 	beq	r2,zero,804bcc <logic+0x47cc>
  804bc4:	00800044 	movi	r2,1
  804bc8:	00000106 	br	804bd0 <logic+0x47d0>
  804bcc:	0005883a 	mov	r2,zero
  804bd0:	1007883a 	mov	r3,r2
  804bd4:	e0bffc17 	ldw	r2,-16(fp)
  804bd8:	10c03445 	stb	r3,209(r2)
  d->_g139 = d->_GO || d->_g170;
  804bdc:	e0bffc17 	ldw	r2,-16(fp)
  804be0:	10803903 	ldbu	r2,228(r2)
  804be4:	10803fcc 	andi	r2,r2,255
  804be8:	1080201c 	xori	r2,r2,128
  804bec:	10bfe004 	addi	r2,r2,-128
  804bf0:	1000061e 	bne	r2,zero,804c0c <logic+0x480c>
  804bf4:	e0bffc17 	ldw	r2,-16(fp)
  804bf8:	10803843 	ldbu	r2,225(r2)
  804bfc:	10803fcc 	andi	r2,r2,255
  804c00:	1080201c 	xori	r2,r2,128
  804c04:	10bfe004 	addi	r2,r2,-128
  804c08:	10000226 	beq	r2,zero,804c14 <logic+0x4814>
  804c0c:	00800044 	movi	r2,1
  804c10:	00000106 	br	804c18 <logic+0x4818>
  804c14:	0005883a 	mov	r2,zero
  804c18:	1007883a 	mov	r3,r2
  804c1c:	e0bffc17 	ldw	r2,-16(fp)
  804c20:	10c03505 	stb	r3,212(r2)
  d->_g141 = d->_GO || d->_g68;
  804c24:	e0bffc17 	ldw	r2,-16(fp)
  804c28:	10803903 	ldbu	r2,228(r2)
  804c2c:	10803fcc 	andi	r2,r2,255
  804c30:	1080201c 	xori	r2,r2,128
  804c34:	10bfe004 	addi	r2,r2,-128
  804c38:	1000061e 	bne	r2,zero,804c54 <logic+0x4854>
  804c3c:	e0bffc17 	ldw	r2,-16(fp)
  804c40:	108028c3 	ldbu	r2,163(r2)
  804c44:	10803fcc 	andi	r2,r2,255
  804c48:	1080201c 	xori	r2,r2,128
  804c4c:	10bfe004 	addi	r2,r2,-128
  804c50:	10000226 	beq	r2,zero,804c5c <logic+0x485c>
  804c54:	00800044 	movi	r2,1
  804c58:	00000106 	br	804c60 <logic+0x4860>
  804c5c:	0005883a 	mov	r2,zero
  804c60:	1007883a 	mov	r3,r2
  804c64:	e0bffc17 	ldw	r2,-16(fp)
  804c68:	10c03585 	stb	r3,214(r2)
  d->_g144 = d->_GO || d->_g100;
  804c6c:	e0bffc17 	ldw	r2,-16(fp)
  804c70:	10803903 	ldbu	r2,228(r2)
  804c74:	10803fcc 	andi	r2,r2,255
  804c78:	1080201c 	xori	r2,r2,128
  804c7c:	10bfe004 	addi	r2,r2,-128
  804c80:	1000061e 	bne	r2,zero,804c9c <logic+0x489c>
  804c84:	e0bffc17 	ldw	r2,-16(fp)
  804c88:	10802ec3 	ldbu	r2,187(r2)
  804c8c:	10803fcc 	andi	r2,r2,255
  804c90:	1080201c 	xori	r2,r2,128
  804c94:	10bfe004 	addi	r2,r2,-128
  804c98:	10000226 	beq	r2,zero,804ca4 <logic+0x48a4>
  804c9c:	00800044 	movi	r2,1
  804ca0:	00000106 	br	804ca8 <logic+0x48a8>
  804ca4:	0005883a 	mov	r2,zero
  804ca8:	1007883a 	mov	r3,r2
  804cac:	e0bffc17 	ldw	r2,-16(fp)
  804cb0:	10c03605 	stb	r3,216(r2)
  d->_g150 = d->_GO || d->_g182;
  804cb4:	e0bffc17 	ldw	r2,-16(fp)
  804cb8:	10803903 	ldbu	r2,228(r2)
  804cbc:	10803fcc 	andi	r2,r2,255
  804cc0:	1080201c 	xori	r2,r2,128
  804cc4:	10bfe004 	addi	r2,r2,-128
  804cc8:	1000061e 	bne	r2,zero,804ce4 <logic+0x48e4>
  804ccc:	e0bffc17 	ldw	r2,-16(fp)
  804cd0:	10803883 	ldbu	r2,226(r2)
  804cd4:	10803fcc 	andi	r2,r2,255
  804cd8:	1080201c 	xori	r2,r2,128
  804cdc:	10bfe004 	addi	r2,r2,-128
  804ce0:	10000226 	beq	r2,zero,804cec <logic+0x48ec>
  804ce4:	00800044 	movi	r2,1
  804ce8:	00000106 	br	804cf0 <logic+0x48f0>
  804cec:	0005883a 	mov	r2,zero
  804cf0:	1007883a 	mov	r3,r2
  804cf4:	e0bffc17 	ldw	r2,-16(fp)
  804cf8:	10c03705 	stb	r3,220(r2)
  d->_reg_VP = d->VP;
  804cfc:	e0bffc17 	ldw	r2,-16(fp)
  804d00:	10c017c3 	ldbu	r3,95(r2)
  804d04:	e0bffc17 	ldw	r2,-16(fp)
  804d08:	10c01905 	stb	r3,100(r2)
  if (d->_g195) {
  804d0c:	e0bffc17 	ldw	r2,-16(fp)
  804d10:	108038c3 	ldbu	r2,227(r2)
  804d14:	10803fcc 	andi	r2,r2,255
  804d18:	1080201c 	xori	r2,r2,128
  804d1c:	10bfe004 	addi	r2,r2,-128
  804d20:	10000426 	beq	r2,zero,804d34 <logic+0x4934>
    d->_reg_AP = d->AP;
  804d24:	e0bffc17 	ldw	r2,-16(fp)
  804d28:	10c01783 	ldbu	r3,94(r2)
  804d2c:	e0bffc17 	ldw	r2,-16(fp)
  804d30:	10c01985 	stb	r3,102(r2)
  }
}
  804d34:	0001883a 	nop
  804d38:	e6fffd04 	addi	sp,fp,-12
  804d3c:	dfc00417 	ldw	ra,16(sp)
  804d40:	df000317 	ldw	fp,12(sp)
  804d44:	dc800217 	ldw	r18,8(sp)
  804d48:	dc400117 	ldw	r17,4(sp)
  804d4c:	dc000017 	ldw	r16,0(sp)
  804d50:	dec00504 	addi	sp,sp,20
  804d54:	f800283a 	ret

00804d58 <reset>:

void reset(TickData* d) {
  804d58:	defffe04 	addi	sp,sp,-8
  804d5c:	df000115 	stw	fp,4(sp)
  804d60:	df000104 	addi	fp,sp,4
  804d64:	e13fff15 	stw	r4,-4(fp)
  d->_GO = 1;
  804d68:	e0bfff17 	ldw	r2,-4(fp)
  804d6c:	00c00044 	movi	r3,1
  804d70:	10c03905 	stb	r3,228(r2)
  d->_TERM = 0;
  804d74:	e0bfff17 	ldw	r2,-4(fp)
  804d78:	10004a05 	stb	zero,296(r2)
  d->AVI_Constraint = AVI_VALUE;
  804d7c:	e0bfff17 	ldw	r2,-4(fp)
  804d80:	00c04b04 	movi	r3,300
  804d84:	10c00115 	stw	r3,4(r2)
  d->PVARP_Constraint = PVARP_VALUE;
  804d88:	e0bfff17 	ldw	r2,-4(fp)
  804d8c:	00c00c84 	movi	r3,50
  804d90:	10c00215 	stw	r3,8(r2)
  d->VRP_Constraint = VRP_VALUE;
  804d94:	e0bfff17 	ldw	r2,-4(fp)
  804d98:	00c02584 	movi	r3,150
  804d9c:	10c00315 	stw	r3,12(r2)
  d->AEI_Constraint = AEI_VALUE;
  804da0:	e0bfff17 	ldw	r2,-4(fp)
  804da4:	00c0c804 	movi	r3,800
  804da8:	10c00415 	stw	r3,16(r2)
  d->LRI_Constraint = LRI_VALUE;
  804dac:	e0bfff17 	ldw	r2,-4(fp)
  804db0:	00c0ed84 	movi	r3,950
  804db4:	10c00515 	stw	r3,20(r2)
  d->URI_Constraint = URI_VALUE;
  804db8:	e0bfff17 	ldw	r2,-4(fp)
  804dbc:	00c0e104 	movi	r3,900
  804dc0:	10c00615 	stw	r3,24(r2)
  d->_region0_AVI_timer_t = 0;
  804dc4:	e0bfff17 	ldw	r2,-4(fp)
  804dc8:	10000715 	stw	zero,28(r2)
  804dcc:	10000815 	stw	zero,32(r2)
  d->_region1_PVARP_timer_t = 0;
  804dd0:	e0bfff17 	ldw	r2,-4(fp)
  804dd4:	10000915 	stw	zero,36(r2)
  804dd8:	10000a15 	stw	zero,40(r2)
  d->_region2_VRP_timer_t = 0;
  804ddc:	e0bfff17 	ldw	r2,-4(fp)
  804de0:	10000b15 	stw	zero,44(r2)
  804de4:	10000c15 	stw	zero,48(r2)
  d->_region3_AEI_timer_t = 0;
  804de8:	e0bfff17 	ldw	r2,-4(fp)
  804dec:	10000d15 	stw	zero,52(r2)
  804df0:	10000e15 	stw	zero,56(r2)
  d->_region4_LRI_timer_t = 0;
  804df4:	e0bfff17 	ldw	r2,-4(fp)
  804df8:	10000f15 	stw	zero,60(r2)
  804dfc:	10001015 	stw	zero,64(r2)
  d->_region5_URI_timer_t = 0;
  804e00:	e0bfff17 	ldw	r2,-4(fp)
  804e04:	10001115 	stw	zero,68(r2)
  804e08:	10001215 	stw	zero,72(r2)
  d->deltaT = 0.0;
  804e0c:	e0bfff17 	ldw	r2,-4(fp)
  804e10:	10001315 	stw	zero,76(r2)
  804e14:	10001415 	stw	zero,80(r2)
  d->sleepT = 0.0;
  804e18:	e0bfff17 	ldw	r2,-4(fp)
  804e1c:	10001515 	stw	zero,84(r2)
  804e20:	10001615 	stw	zero,88(r2)
  d->_reg_VP = 0;
  804e24:	e0bfff17 	ldw	r2,-4(fp)
  804e28:	10001905 	stb	zero,100(r2)
  d->_reg_AP = 0;
  804e2c:	e0bfff17 	ldw	r2,-4(fp)
  804e30:	10001985 	stb	zero,102(r2)
  d->_pg139 = 0;
  804e34:	e0bfff17 	ldw	r2,-4(fp)
  804e38:	10004a45 	stb	zero,297(r2)
  d->_pg64_e1 = 0;
  804e3c:	e0bfff17 	ldw	r2,-4(fp)
  804e40:	10004a85 	stb	zero,298(r2)
  d->_pg8 = 0;
  804e44:	e0bfff17 	ldw	r2,-4(fp)
  804e48:	10004ac5 	stb	zero,299(r2)
  d->_pg150 = 0;
  804e4c:	e0bfff17 	ldw	r2,-4(fp)
  804e50:	10004b05 	stb	zero,300(r2)
  d->_pg117 = 0;
  804e54:	e0bfff17 	ldw	r2,-4(fp)
  804e58:	10004b45 	stb	zero,301(r2)
  d->_pg152 = 0;
  804e5c:	e0bfff17 	ldw	r2,-4(fp)
  804e60:	10004b85 	stb	zero,302(r2)
  d->_pg131 = 0;
  804e64:	e0bfff17 	ldw	r2,-4(fp)
  804e68:	10004bc5 	stb	zero,303(r2)
  d->_pg153 = 0;
  804e6c:	e0bfff17 	ldw	r2,-4(fp)
  804e70:	10004c05 	stb	zero,304(r2)
  d->_pg132 = 0;
  804e74:	e0bfff17 	ldw	r2,-4(fp)
  804e78:	10004c45 	stb	zero,305(r2)
  d->_pg195 = 0;
  804e7c:	e0bfff17 	ldw	r2,-4(fp)
  804e80:	10004c85 	stb	zero,306(r2)
  d->_pg45_e2 = 0;
  804e84:	e0bfff17 	ldw	r2,-4(fp)
  804e88:	10004cc5 	stb	zero,307(r2)
  d->_pg9 = 0;
  804e8c:	e0bfff17 	ldw	r2,-4(fp)
  804e90:	10004d05 	stb	zero,308(r2)
  d->_pg10 = 0;
  804e94:	e0bfff17 	ldw	r2,-4(fp)
  804e98:	10004d45 	stb	zero,309(r2)
  d->_pg13 = 0;
  804e9c:	e0bfff17 	ldw	r2,-4(fp)
  804ea0:	10004d85 	stb	zero,310(r2)
  d->_pg48 = 0;
  804ea4:	e0bfff17 	ldw	r2,-4(fp)
  804ea8:	10004dc5 	stb	zero,311(r2)
  d->_pg50 = 0;
  804eac:	e0bfff17 	ldw	r2,-4(fp)
  804eb0:	10004e05 	stb	zero,312(r2)
  d->_pg49 = 0;
  804eb4:	e0bfff17 	ldw	r2,-4(fp)
  804eb8:	10004e45 	stb	zero,313(r2)
  d->_pg135 = 0;
  804ebc:	e0bfff17 	ldw	r2,-4(fp)
  804ec0:	10004e85 	stb	zero,314(r2)
  d->_pg77 = 0;
  804ec4:	e0bfff17 	ldw	r2,-4(fp)
  804ec8:	10004ec5 	stb	zero,315(r2)
  d->_pg55 = 0;
  804ecc:	e0bfff17 	ldw	r2,-4(fp)
  804ed0:	10004f05 	stb	zero,316(r2)
  d->_pg56 = 0;
  804ed4:	e0bfff17 	ldw	r2,-4(fp)
  804ed8:	10004f45 	stb	zero,317(r2)
  d->_pg85 = 0;
  804edc:	e0bfff17 	ldw	r2,-4(fp)
  804ee0:	10004f85 	stb	zero,318(r2)
  d->_pg141 = 0;
  804ee4:	e0bfff17 	ldw	r2,-4(fp)
  804ee8:	10004fc5 	stb	zero,319(r2)
  d->_pg96 = 0;
  804eec:	e0bfff17 	ldw	r2,-4(fp)
  804ef0:	10005005 	stb	zero,320(r2)
  d->_pg87 = 0;
  804ef4:	e0bfff17 	ldw	r2,-4(fp)
  804ef8:	10005045 	stb	zero,321(r2)
  d->_pg90 = 0;
  804efc:	e0bfff17 	ldw	r2,-4(fp)
  804f00:	10005085 	stb	zero,322(r2)
  d->_pg112 = 0;
  804f04:	e0bfff17 	ldw	r2,-4(fp)
  804f08:	100050c5 	stb	zero,323(r2)
  d->_pg105 = 0;
  804f0c:	e0bfff17 	ldw	r2,-4(fp)
  804f10:	10005105 	stb	zero,324(r2)
  d->_pg108 = 0;
  804f14:	e0bfff17 	ldw	r2,-4(fp)
  804f18:	10005145 	stb	zero,325(r2)
  d->_pg144 = 0;
  804f1c:	e0bfff17 	ldw	r2,-4(fp)
  804f20:	10005185 	stb	zero,326(r2)
  d->_pg122 = 0;
  804f24:	e0bfff17 	ldw	r2,-4(fp)
  804f28:	100051c5 	stb	zero,327(r2)
}
  804f2c:	0001883a 	nop
  804f30:	e037883a 	mov	sp,fp
  804f34:	df000017 	ldw	fp,0(sp)
  804f38:	dec00104 	addi	sp,sp,4
  804f3c:	f800283a 	ret

00804f40 <tick>:

void tick(TickData* d) {
  804f40:	defffd04 	addi	sp,sp,-12
  804f44:	dfc00215 	stw	ra,8(sp)
  804f48:	df000115 	stw	fp,4(sp)
  804f4c:	df000104 	addi	fp,sp,4
  804f50:	e13fff15 	stw	r4,-4(fp)
  logic(d);
  804f54:	e13fff17 	ldw	r4,-4(fp)
  804f58:	08004000 	call	800400 <logic>

  d->_pg139 = d->_g139;
  804f5c:	e0bfff17 	ldw	r2,-4(fp)
  804f60:	10c03503 	ldbu	r3,212(r2)
  804f64:	e0bfff17 	ldw	r2,-4(fp)
  804f68:	10c04a45 	stb	r3,297(r2)
  d->_pg64_e1 = d->_g64_e1;
  804f6c:	e0bfff17 	ldw	r2,-4(fp)
  804f70:	10c04803 	ldbu	r3,288(r2)
  804f74:	e0bfff17 	ldw	r2,-4(fp)
  804f78:	10c04a85 	stb	r3,298(r2)
  d->_pg8 = d->_g8;
  804f7c:	e0bfff17 	ldw	r2,-4(fp)
  804f80:	10c01dc3 	ldbu	r3,119(r2)
  804f84:	e0bfff17 	ldw	r2,-4(fp)
  804f88:	10c04ac5 	stb	r3,299(r2)
  d->_pg150 = d->_g150;
  804f8c:	e0bfff17 	ldw	r2,-4(fp)
  804f90:	10c03703 	ldbu	r3,220(r2)
  804f94:	e0bfff17 	ldw	r2,-4(fp)
  804f98:	10c04b05 	stb	r3,300(r2)
  d->_pg117 = d->_g117;
  804f9c:	e0bfff17 	ldw	r2,-4(fp)
  804fa0:	10c03183 	ldbu	r3,198(r2)
  804fa4:	e0bfff17 	ldw	r2,-4(fp)
  804fa8:	10c04b45 	stb	r3,301(r2)
  d->_pg152 = d->_g152;
  804fac:	e0bfff17 	ldw	r2,-4(fp)
  804fb0:	10c03783 	ldbu	r3,222(r2)
  804fb4:	e0bfff17 	ldw	r2,-4(fp)
  804fb8:	10c04b85 	stb	r3,302(r2)
  d->_pg131 = d->_g131;
  804fbc:	e0bfff17 	ldw	r2,-4(fp)
  804fc0:	10c033c3 	ldbu	r3,207(r2)
  804fc4:	e0bfff17 	ldw	r2,-4(fp)
  804fc8:	10c04bc5 	stb	r3,303(r2)
  d->_pg153 = d->_g153;
  804fcc:	e0bfff17 	ldw	r2,-4(fp)
  804fd0:	10c037c3 	ldbu	r3,223(r2)
  804fd4:	e0bfff17 	ldw	r2,-4(fp)
  804fd8:	10c04c05 	stb	r3,304(r2)
  d->_pg132 = d->_g132;
  804fdc:	e0bfff17 	ldw	r2,-4(fp)
  804fe0:	10c03403 	ldbu	r3,208(r2)
  804fe4:	e0bfff17 	ldw	r2,-4(fp)
  804fe8:	10c04c45 	stb	r3,305(r2)
  d->_pg195 = d->_g195;
  804fec:	e0bfff17 	ldw	r2,-4(fp)
  804ff0:	10c038c3 	ldbu	r3,227(r2)
  804ff4:	e0bfff17 	ldw	r2,-4(fp)
  804ff8:	10c04c85 	stb	r3,306(r2)
  d->_pg45_e2 = d->_g45_e2;
  804ffc:	e0bfff17 	ldw	r2,-4(fp)
  805000:	10c047c3 	ldbu	r3,287(r2)
  805004:	e0bfff17 	ldw	r2,-4(fp)
  805008:	10c04cc5 	stb	r3,307(r2)
  d->_pg9 = d->_g9;
  80500c:	e0bfff17 	ldw	r2,-4(fp)
  805010:	10c01e03 	ldbu	r3,120(r2)
  805014:	e0bfff17 	ldw	r2,-4(fp)
  805018:	10c04d05 	stb	r3,308(r2)
  d->_pg10 = d->_g10;
  80501c:	e0bfff17 	ldw	r2,-4(fp)
  805020:	10c01e43 	ldbu	r3,121(r2)
  805024:	e0bfff17 	ldw	r2,-4(fp)
  805028:	10c04d45 	stb	r3,309(r2)
  d->_pg13 = d->_g13;
  80502c:	e0bfff17 	ldw	r2,-4(fp)
  805030:	10c01f03 	ldbu	r3,124(r2)
  805034:	e0bfff17 	ldw	r2,-4(fp)
  805038:	10c04d85 	stb	r3,310(r2)
  d->_pg48 = d->_g48;
  80503c:	e0bfff17 	ldw	r2,-4(fp)
  805040:	10c02543 	ldbu	r3,149(r2)
  805044:	e0bfff17 	ldw	r2,-4(fp)
  805048:	10c04dc5 	stb	r3,311(r2)
  d->_pg50 = d->_g50;
  80504c:	e0bfff17 	ldw	r2,-4(fp)
  805050:	10c025c3 	ldbu	r3,151(r2)
  805054:	e0bfff17 	ldw	r2,-4(fp)
  805058:	10c04e05 	stb	r3,312(r2)
  d->_pg49 = d->_g49;
  80505c:	e0bfff17 	ldw	r2,-4(fp)
  805060:	10c02583 	ldbu	r3,150(r2)
  805064:	e0bfff17 	ldw	r2,-4(fp)
  805068:	10c04e45 	stb	r3,313(r2)
  d->_pg135 = d->_g135;
  80506c:	e0bfff17 	ldw	r2,-4(fp)
  805070:	10c03443 	ldbu	r3,209(r2)
  805074:	e0bfff17 	ldw	r2,-4(fp)
  805078:	10c04e85 	stb	r3,314(r2)
  d->_pg77 = d->_g77;
  80507c:	e0bfff17 	ldw	r2,-4(fp)
  805080:	10c02a83 	ldbu	r3,170(r2)
  805084:	e0bfff17 	ldw	r2,-4(fp)
  805088:	10c04ec5 	stb	r3,315(r2)
  d->_pg55 = d->_g55;
  80508c:	e0bfff17 	ldw	r2,-4(fp)
  805090:	10c02643 	ldbu	r3,153(r2)
  805094:	e0bfff17 	ldw	r2,-4(fp)
  805098:	10c04f05 	stb	r3,316(r2)
  d->_pg56 = d->_g56;
  80509c:	e0bfff17 	ldw	r2,-4(fp)
  8050a0:	10c02683 	ldbu	r3,154(r2)
  8050a4:	e0bfff17 	ldw	r2,-4(fp)
  8050a8:	10c04f45 	stb	r3,317(r2)
  d->_pg85 = d->_g85;
  8050ac:	e0bfff17 	ldw	r2,-4(fp)
  8050b0:	10c02b83 	ldbu	r3,174(r2)
  8050b4:	e0bfff17 	ldw	r2,-4(fp)
  8050b8:	10c04f85 	stb	r3,318(r2)
  d->_pg141 = d->_g141;
  8050bc:	e0bfff17 	ldw	r2,-4(fp)
  8050c0:	10c03583 	ldbu	r3,214(r2)
  8050c4:	e0bfff17 	ldw	r2,-4(fp)
  8050c8:	10c04fc5 	stb	r3,319(r2)
  d->_pg96 = d->_g96;
  8050cc:	e0bfff17 	ldw	r2,-4(fp)
  8050d0:	10c02dc3 	ldbu	r3,183(r2)
  8050d4:	e0bfff17 	ldw	r2,-4(fp)
  8050d8:	10c05005 	stb	r3,320(r2)
  d->_pg87 = d->_g87;
  8050dc:	e0bfff17 	ldw	r2,-4(fp)
  8050e0:	10c02c03 	ldbu	r3,176(r2)
  8050e4:	e0bfff17 	ldw	r2,-4(fp)
  8050e8:	10c05045 	stb	r3,321(r2)
  d->_pg90 = d->_g90;
  8050ec:	e0bfff17 	ldw	r2,-4(fp)
  8050f0:	10c02cc3 	ldbu	r3,179(r2)
  8050f4:	e0bfff17 	ldw	r2,-4(fp)
  8050f8:	10c05085 	stb	r3,322(r2)
  d->_pg112 = d->_g112;
  8050fc:	e0bfff17 	ldw	r2,-4(fp)
  805100:	10c03083 	ldbu	r3,194(r2)
  805104:	e0bfff17 	ldw	r2,-4(fp)
  805108:	10c050c5 	stb	r3,323(r2)
  d->_pg105 = d->_g105;
  80510c:	e0bfff17 	ldw	r2,-4(fp)
  805110:	10c02f43 	ldbu	r3,189(r2)
  805114:	e0bfff17 	ldw	r2,-4(fp)
  805118:	10c05105 	stb	r3,324(r2)
  d->_pg108 = d->_g108;
  80511c:	e0bfff17 	ldw	r2,-4(fp)
  805120:	10c02fc3 	ldbu	r3,191(r2)
  805124:	e0bfff17 	ldw	r2,-4(fp)
  805128:	10c05145 	stb	r3,325(r2)
  d->_pg144 = d->_g144;
  80512c:	e0bfff17 	ldw	r2,-4(fp)
  805130:	10c03603 	ldbu	r3,216(r2)
  805134:	e0bfff17 	ldw	r2,-4(fp)
  805138:	10c05185 	stb	r3,326(r2)
  d->_pg122 = d->_g122;
  80513c:	e0bfff17 	ldw	r2,-4(fp)
  805140:	10c03243 	ldbu	r3,201(r2)
  805144:	e0bfff17 	ldw	r2,-4(fp)
  805148:	10c051c5 	stb	r3,327(r2)
  d->_GO = 0;
  80514c:	e0bfff17 	ldw	r2,-4(fp)
  805150:	10003905 	stb	zero,228(r2)
}
  805154:	0001883a 	nop
  805158:	e037883a 	mov	sp,fp
  80515c:	dfc00117 	ldw	ra,4(sp)
  805160:	df000017 	ldw	fp,0(sp)
  805164:	dec00204 	addi	sp,sp,8
  805168:	f800283a 	ret

0080516c <__adddf3>:
  80516c:	02c00434 	movhi	r11,16
  805170:	5affffc4 	addi	r11,r11,-1
  805174:	2806d7fa 	srli	r3,r5,31
  805178:	2ad4703a 	and	r10,r5,r11
  80517c:	3ad2703a 	and	r9,r7,r11
  805180:	3804d53a 	srli	r2,r7,20
  805184:	3018d77a 	srli	r12,r6,29
  805188:	280ad53a 	srli	r5,r5,20
  80518c:	501490fa 	slli	r10,r10,3
  805190:	2010d77a 	srli	r8,r4,29
  805194:	481290fa 	slli	r9,r9,3
  805198:	380ed7fa 	srli	r7,r7,31
  80519c:	defffb04 	addi	sp,sp,-20
  8051a0:	dc800215 	stw	r18,8(sp)
  8051a4:	dc400115 	stw	r17,4(sp)
  8051a8:	dc000015 	stw	r16,0(sp)
  8051ac:	dfc00415 	stw	ra,16(sp)
  8051b0:	dcc00315 	stw	r19,12(sp)
  8051b4:	1c803fcc 	andi	r18,r3,255
  8051b8:	2c01ffcc 	andi	r16,r5,2047
  8051bc:	5210b03a 	or	r8,r10,r8
  8051c0:	202290fa 	slli	r17,r4,3
  8051c4:	1081ffcc 	andi	r2,r2,2047
  8051c8:	4b12b03a 	or	r9,r9,r12
  8051cc:	300c90fa 	slli	r6,r6,3
  8051d0:	91c07526 	beq	r18,r7,8053a8 <__adddf3+0x23c>
  8051d4:	8087c83a 	sub	r3,r16,r2
  8051d8:	00c0ab0e 	bge	zero,r3,805488 <__adddf3+0x31c>
  8051dc:	10002a1e 	bne	r2,zero,805288 <__adddf3+0x11c>
  8051e0:	4984b03a 	or	r2,r9,r6
  8051e4:	1000961e 	bne	r2,zero,805440 <__adddf3+0x2d4>
  8051e8:	888001cc 	andi	r2,r17,7
  8051ec:	10000726 	beq	r2,zero,80520c <__adddf3+0xa0>
  8051f0:	888003cc 	andi	r2,r17,15
  8051f4:	00c00104 	movi	r3,4
  8051f8:	10c00426 	beq	r2,r3,80520c <__adddf3+0xa0>
  8051fc:	88c7883a 	add	r3,r17,r3
  805200:	1c63803a 	cmpltu	r17,r3,r17
  805204:	4451883a 	add	r8,r8,r17
  805208:	1823883a 	mov	r17,r3
  80520c:	4080202c 	andhi	r2,r8,128
  805210:	10005926 	beq	r2,zero,805378 <__adddf3+0x20c>
  805214:	84000044 	addi	r16,r16,1
  805218:	0081ffc4 	movi	r2,2047
  80521c:	8080ba26 	beq	r16,r2,805508 <__adddf3+0x39c>
  805220:	00bfe034 	movhi	r2,65408
  805224:	10bfffc4 	addi	r2,r2,-1
  805228:	4090703a 	and	r8,r8,r2
  80522c:	4004977a 	slli	r2,r8,29
  805230:	4010927a 	slli	r8,r8,9
  805234:	8822d0fa 	srli	r17,r17,3
  805238:	8401ffcc 	andi	r16,r16,2047
  80523c:	4010d33a 	srli	r8,r8,12
  805240:	9007883a 	mov	r3,r18
  805244:	1444b03a 	or	r2,r2,r17
  805248:	8401ffcc 	andi	r16,r16,2047
  80524c:	8020953a 	slli	r16,r16,20
  805250:	18c03fcc 	andi	r3,r3,255
  805254:	01000434 	movhi	r4,16
  805258:	213fffc4 	addi	r4,r4,-1
  80525c:	180697fa 	slli	r3,r3,31
  805260:	4110703a 	and	r8,r8,r4
  805264:	4410b03a 	or	r8,r8,r16
  805268:	40c6b03a 	or	r3,r8,r3
  80526c:	dfc00417 	ldw	ra,16(sp)
  805270:	dcc00317 	ldw	r19,12(sp)
  805274:	dc800217 	ldw	r18,8(sp)
  805278:	dc400117 	ldw	r17,4(sp)
  80527c:	dc000017 	ldw	r16,0(sp)
  805280:	dec00504 	addi	sp,sp,20
  805284:	f800283a 	ret
  805288:	0081ffc4 	movi	r2,2047
  80528c:	80bfd626 	beq	r16,r2,8051e8 <__alt_mem_onchip_mem+0xff7fd1e8>
  805290:	4a402034 	orhi	r9,r9,128
  805294:	00800e04 	movi	r2,56
  805298:	10c09f16 	blt	r2,r3,805518 <__adddf3+0x3ac>
  80529c:	008007c4 	movi	r2,31
  8052a0:	10c0c216 	blt	r2,r3,8055ac <__adddf3+0x440>
  8052a4:	00800804 	movi	r2,32
  8052a8:	10c5c83a 	sub	r2,r2,r3
  8052ac:	488a983a 	sll	r5,r9,r2
  8052b0:	30c8d83a 	srl	r4,r6,r3
  8052b4:	3084983a 	sll	r2,r6,r2
  8052b8:	48c6d83a 	srl	r3,r9,r3
  8052bc:	290cb03a 	or	r6,r5,r4
  8052c0:	1004c03a 	cmpne	r2,r2,zero
  8052c4:	308cb03a 	or	r6,r6,r2
  8052c8:	898dc83a 	sub	r6,r17,r6
  8052cc:	89a3803a 	cmpltu	r17,r17,r6
  8052d0:	40d1c83a 	sub	r8,r8,r3
  8052d4:	4451c83a 	sub	r8,r8,r17
  8052d8:	3023883a 	mov	r17,r6
  8052dc:	4080202c 	andhi	r2,r8,128
  8052e0:	10002326 	beq	r2,zero,805370 <__adddf3+0x204>
  8052e4:	04c02034 	movhi	r19,128
  8052e8:	9cffffc4 	addi	r19,r19,-1
  8052ec:	44e6703a 	and	r19,r8,r19
  8052f0:	98007626 	beq	r19,zero,8054cc <__adddf3+0x360>
  8052f4:	9809883a 	mov	r4,r19
  8052f8:	08065c00 	call	8065c0 <__clzsi2>
  8052fc:	10fffe04 	addi	r3,r2,-8
  805300:	010007c4 	movi	r4,31
  805304:	20c07716 	blt	r4,r3,8054e4 <__adddf3+0x378>
  805308:	00800804 	movi	r2,32
  80530c:	10c5c83a 	sub	r2,r2,r3
  805310:	8884d83a 	srl	r2,r17,r2
  805314:	98d0983a 	sll	r8,r19,r3
  805318:	88e2983a 	sll	r17,r17,r3
  80531c:	1204b03a 	or	r2,r2,r8
  805320:	1c007416 	blt	r3,r16,8054f4 <__adddf3+0x388>
  805324:	1c21c83a 	sub	r16,r3,r16
  805328:	82000044 	addi	r8,r16,1
  80532c:	00c007c4 	movi	r3,31
  805330:	1a009116 	blt	r3,r8,805578 <__adddf3+0x40c>
  805334:	00c00804 	movi	r3,32
  805338:	1a07c83a 	sub	r3,r3,r8
  80533c:	8a08d83a 	srl	r4,r17,r8
  805340:	88e2983a 	sll	r17,r17,r3
  805344:	10c6983a 	sll	r3,r2,r3
  805348:	1210d83a 	srl	r8,r2,r8
  80534c:	8804c03a 	cmpne	r2,r17,zero
  805350:	1906b03a 	or	r3,r3,r4
  805354:	18a2b03a 	or	r17,r3,r2
  805358:	0021883a 	mov	r16,zero
  80535c:	003fa206 	br	8051e8 <__alt_mem_onchip_mem+0xff7fd1e8>
  805360:	1890b03a 	or	r8,r3,r2
  805364:	40017d26 	beq	r8,zero,80595c <__adddf3+0x7f0>
  805368:	1011883a 	mov	r8,r2
  80536c:	1823883a 	mov	r17,r3
  805370:	888001cc 	andi	r2,r17,7
  805374:	103f9e1e 	bne	r2,zero,8051f0 <__alt_mem_onchip_mem+0xff7fd1f0>
  805378:	4004977a 	slli	r2,r8,29
  80537c:	8822d0fa 	srli	r17,r17,3
  805380:	4010d0fa 	srli	r8,r8,3
  805384:	9007883a 	mov	r3,r18
  805388:	1444b03a 	or	r2,r2,r17
  80538c:	0101ffc4 	movi	r4,2047
  805390:	81002426 	beq	r16,r4,805424 <__adddf3+0x2b8>
  805394:	8120703a 	and	r16,r16,r4
  805398:	01000434 	movhi	r4,16
  80539c:	213fffc4 	addi	r4,r4,-1
  8053a0:	4110703a 	and	r8,r8,r4
  8053a4:	003fa806 	br	805248 <__alt_mem_onchip_mem+0xff7fd248>
  8053a8:	8089c83a 	sub	r4,r16,r2
  8053ac:	01005e0e 	bge	zero,r4,805528 <__adddf3+0x3bc>
  8053b0:	10002b26 	beq	r2,zero,805460 <__adddf3+0x2f4>
  8053b4:	0081ffc4 	movi	r2,2047
  8053b8:	80bf8b26 	beq	r16,r2,8051e8 <__alt_mem_onchip_mem+0xff7fd1e8>
  8053bc:	4a402034 	orhi	r9,r9,128
  8053c0:	00800e04 	movi	r2,56
  8053c4:	1100a40e 	bge	r2,r4,805658 <__adddf3+0x4ec>
  8053c8:	498cb03a 	or	r6,r9,r6
  8053cc:	300ac03a 	cmpne	r5,r6,zero
  8053d0:	0013883a 	mov	r9,zero
  8053d4:	2c4b883a 	add	r5,r5,r17
  8053d8:	2c63803a 	cmpltu	r17,r5,r17
  8053dc:	4a11883a 	add	r8,r9,r8
  8053e0:	8a11883a 	add	r8,r17,r8
  8053e4:	2823883a 	mov	r17,r5
  8053e8:	4080202c 	andhi	r2,r8,128
  8053ec:	103fe026 	beq	r2,zero,805370 <__alt_mem_onchip_mem+0xff7fd370>
  8053f0:	84000044 	addi	r16,r16,1
  8053f4:	0081ffc4 	movi	r2,2047
  8053f8:	8080d226 	beq	r16,r2,805744 <__adddf3+0x5d8>
  8053fc:	00bfe034 	movhi	r2,65408
  805400:	10bfffc4 	addi	r2,r2,-1
  805404:	4090703a 	and	r8,r8,r2
  805408:	880ad07a 	srli	r5,r17,1
  80540c:	400897fa 	slli	r4,r8,31
  805410:	88c0004c 	andi	r3,r17,1
  805414:	28e2b03a 	or	r17,r5,r3
  805418:	4010d07a 	srli	r8,r8,1
  80541c:	2462b03a 	or	r17,r4,r17
  805420:	003f7106 	br	8051e8 <__alt_mem_onchip_mem+0xff7fd1e8>
  805424:	4088b03a 	or	r4,r8,r2
  805428:	20014526 	beq	r4,zero,805940 <__adddf3+0x7d4>
  80542c:	01000434 	movhi	r4,16
  805430:	42000234 	orhi	r8,r8,8
  805434:	213fffc4 	addi	r4,r4,-1
  805438:	4110703a 	and	r8,r8,r4
  80543c:	003f8206 	br	805248 <__alt_mem_onchip_mem+0xff7fd248>
  805440:	18ffffc4 	addi	r3,r3,-1
  805444:	1800491e 	bne	r3,zero,80556c <__adddf3+0x400>
  805448:	898bc83a 	sub	r5,r17,r6
  80544c:	8963803a 	cmpltu	r17,r17,r5
  805450:	4251c83a 	sub	r8,r8,r9
  805454:	4451c83a 	sub	r8,r8,r17
  805458:	2823883a 	mov	r17,r5
  80545c:	003f9f06 	br	8052dc <__alt_mem_onchip_mem+0xff7fd2dc>
  805460:	4984b03a 	or	r2,r9,r6
  805464:	103f6026 	beq	r2,zero,8051e8 <__alt_mem_onchip_mem+0xff7fd1e8>
  805468:	213fffc4 	addi	r4,r4,-1
  80546c:	2000931e 	bne	r4,zero,8056bc <__adddf3+0x550>
  805470:	898d883a 	add	r6,r17,r6
  805474:	3463803a 	cmpltu	r17,r6,r17
  805478:	4251883a 	add	r8,r8,r9
  80547c:	8a11883a 	add	r8,r17,r8
  805480:	3023883a 	mov	r17,r6
  805484:	003fd806 	br	8053e8 <__alt_mem_onchip_mem+0xff7fd3e8>
  805488:	1800541e 	bne	r3,zero,8055dc <__adddf3+0x470>
  80548c:	80800044 	addi	r2,r16,1
  805490:	1081ffcc 	andi	r2,r2,2047
  805494:	00c00044 	movi	r3,1
  805498:	1880a00e 	bge	r3,r2,80571c <__adddf3+0x5b0>
  80549c:	8989c83a 	sub	r4,r17,r6
  8054a0:	8905803a 	cmpltu	r2,r17,r4
  8054a4:	4267c83a 	sub	r19,r8,r9
  8054a8:	98a7c83a 	sub	r19,r19,r2
  8054ac:	9880202c 	andhi	r2,r19,128
  8054b0:	10006326 	beq	r2,zero,805640 <__adddf3+0x4d4>
  8054b4:	3463c83a 	sub	r17,r6,r17
  8054b8:	4a07c83a 	sub	r3,r9,r8
  8054bc:	344d803a 	cmpltu	r6,r6,r17
  8054c0:	19a7c83a 	sub	r19,r3,r6
  8054c4:	3825883a 	mov	r18,r7
  8054c8:	983f8a1e 	bne	r19,zero,8052f4 <__alt_mem_onchip_mem+0xff7fd2f4>
  8054cc:	8809883a 	mov	r4,r17
  8054d0:	08065c00 	call	8065c0 <__clzsi2>
  8054d4:	10800804 	addi	r2,r2,32
  8054d8:	10fffe04 	addi	r3,r2,-8
  8054dc:	010007c4 	movi	r4,31
  8054e0:	20ff890e 	bge	r4,r3,805308 <__alt_mem_onchip_mem+0xff7fd308>
  8054e4:	10bff604 	addi	r2,r2,-40
  8054e8:	8884983a 	sll	r2,r17,r2
  8054ec:	0023883a 	mov	r17,zero
  8054f0:	1c3f8c0e 	bge	r3,r16,805324 <__alt_mem_onchip_mem+0xff7fd324>
  8054f4:	023fe034 	movhi	r8,65408
  8054f8:	423fffc4 	addi	r8,r8,-1
  8054fc:	80e1c83a 	sub	r16,r16,r3
  805500:	1210703a 	and	r8,r2,r8
  805504:	003f3806 	br	8051e8 <__alt_mem_onchip_mem+0xff7fd1e8>
  805508:	9007883a 	mov	r3,r18
  80550c:	0011883a 	mov	r8,zero
  805510:	0005883a 	mov	r2,zero
  805514:	003f4c06 	br	805248 <__alt_mem_onchip_mem+0xff7fd248>
  805518:	498cb03a 	or	r6,r9,r6
  80551c:	300cc03a 	cmpne	r6,r6,zero
  805520:	0007883a 	mov	r3,zero
  805524:	003f6806 	br	8052c8 <__alt_mem_onchip_mem+0xff7fd2c8>
  805528:	20009c1e 	bne	r4,zero,80579c <__adddf3+0x630>
  80552c:	80800044 	addi	r2,r16,1
  805530:	1141ffcc 	andi	r5,r2,2047
  805534:	01000044 	movi	r4,1
  805538:	2140670e 	bge	r4,r5,8056d8 <__adddf3+0x56c>
  80553c:	0101ffc4 	movi	r4,2047
  805540:	11007f26 	beq	r2,r4,805740 <__adddf3+0x5d4>
  805544:	898d883a 	add	r6,r17,r6
  805548:	4247883a 	add	r3,r8,r9
  80554c:	3451803a 	cmpltu	r8,r6,r17
  805550:	40d1883a 	add	r8,r8,r3
  805554:	402297fa 	slli	r17,r8,31
  805558:	300cd07a 	srli	r6,r6,1
  80555c:	4010d07a 	srli	r8,r8,1
  805560:	1021883a 	mov	r16,r2
  805564:	89a2b03a 	or	r17,r17,r6
  805568:	003f1f06 	br	8051e8 <__alt_mem_onchip_mem+0xff7fd1e8>
  80556c:	0081ffc4 	movi	r2,2047
  805570:	80bf481e 	bne	r16,r2,805294 <__alt_mem_onchip_mem+0xff7fd294>
  805574:	003f1c06 	br	8051e8 <__alt_mem_onchip_mem+0xff7fd1e8>
  805578:	843ff844 	addi	r16,r16,-31
  80557c:	01000804 	movi	r4,32
  805580:	1406d83a 	srl	r3,r2,r16
  805584:	41005026 	beq	r8,r4,8056c8 <__adddf3+0x55c>
  805588:	01001004 	movi	r4,64
  80558c:	2211c83a 	sub	r8,r4,r8
  805590:	1204983a 	sll	r2,r2,r8
  805594:	88a2b03a 	or	r17,r17,r2
  805598:	8822c03a 	cmpne	r17,r17,zero
  80559c:	1c62b03a 	or	r17,r3,r17
  8055a0:	0011883a 	mov	r8,zero
  8055a4:	0021883a 	mov	r16,zero
  8055a8:	003f7106 	br	805370 <__alt_mem_onchip_mem+0xff7fd370>
  8055ac:	193ff804 	addi	r4,r3,-32
  8055b0:	00800804 	movi	r2,32
  8055b4:	4908d83a 	srl	r4,r9,r4
  8055b8:	18804526 	beq	r3,r2,8056d0 <__adddf3+0x564>
  8055bc:	00801004 	movi	r2,64
  8055c0:	10c5c83a 	sub	r2,r2,r3
  8055c4:	4886983a 	sll	r3,r9,r2
  8055c8:	198cb03a 	or	r6,r3,r6
  8055cc:	300cc03a 	cmpne	r6,r6,zero
  8055d0:	218cb03a 	or	r6,r4,r6
  8055d4:	0007883a 	mov	r3,zero
  8055d8:	003f3b06 	br	8052c8 <__alt_mem_onchip_mem+0xff7fd2c8>
  8055dc:	80002a26 	beq	r16,zero,805688 <__adddf3+0x51c>
  8055e0:	0101ffc4 	movi	r4,2047
  8055e4:	11006826 	beq	r2,r4,805788 <__adddf3+0x61c>
  8055e8:	00c7c83a 	sub	r3,zero,r3
  8055ec:	42002034 	orhi	r8,r8,128
  8055f0:	01000e04 	movi	r4,56
  8055f4:	20c07c16 	blt	r4,r3,8057e8 <__adddf3+0x67c>
  8055f8:	010007c4 	movi	r4,31
  8055fc:	20c0da16 	blt	r4,r3,805968 <__adddf3+0x7fc>
  805600:	01000804 	movi	r4,32
  805604:	20c9c83a 	sub	r4,r4,r3
  805608:	4114983a 	sll	r10,r8,r4
  80560c:	88cad83a 	srl	r5,r17,r3
  805610:	8908983a 	sll	r4,r17,r4
  805614:	40c6d83a 	srl	r3,r8,r3
  805618:	5162b03a 	or	r17,r10,r5
  80561c:	2008c03a 	cmpne	r4,r4,zero
  805620:	8922b03a 	or	r17,r17,r4
  805624:	3463c83a 	sub	r17,r6,r17
  805628:	48c7c83a 	sub	r3,r9,r3
  80562c:	344d803a 	cmpltu	r6,r6,r17
  805630:	1991c83a 	sub	r8,r3,r6
  805634:	1021883a 	mov	r16,r2
  805638:	3825883a 	mov	r18,r7
  80563c:	003f2706 	br	8052dc <__alt_mem_onchip_mem+0xff7fd2dc>
  805640:	24d0b03a 	or	r8,r4,r19
  805644:	40001b1e 	bne	r8,zero,8056b4 <__adddf3+0x548>
  805648:	0005883a 	mov	r2,zero
  80564c:	0007883a 	mov	r3,zero
  805650:	0021883a 	mov	r16,zero
  805654:	003f4d06 	br	80538c <__alt_mem_onchip_mem+0xff7fd38c>
  805658:	008007c4 	movi	r2,31
  80565c:	11003c16 	blt	r2,r4,805750 <__adddf3+0x5e4>
  805660:	00800804 	movi	r2,32
  805664:	1105c83a 	sub	r2,r2,r4
  805668:	488e983a 	sll	r7,r9,r2
  80566c:	310ad83a 	srl	r5,r6,r4
  805670:	3084983a 	sll	r2,r6,r2
  805674:	4912d83a 	srl	r9,r9,r4
  805678:	394ab03a 	or	r5,r7,r5
  80567c:	1004c03a 	cmpne	r2,r2,zero
  805680:	288ab03a 	or	r5,r5,r2
  805684:	003f5306 	br	8053d4 <__alt_mem_onchip_mem+0xff7fd3d4>
  805688:	4448b03a 	or	r4,r8,r17
  80568c:	20003e26 	beq	r4,zero,805788 <__adddf3+0x61c>
  805690:	00c6303a 	nor	r3,zero,r3
  805694:	18003a1e 	bne	r3,zero,805780 <__adddf3+0x614>
  805698:	3463c83a 	sub	r17,r6,r17
  80569c:	4a07c83a 	sub	r3,r9,r8
  8056a0:	344d803a 	cmpltu	r6,r6,r17
  8056a4:	1991c83a 	sub	r8,r3,r6
  8056a8:	1021883a 	mov	r16,r2
  8056ac:	3825883a 	mov	r18,r7
  8056b0:	003f0a06 	br	8052dc <__alt_mem_onchip_mem+0xff7fd2dc>
  8056b4:	2023883a 	mov	r17,r4
  8056b8:	003f0d06 	br	8052f0 <__alt_mem_onchip_mem+0xff7fd2f0>
  8056bc:	0081ffc4 	movi	r2,2047
  8056c0:	80bf3f1e 	bne	r16,r2,8053c0 <__alt_mem_onchip_mem+0xff7fd3c0>
  8056c4:	003ec806 	br	8051e8 <__alt_mem_onchip_mem+0xff7fd1e8>
  8056c8:	0005883a 	mov	r2,zero
  8056cc:	003fb106 	br	805594 <__alt_mem_onchip_mem+0xff7fd594>
  8056d0:	0007883a 	mov	r3,zero
  8056d4:	003fbc06 	br	8055c8 <__alt_mem_onchip_mem+0xff7fd5c8>
  8056d8:	4444b03a 	or	r2,r8,r17
  8056dc:	8000871e 	bne	r16,zero,8058fc <__adddf3+0x790>
  8056e0:	1000ba26 	beq	r2,zero,8059cc <__adddf3+0x860>
  8056e4:	4984b03a 	or	r2,r9,r6
  8056e8:	103ebf26 	beq	r2,zero,8051e8 <__alt_mem_onchip_mem+0xff7fd1e8>
  8056ec:	8985883a 	add	r2,r17,r6
  8056f0:	4247883a 	add	r3,r8,r9
  8056f4:	1451803a 	cmpltu	r8,r2,r17
  8056f8:	40d1883a 	add	r8,r8,r3
  8056fc:	40c0202c 	andhi	r3,r8,128
  805700:	1023883a 	mov	r17,r2
  805704:	183f1a26 	beq	r3,zero,805370 <__alt_mem_onchip_mem+0xff7fd370>
  805708:	00bfe034 	movhi	r2,65408
  80570c:	10bfffc4 	addi	r2,r2,-1
  805710:	2021883a 	mov	r16,r4
  805714:	4090703a 	and	r8,r8,r2
  805718:	003eb306 	br	8051e8 <__alt_mem_onchip_mem+0xff7fd1e8>
  80571c:	4444b03a 	or	r2,r8,r17
  805720:	8000291e 	bne	r16,zero,8057c8 <__adddf3+0x65c>
  805724:	10004b1e 	bne	r2,zero,805854 <__adddf3+0x6e8>
  805728:	4990b03a 	or	r8,r9,r6
  80572c:	40008b26 	beq	r8,zero,80595c <__adddf3+0x7f0>
  805730:	4811883a 	mov	r8,r9
  805734:	3023883a 	mov	r17,r6
  805738:	3825883a 	mov	r18,r7
  80573c:	003eaa06 	br	8051e8 <__alt_mem_onchip_mem+0xff7fd1e8>
  805740:	1021883a 	mov	r16,r2
  805744:	0011883a 	mov	r8,zero
  805748:	0005883a 	mov	r2,zero
  80574c:	003f0f06 	br	80538c <__alt_mem_onchip_mem+0xff7fd38c>
  805750:	217ff804 	addi	r5,r4,-32
  805754:	00800804 	movi	r2,32
  805758:	494ad83a 	srl	r5,r9,r5
  80575c:	20807d26 	beq	r4,r2,805954 <__adddf3+0x7e8>
  805760:	00801004 	movi	r2,64
