ARM GAS  C:\Users\ukul426\AppData\Local\Temp\ccdCf6T6.s 			page 1


   1              		.syntax unified
   2              		.cpu cortex-m3
   3              		.fpu softvfp
   4              		.eabi_attribute 20, 1
   5              		.eabi_attribute 21, 1
   6              		.eabi_attribute 23, 3
   7              		.eabi_attribute 24, 1
   8              		.eabi_attribute 25, 1
   9              		.eabi_attribute 26, 1
  10              		.eabi_attribute 30, 1
  11              		.eabi_attribute 34, 1
  12              		.eabi_attribute 18, 4
  13              		.thumb
  14              		.syntax unified
  15              		.file	"main.c"
  16              		.text
  17              	.Ltext0:
  18              		.cfi_sections	.debug_frame
  19              		.section	.text.isr_1_handler,"ax",%progbits
  20              		.align	2
  21              		.global	isr_1_handler
  22              		.thumb
  23              		.thumb_func
  24              		.type	isr_1_handler, %function
  25              	isr_1_handler:
  26              	.LFB64:
  27              		.file 1 "main.c"
   1:main.c        **** /* ========================================
   2:main.c        ****  *
   3:main.c        ****  * Copyright YOUR COMPANY, THE YEAR
   4:main.c        ****  * All Rights Reserved
   5:main.c        ****  * UNPUBLISHED, LICENSED SOFTWARE.
   6:main.c        ****  *
   7:main.c        ****  * CONFIDENTIAL AND PROPRIETARY INFORMATION
   8:main.c        ****  * WHICH IS THE PROPERTY OF your company.
   9:main.c        ****  *
  10:main.c        ****  * ========================================
  11:main.c        **** */
  12:main.c        **** /* ========================================
  13:main.c        ****  * Fully working code: 
  14:main.c        ****  * PWM      : 
  15:main.c        ****  * Encoder  : 
  16:main.c        ****  * ADC      :
  17:main.c        ****  * USB      : port displays speed and position.
  18:main.c        ****  * CMD: "PW xx"
  19:main.c        ****  * Copyright Univ of Auckland, 2016
  20:main.c        ****  * All Rights Reserved
  21:main.c        ****  * UNPUBLISHED, LICENSED SOFTWARE.
  22:main.c        ****  *
  23:main.c        ****  * CONFIDENTIAL AND PROPRIETARY INFORMATION
  24:main.c        ****  * WHICH IS THE PROPERTY OF Univ of Auckland.
  25:main.c        ****  *
  26:main.c        ****  * ========================================
  27:main.c        **** */
  28:main.c        **** 
  29:main.c        **** #include "program.h"
  30:main.c        **** 
ARM GAS  C:\Users\ukul426\AppData\Local\Temp\ccdCf6T6.s 			page 2


  31:main.c        **** //distance calculation paras
  32:main.c        **** int32 CPR = 228;  // Adjusted for 4x resolution(228/4)
  33:main.c        **** float wheelCircumference_cm = (M_PI*64.46)/10;// wheel circumference wheelDiameter_mm = 64.46)
  34:main.c        **** double timeInterval_s = 10.924;  // Effective time interval( (timer period )2.731*4)
  35:main.c        **** int path_length;
  36:main.c        **** int counter=1;
  37:main.c        **** 
  38:main.c        **** 
  39:main.c        **** uint32 count = 0;
  40:main.c        **** bool isTurning=false;
  41:main.c        **** 
  42:main.c        **** uint8 comp0_sum;
  43:main.c        **** uint8 comp1_sum;
  44:main.c        **** uint8 comp2_sum;
  45:main.c        **** uint8 comp3_sum;
  46:main.c        **** 
  47:main.c        **** 
  48:main.c        **** 
  49:main.c        **** 
  50:main.c        **** ////from point 0 to 1
  51:main.c        **** //Movement path[10] = {
  52:main.c        **** ////    {3*CM_PER_BLOCK_VERT, 'R'}, 
  53:main.c        **** //    {3*CM_PER_BLOCK_VERT, 'L'}, 
  54:main.c        **** //    {2*CM_PER_BLOCK_HORIZ, 'L'}, 
  55:main.c        **** //    {2*CM_PER_BLOCK_VERT, 'R'}, 
  56:main.c        **** //    {4*CM_PER_BLOCK_HORIZ, 'N'}, 
  57:main.c        **** ////    {2*CM_PER_BLOCK_VERT, 'N'},
  58:main.c        **** //};
  59:main.c        **** Movement moveCountArray[15];
  60:main.c        **** 
  61:main.c        **** RobotState current_state = STOP;// intialse state
  62:main.c        **** 
  63:main.c        **** 
  64:main.c        **** //---------------------------------for direction();
  65:main.c        **** int currentX = 2;
  66:main.c        **** int currentY = 2;
  67:main.c        **** int stepCount = 0;
  68:main.c        **** int target[] = {14, 15};
  69:main.c        **** int position = -1;
  70:main.c        **** 
  71:main.c        **** RobotDirection current_direction =  SOUTH;
  72:main.c        **** //-----------------------------------------
  73:main.c        **** 
  74:main.c        **** 
  75:main.c        **** 
  76:main.c        **** CY_ISR(isr_1_handler) {
  28              		.loc 1 76 0
  29              		.cfi_startproc
  30              		@ args = 0, pretend = 0, frame = 0
  31              		@ frame_needed = 0, uses_anonymous_args = 0
  32 0000 08B5     		push	{r3, lr}
  33              		.cfi_def_cfa_offset 8
  34              		.cfi_offset 3, -8
  35              		.cfi_offset 14, -4
  77:main.c        ****         //every 1ms 
  78:main.c        ****     
  79:main.c        ****     //sum up comp values every 1ms
ARM GAS  C:\Users\ukul426\AppData\Local\Temp\ccdCf6T6.s 			page 3


  80:main.c        ****     comp0_sum+=Comp_0_GetCompare();
  36              		.loc 1 80 0
  37 0002 FFF7FEFF 		bl	Comp_0_GetCompare
  38              	.LVL0:
  39 0006 164A     		ldr	r2, .L4
  40 0008 1378     		ldrb	r3, [r2]	@ zero_extendqisi2
  41 000a 1844     		add	r0, r0, r3
  42 000c 1070     		strb	r0, [r2]
  81:main.c        ****     comp1_sum+=Comp_1_GetCompare();
  43              		.loc 1 81 0
  44 000e FFF7FEFF 		bl	Comp_1_GetCompare
  45              	.LVL1:
  46 0012 144A     		ldr	r2, .L4+4
  47 0014 1378     		ldrb	r3, [r2]	@ zero_extendqisi2
  48 0016 1844     		add	r0, r0, r3
  49 0018 1070     		strb	r0, [r2]
  82:main.c        ****     comp2_sum+=Comp_2_GetCompare();
  50              		.loc 1 82 0
  51 001a FFF7FEFF 		bl	Comp_2_GetCompare
  52              	.LVL2:
  53 001e 124A     		ldr	r2, .L4+8
  54 0020 1378     		ldrb	r3, [r2]	@ zero_extendqisi2
  55 0022 1844     		add	r0, r0, r3
  56 0024 1070     		strb	r0, [r2]
  83:main.c        ****     comp3_sum+=Comp_3_GetCompare();
  57              		.loc 1 83 0
  58 0026 FFF7FEFF 		bl	Comp_3_GetCompare
  59              	.LVL3:
  60 002a 104A     		ldr	r2, .L4+12
  61 002c 1378     		ldrb	r3, [r2]	@ zero_extendqisi2
  62 002e 1844     		add	r0, r0, r3
  63 0030 1070     		strb	r0, [r2]
  84:main.c        ****       
  85:main.c        ****     if(count==8){
  64              		.loc 1 85 0
  65 0032 0F4B     		ldr	r3, .L4+16
  66 0034 1B68     		ldr	r3, [r3]
  67 0036 082B     		cmp	r3, #8
  68 0038 0AD1     		bne	.L2
  86:main.c        ****         //reset to check again every 8ms
  87:main.c        ****         comp0_sum=0;
  69              		.loc 1 87 0
  70 003a 0023     		movs	r3, #0
  71 003c 084A     		ldr	r2, .L4
  72 003e 1370     		strb	r3, [r2]
  88:main.c        ****         comp1_sum=0;
  73              		.loc 1 88 0
  74 0040 084A     		ldr	r2, .L4+4
  75 0042 1370     		strb	r3, [r2]
  89:main.c        ****         comp2_sum=0;
  76              		.loc 1 89 0
  77 0044 084A     		ldr	r2, .L4+8
  78 0046 1370     		strb	r3, [r2]
  90:main.c        ****         comp3_sum=0;
  79              		.loc 1 90 0
  80 0048 084A     		ldr	r2, .L4+12
  81 004a 1370     		strb	r3, [r2]
ARM GAS  C:\Users\ukul426\AppData\Local\Temp\ccdCf6T6.s 			page 4


  91:main.c        ****         count=0;
  82              		.loc 1 91 0
  83 004c 084A     		ldr	r2, .L4+16
  84 004e 1360     		str	r3, [r2]
  85              	.L2:
  92:main.c        ****     }
  93:main.c        ****    
  94:main.c        ****     count++;
  86              		.loc 1 94 0
  87 0050 074A     		ldr	r2, .L4+16
  88 0052 1368     		ldr	r3, [r2]
  89 0054 0133     		adds	r3, r3, #1
  90 0056 1360     		str	r3, [r2]
  95:main.c        ****     Timer_1_ReadStatusRegister();
  91              		.loc 1 95 0
  92 0058 FFF7FEFF 		bl	Timer_1_ReadStatusRegister
  93              	.LVL4:
  94 005c 08BD     		pop	{r3, pc}
  95              	.L5:
  96 005e 00BF     		.align	2
  97              	.L4:
  98 0060 00000000 		.word	comp0_sum
  99 0064 00000000 		.word	comp1_sum
 100 0068 00000000 		.word	comp2_sum
 101 006c 00000000 		.word	comp3_sum
 102 0070 00000000 		.word	.LANCHOR0
 103              		.cfi_endproc
 104              	.LFE64:
 105              		.size	isr_1_handler, .-isr_1_handler
 106              		.section	.text.stop,"ax",%progbits
 107              		.align	2
 108              		.global	stop
 109              		.thumb
 110              		.thumb_func
 111              		.type	stop, %function
 112              	stop:
 113              	.LFB65:
  96:main.c        **** }
  97:main.c        **** 
  98:main.c        **** 
  99:main.c        **** void stop(){
 114              		.loc 1 99 0
 115              		.cfi_startproc
 116              		@ args = 0, pretend = 0, frame = 0
 117              		@ frame_needed = 0, uses_anonymous_args = 0
 118 0000 08B5     		push	{r3, lr}
 119              		.cfi_def_cfa_offset 8
 120              		.cfi_offset 3, -8
 121              		.cfi_offset 14, -4
 100:main.c        ****     PWM_1_WriteCompare(50);
 122              		.loc 1 100 0
 123 0002 3220     		movs	r0, #50
 124 0004 FFF7FEFF 		bl	PWM_1_WriteCompare
 125              	.LVL5:
 101:main.c        ****     PWM_2_WriteCompare(50);
 126              		.loc 1 101 0
 127 0008 3220     		movs	r0, #50
ARM GAS  C:\Users\ukul426\AppData\Local\Temp\ccdCf6T6.s 			page 5


 128 000a FFF7FEFF 		bl	PWM_2_WriteCompare
 129              	.LVL6:
 130 000e 08BD     		pop	{r3, pc}
 131              		.cfi_endproc
 132              	.LFE65:
 133              		.size	stop, .-stop
 134              		.section	.text.turnLeft,"ax",%progbits
 135              		.align	2
 136              		.global	turnLeft
 137              		.thumb
 138              		.thumb_func
 139              		.type	turnLeft, %function
 140              	turnLeft:
 141              	.LFB66:
 102:main.c        **** }
 103:main.c        **** 
 104:main.c        **** void turnLeft(){
 142              		.loc 1 104 0
 143              		.cfi_startproc
 144              		@ args = 0, pretend = 0, frame = 0
 145              		@ frame_needed = 0, uses_anonymous_args = 0
 146 0000 08B5     		push	{r3, lr}
 147              		.cfi_def_cfa_offset 8
 148              		.cfi_offset 3, -8
 149              		.cfi_offset 14, -4
 105:main.c        ****     PWM_1_WriteCompare(68);
 150              		.loc 1 105 0
 151 0002 4420     		movs	r0, #68
 152 0004 FFF7FEFF 		bl	PWM_1_WriteCompare
 153              	.LVL7:
 106:main.c        ****     PWM_2_WriteCompare(33);
 154              		.loc 1 106 0
 155 0008 2120     		movs	r0, #33
 156 000a FFF7FEFF 		bl	PWM_2_WriteCompare
 157              	.LVL8:
 158              	.L9:
 107:main.c        ****     while(Sout_L_Read()==0){//wait while left is on line
 159              		.loc 1 107 0 discriminator 1
 160 000e FFF7FEFF 		bl	Sout_L_Read
 161              	.LVL9:
 162 0012 0028     		cmp	r0, #0
 163 0014 FBD0     		beq	.L9
 164              	.L10:
 108:main.c        ****        ;;
 109:main.c        ****     }
 110:main.c        ****     while(!(Sout_M1_Read()==0 &&Sout_M1_Read()==0)){//wait while middle sensors off line
 165              		.loc 1 110 0 discriminator 3
 166 0016 FFF7FEFF 		bl	Sout_M1_Read
 167              	.LVL10:
 168 001a 0028     		cmp	r0, #0
 169 001c FBD1     		bne	.L10
 170              		.loc 1 110 0 is_stmt 0 discriminator 2
 171 001e FFF7FEFF 		bl	Sout_M1_Read
 172              	.LVL11:
 173 0022 0028     		cmp	r0, #0
 174 0024 F7D1     		bne	.L10
 111:main.c        ****        ;;
ARM GAS  C:\Users\ukul426\AppData\Local\Temp\ccdCf6T6.s 			page 6


 112:main.c        ****     }
 113:main.c        ****     isTurning=false;
 175              		.loc 1 113 0 is_stmt 1
 176 0026 0022     		movs	r2, #0
 177 0028 044B     		ldr	r3, .L13
 178 002a 1A71     		strb	r2, [r3, #4]
 114:main.c        ****     PWM_1_WriteCompare(65);
 179              		.loc 1 114 0
 180 002c 4120     		movs	r0, #65
 181 002e FFF7FEFF 		bl	PWM_1_WriteCompare
 182              	.LVL12:
 115:main.c        ****     PWM_2_WriteCompare(66);
 183              		.loc 1 115 0
 184 0032 4220     		movs	r0, #66
 185 0034 FFF7FEFF 		bl	PWM_2_WriteCompare
 186              	.LVL13:
 187 0038 08BD     		pop	{r3, pc}
 188              	.L14:
 189 003a 00BF     		.align	2
 190              	.L13:
 191 003c 00000000 		.word	.LANCHOR0
 192              		.cfi_endproc
 193              	.LFE66:
 194              		.size	turnLeft, .-turnLeft
 195              		.section	.text.turnRight,"ax",%progbits
 196              		.align	2
 197              		.global	turnRight
 198              		.thumb
 199              		.thumb_func
 200              		.type	turnRight, %function
 201              	turnRight:
 202              	.LFB67:
 116:main.c        **** 
 117:main.c        **** }
 118:main.c        **** 
 119:main.c        **** void turnRight(){
 203              		.loc 1 119 0
 204              		.cfi_startproc
 205              		@ args = 0, pretend = 0, frame = 0
 206              		@ frame_needed = 0, uses_anonymous_args = 0
 207 0000 08B5     		push	{r3, lr}
 208              		.cfi_def_cfa_offset 8
 209              		.cfi_offset 3, -8
 210              		.cfi_offset 14, -4
 120:main.c        ****     PWM_1_WriteCompare(33);
 211              		.loc 1 120 0
 212 0002 2120     		movs	r0, #33
 213 0004 FFF7FEFF 		bl	PWM_1_WriteCompare
 214              	.LVL14:
 121:main.c        ****     PWM_2_WriteCompare(68);
 215              		.loc 1 121 0
 216 0008 4420     		movs	r0, #68
 217 000a FFF7FEFF 		bl	PWM_2_WriteCompare
 218              	.LVL15:
 219              	.L16:
 122:main.c        ****     while(Sout_R_Read()==0){//wait while right is on line
 220              		.loc 1 122 0 discriminator 1
ARM GAS  C:\Users\ukul426\AppData\Local\Temp\ccdCf6T6.s 			page 7


 221 000e FFF7FEFF 		bl	Sout_R_Read
 222              	.LVL16:
 223 0012 0028     		cmp	r0, #0
 224 0014 FBD0     		beq	.L16
 225              	.L17:
 123:main.c        ****        ;;
 124:main.c        ****     }
 125:main.c        ****     while(!(Sout_M1_Read()==0 &&Sout_M1_Read()==0)){//wait while middle sensors off line
 226              		.loc 1 125 0 discriminator 3
 227 0016 FFF7FEFF 		bl	Sout_M1_Read
 228              	.LVL17:
 229 001a 0028     		cmp	r0, #0
 230 001c FBD1     		bne	.L17
 231              		.loc 1 125 0 is_stmt 0 discriminator 2
 232 001e FFF7FEFF 		bl	Sout_M1_Read
 233              	.LVL18:
 234 0022 0028     		cmp	r0, #0
 235 0024 F7D1     		bne	.L17
 126:main.c        ****        ;;
 127:main.c        ****     }
 128:main.c        ****     isTurning=false;
 236              		.loc 1 128 0 is_stmt 1
 237 0026 0022     		movs	r2, #0
 238 0028 044B     		ldr	r3, .L20
 239 002a 1A71     		strb	r2, [r3, #4]
 129:main.c        ****     PWM_1_WriteCompare(65);
 240              		.loc 1 129 0
 241 002c 4120     		movs	r0, #65
 242 002e FFF7FEFF 		bl	PWM_1_WriteCompare
 243              	.LVL19:
 130:main.c        ****     PWM_2_WriteCompare(66);
 244              		.loc 1 130 0
 245 0032 4220     		movs	r0, #66
 246 0034 FFF7FEFF 		bl	PWM_2_WriteCompare
 247              	.LVL20:
 248 0038 08BD     		pop	{r3, pc}
 249              	.L21:
 250 003a 00BF     		.align	2
 251              	.L20:
 252 003c 00000000 		.word	.LANCHOR0
 253              		.cfi_endproc
 254              	.LFE67:
 255              		.size	turnRight, .-turnRight
 256              		.section	.text.reverse,"ax",%progbits
 257              		.align	2
 258              		.global	reverse
 259              		.thumb
 260              		.thumb_func
 261              		.type	reverse, %function
 262              	reverse:
 263              	.LFB68:
 131:main.c        **** }
 132:main.c        **** 
 133:main.c        **** 
 134:main.c        **** void reverse(){
 264              		.loc 1 134 0
 265              		.cfi_startproc
ARM GAS  C:\Users\ukul426\AppData\Local\Temp\ccdCf6T6.s 			page 8


 266              		@ args = 0, pretend = 0, frame = 0
 267              		@ frame_needed = 0, uses_anonymous_args = 0
 268 0000 08B5     		push	{r3, lr}
 269              		.cfi_def_cfa_offset 8
 270              		.cfi_offset 3, -8
 271              		.cfi_offset 14, -4
 135:main.c        ****     PWM_1_WriteCompare(30);
 272              		.loc 1 135 0
 273 0002 1E20     		movs	r0, #30
 274 0004 FFF7FEFF 		bl	PWM_1_WriteCompare
 275              	.LVL21:
 136:main.c        ****     PWM_2_WriteCompare(30);
 276              		.loc 1 136 0
 277 0008 1E20     		movs	r0, #30
 278 000a FFF7FEFF 		bl	PWM_2_WriteCompare
 279              	.LVL22:
 280 000e 08BD     		pop	{r3, pc}
 281              		.cfi_endproc
 282              	.LFE68:
 283              		.size	reverse, .-reverse
 284              		.global	__aeabi_i2d
 285              		.global	__aeabi_dmul
 286              		.global	__aeabi_dcmplt
 287              		.section	.text.goStraight_cm,"ax",%progbits
 288              		.align	2
 289              		.global	goStraight_cm
 290              		.thumb
 291              		.thumb_func
 292              		.type	goStraight_cm, %function
 293              	goStraight_cm:
 294              	.LFB69:
 137:main.c        **** }
 138:main.c        **** 
 139:main.c        **** void goStraight_cm(int distance){
 295              		.loc 1 139 0
 296              		.cfi_startproc
 297              		@ args = 0, pretend = 0, frame = 0
 298              		@ frame_needed = 0, uses_anonymous_args = 0
 299              	.LVL23:
 300 0000 70B5     		push	{r4, r5, r6, lr}
 301              		.cfi_def_cfa_offset 16
 302              		.cfi_offset 4, -16
 303              		.cfi_offset 5, -12
 304              		.cfi_offset 6, -8
 305              		.cfi_offset 14, -4
 306 0002 0646     		mov	r6, r0
 140:main.c        ****     
 141:main.c        ****     QuadDec_M1_SetCounter(0);
 307              		.loc 1 141 0
 308 0004 0020     		movs	r0, #0
 309              	.LVL24:
 310 0006 FFF7FEFF 		bl	QuadDec_M1_SetCounter
 311              	.LVL25:
 142:main.c        ****     
 143:main.c        ****     while(QuadDec_M1_GetCounter()<(distance*ENC_VALUE_PER_CM)){
 312              		.loc 1 143 0
 313 000a 24E0     		b	.L25
ARM GAS  C:\Users\ukul426\AppData\Local\Temp\ccdCf6T6.s 			page 9


 314              	.L30:
 144:main.c        ****             //comp0==>middle left comp1==>middle right
 145:main.c        ****         if(comp0_sum>0 && comp1_sum==0){//s_ML out of line
 315              		.loc 1 145 0
 316 000c 204B     		ldr	r3, .L32+8
 317 000e 1B78     		ldrb	r3, [r3]	@ zero_extendqisi2
 318 0010 4BB1     		cbz	r3, .L26
 319              		.loc 1 145 0 is_stmt 0 discriminator 1
 320 0012 204A     		ldr	r2, .L32+12
 321 0014 1278     		ldrb	r2, [r2]	@ zero_extendqisi2
 322 0016 32B9     		cbnz	r2, .L26
 146:main.c        ****             PWM_2_WriteCompare(PWM_2_ReadCompare() +1);
 323              		.loc 1 146 0 is_stmt 1
 324 0018 FFF7FEFF 		bl	PWM_2_ReadCompare
 325              	.LVL26:
 326 001c 0130     		adds	r0, r0, #1
 327 001e C0B2     		uxtb	r0, r0
 328 0020 FFF7FEFF 		bl	PWM_2_WriteCompare
 329              	.LVL27:
 330 0024 17E0     		b	.L25
 331              	.L26:
 147:main.c        ****         }else if(comp0_sum==0 && comp1_sum>0){//s_MR out of line
 332              		.loc 1 147 0
 333 0026 4BB9     		cbnz	r3, .L28
 334              		.loc 1 147 0 is_stmt 0 discriminator 1
 335 0028 1A4A     		ldr	r2, .L32+12
 336 002a 1278     		ldrb	r2, [r2]	@ zero_extendqisi2
 337 002c 32B1     		cbz	r2, .L28
 148:main.c        ****             PWM_1_WriteCompare(PWM_1_ReadCompare() +1);
 338              		.loc 1 148 0 is_stmt 1
 339 002e FFF7FEFF 		bl	PWM_1_ReadCompare
 340              	.LVL28:
 341 0032 0130     		adds	r0, r0, #1
 342 0034 C0B2     		uxtb	r0, r0
 343 0036 FFF7FEFF 		bl	PWM_1_WriteCompare
 344              	.LVL29:
 345 003a 0CE0     		b	.L25
 346              	.L28:
 149:main.c        ****             
 150:main.c        ****         }else if(comp1_sum==0 && comp0_sum==0){
 347              		.loc 1 150 0
 348 003c 154A     		ldr	r2, .L32+12
 349 003e 1278     		ldrb	r2, [r2]	@ zero_extendqisi2
 350 0040 3AB9     		cbnz	r2, .L29
 351              		.loc 1 150 0 is_stmt 0 discriminator 1
 352 0042 33B9     		cbnz	r3, .L29
 151:main.c        ****             PWM_1_WriteCompare(68);
 353              		.loc 1 151 0 is_stmt 1
 354 0044 4420     		movs	r0, #68
 355 0046 FFF7FEFF 		bl	PWM_1_WriteCompare
 356              	.LVL30:
 152:main.c        ****             PWM_2_WriteCompare(69);
 357              		.loc 1 152 0
 358 004a 4520     		movs	r0, #69
 359 004c FFF7FEFF 		bl	PWM_2_WriteCompare
 360              	.LVL31:
 361 0050 01E0     		b	.L25
ARM GAS  C:\Users\ukul426\AppData\Local\Temp\ccdCf6T6.s 			page 10


 362              	.L29:
 153:main.c        ****         }else{
 154:main.c        ****             reverse();
 363              		.loc 1 154 0
 364 0052 FFF7FEFF 		bl	reverse
 365              	.LVL32:
 366              	.L25:
 143:main.c        ****             //comp0==>middle left comp1==>middle right
 367              		.loc 1 143 0
 368 0056 FFF7FEFF 		bl	QuadDec_M1_GetCounter
 369              	.LVL33:
 370 005a FFF7FEFF 		bl	__aeabi_i2d
 371              	.LVL34:
 372 005e 0446     		mov	r4, r0
 373 0060 0D46     		mov	r5, r1
 374 0062 3046     		mov	r0, r6
 375 0064 FFF7FEFF 		bl	__aeabi_i2d
 376              	.LVL35:
 377 0068 07A3     		adr	r3, .L32
 378 006a D3E90023 		ldrd	r2, [r3]
 379 006e FFF7FEFF 		bl	__aeabi_dmul
 380              	.LVL36:
 381 0072 0246     		mov	r2, r0
 382 0074 0B46     		mov	r3, r1
 383 0076 2046     		mov	r0, r4
 384 0078 2946     		mov	r1, r5
 385 007a FFF7FEFF 		bl	__aeabi_dcmplt
 386              	.LVL37:
 387 007e 0028     		cmp	r0, #0
 388 0080 C4D1     		bne	.L30
 155:main.c        ****         }
 156:main.c        ****     }
 157:main.c        ****     stop();
 389              		.loc 1 157 0
 390 0082 FFF7FEFF 		bl	stop
 391              	.LVL38:
 392 0086 70BD     		pop	{r4, r5, r6, pc}
 393              	.LVL39:
 394              	.L33:
 395              		.align	3
 396              	.L32:
 397 0088 33333333 		.word	858993459
 398 008c 33332540 		.word	1076179763
 399 0090 00000000 		.word	comp0_sum
 400 0094 00000000 		.word	comp1_sum
 401              		.cfi_endproc
 402              	.LFE69:
 403              		.size	goStraight_cm, .-goStraight_cm
 404              		.section	.text.goStraight,"ax",%progbits
 405              		.align	2
 406              		.global	goStraight
 407              		.thumb
 408              		.thumb_func
 409              		.type	goStraight, %function
 410              	goStraight:
 411              	.LFB70:
 158:main.c        ****     
ARM GAS  C:\Users\ukul426\AppData\Local\Temp\ccdCf6T6.s 			page 11


 159:main.c        **** }
 160:main.c        **** 
 161:main.c        **** void goStraight(){
 412              		.loc 1 161 0
 413              		.cfi_startproc
 414              		@ args = 0, pretend = 0, frame = 0
 415              		@ frame_needed = 0, uses_anonymous_args = 0
 416 0000 08B5     		push	{r3, lr}
 417              		.cfi_def_cfa_offset 8
 418              		.cfi_offset 3, -8
 419              		.cfi_offset 14, -4
 162:main.c        ****     
 163:main.c        ****         //comp0==>middle left comp1==>middle right
 164:main.c        ****     if(comp0_sum>0 && comp1_sum==0){//s_ML out of line
 420              		.loc 1 164 0
 421 0002 134B     		ldr	r3, .L40
 422 0004 1B78     		ldrb	r3, [r3]	@ zero_extendqisi2
 423 0006 4BB1     		cbz	r3, .L35
 424              		.loc 1 164 0 is_stmt 0 discriminator 1
 425 0008 124A     		ldr	r2, .L40+4
 426 000a 1278     		ldrb	r2, [r2]	@ zero_extendqisi2
 427 000c 32B9     		cbnz	r2, .L35
 165:main.c        ****         PWM_2_WriteCompare(PWM_2_ReadCompare() +1);
 428              		.loc 1 165 0 is_stmt 1
 429 000e FFF7FEFF 		bl	PWM_2_ReadCompare
 430              	.LVL40:
 431 0012 0130     		adds	r0, r0, #1
 432 0014 C0B2     		uxtb	r0, r0
 433 0016 FFF7FEFF 		bl	PWM_2_WriteCompare
 434              	.LVL41:
 435 001a 08BD     		pop	{r3, pc}
 436              	.L35:
 166:main.c        ****     }else if(comp0_sum==0 && comp1_sum>0){//s_MR out of line
 437              		.loc 1 166 0
 438 001c 4BB9     		cbnz	r3, .L37
 439              		.loc 1 166 0 is_stmt 0 discriminator 1
 440 001e 0D4A     		ldr	r2, .L40+4
 441 0020 1278     		ldrb	r2, [r2]	@ zero_extendqisi2
 442 0022 32B1     		cbz	r2, .L37
 167:main.c        ****         PWM_1_WriteCompare(PWM_1_ReadCompare() +1);
 443              		.loc 1 167 0 is_stmt 1
 444 0024 FFF7FEFF 		bl	PWM_1_ReadCompare
 445              	.LVL42:
 446 0028 0130     		adds	r0, r0, #1
 447 002a C0B2     		uxtb	r0, r0
 448 002c FFF7FEFF 		bl	PWM_1_WriteCompare
 449              	.LVL43:
 450 0030 08BD     		pop	{r3, pc}
 451              	.L37:
 168:main.c        ****         
 169:main.c        ****     }else if(comp1_sum==0 && comp0_sum==0){
 452              		.loc 1 169 0
 453 0032 084A     		ldr	r2, .L40+4
 454 0034 1278     		ldrb	r2, [r2]	@ zero_extendqisi2
 455 0036 3AB9     		cbnz	r2, .L38
 456              		.loc 1 169 0 is_stmt 0 discriminator 1
 457 0038 33B9     		cbnz	r3, .L38
ARM GAS  C:\Users\ukul426\AppData\Local\Temp\ccdCf6T6.s 			page 12


 170:main.c        ****         PWM_1_WriteCompare(68);
 458              		.loc 1 170 0 is_stmt 1
 459 003a 4420     		movs	r0, #68
 460 003c FFF7FEFF 		bl	PWM_1_WriteCompare
 461              	.LVL44:
 171:main.c        ****         PWM_2_WriteCompare(69);
 462              		.loc 1 171 0
 463 0040 4520     		movs	r0, #69
 464 0042 FFF7FEFF 		bl	PWM_2_WriteCompare
 465              	.LVL45:
 466 0046 08BD     		pop	{r3, pc}
 467              	.L38:
 172:main.c        ****     }else{
 173:main.c        ****         reverse();
 468              		.loc 1 173 0
 469 0048 FFF7FEFF 		bl	reverse
 470              	.LVL46:
 471 004c 08BD     		pop	{r3, pc}
 472              	.L41:
 473 004e 00BF     		.align	2
 474              	.L40:
 475 0050 00000000 		.word	comp0_sum
 476 0054 00000000 		.word	comp1_sum
 477              		.cfi_endproc
 478              	.LFE70:
 479              		.size	goStraight, .-goStraight
 480              		.section	.text.main,"ax",%progbits
 481              		.align	2
 482              		.global	main
 483              		.thumb
 484              		.thumb_func
 485              		.type	main, %function
 486              	main:
 487              	.LFB71:
 174:main.c        ****     }
 175:main.c        ****     
 176:main.c        ****     
 177:main.c        **** }
 178:main.c        **** 
 179:main.c        **** int main(void)
 180:main.c        **** {
 488              		.loc 1 180 0
 489              		.cfi_startproc
 490              		@ Volatile: function does not return.
 491              		@ args = 0, pretend = 0, frame = 0
 492              		@ frame_needed = 0, uses_anonymous_args = 0
 493 0000 08B5     		push	{r3, lr}
 494              		.cfi_def_cfa_offset 8
 495              		.cfi_offset 3, -8
 496              		.cfi_offset 14, -4
 181:main.c        ****     CyGlobalIntEnable; /* Enable global interrupts. */
 497              		.loc 1 181 0
 498              		.syntax unified
 499              	@ 181 "main.c" 1
 500 0002 62B6     		CPSIE   i
 501              	@ 0 "" 2
 182:main.c        **** 
ARM GAS  C:\Users\ukul426\AppData\Local\Temp\ccdCf6T6.s 			page 13


 183:main.c        ****     /* Place your initialization/startup code here (e.g. MyInst_Start()) */
 184:main.c        ****     Timer_1_Start(); 
 502              		.loc 1 184 0
 503              		.thumb
 504              		.syntax unified
 505 0004 FFF7FEFF 		bl	Timer_1_Start
 506              	.LVL47:
 185:main.c        ****     isr_1_StartEx(isr_1_handler);
 507              		.loc 1 185 0
 508 0008 1A48     		ldr	r0, .L45
 509 000a FFF7FEFF 		bl	isr_1_StartEx
 510              	.LVL48:
 186:main.c        ****     
 187:main.c        ****     //start comparators
 188:main.c        ****     Comp_0_Start();
 511              		.loc 1 188 0
 512 000e FFF7FEFF 		bl	Comp_0_Start
 513              	.LVL49:
 189:main.c        ****     Comp_1_Start();
 514              		.loc 1 189 0
 515 0012 FFF7FEFF 		bl	Comp_1_Start
 516              	.LVL50:
 190:main.c        ****     Comp_2_Start();
 517              		.loc 1 190 0
 518 0016 FFF7FEFF 		bl	Comp_2_Start
 519              	.LVL51:
 191:main.c        ****     Comp_3_Start();
 520              		.loc 1 191 0
 521 001a FFF7FEFF 		bl	Comp_3_Start
 522              	.LVL52:
 192:main.c        ****     
 193:main.c        ****     /*Start PWM Clk*/
 194:main.c        ****     Clock_PWM_Start(); 
 523              		.loc 1 194 0
 524 001e FFF7FEFF 		bl	Clock_PWM_Start
 525              	.LVL53:
 195:main.c        ****     //Start PWM
 196:main.c        ****     PWM_1_Start();
 526              		.loc 1 196 0
 527 0022 FFF7FEFF 		bl	PWM_1_Start
 528              	.LVL54:
 197:main.c        ****     PWM_2_Start();
 529              		.loc 1 197 0
 530 0026 FFF7FEFF 		bl	PWM_2_Start
 531              	.LVL55:
 198:main.c        ****      
 199:main.c        ****     // write comparision int for MC33926 duty cycle must me larger than 10% and less than 90%   
 200:main.c        ****     PWM_1_WritePeriod(100);
 532              		.loc 1 200 0
 533 002a 6420     		movs	r0, #100
 534 002c FFF7FEFF 		bl	PWM_1_WritePeriod
 535              	.LVL56:
 201:main.c        ****     PWM_2_WritePeriod(100);
 536              		.loc 1 201 0
 537 0030 6420     		movs	r0, #100
 538 0032 FFF7FEFF 		bl	PWM_2_WritePeriod
 539              	.LVL57:
ARM GAS  C:\Users\ukul426\AppData\Local\Temp\ccdCf6T6.s 			page 14


 202:main.c        ****     
 203:main.c        ****     PWM_1_WriteCompare(50);
 540              		.loc 1 203 0
 541 0036 3220     		movs	r0, #50
 542 0038 FFF7FEFF 		bl	PWM_1_WriteCompare
 543              	.LVL58:
 204:main.c        ****     PWM_2_WriteCompare(50);
 544              		.loc 1 204 0
 545 003c 3220     		movs	r0, #50
 546 003e FFF7FEFF 		bl	PWM_2_WriteCompare
 547              	.LVL59:
 205:main.c        ****     QuadDec_M1_Start();
 548              		.loc 1 205 0
 549 0042 FFF7FEFF 		bl	QuadDec_M1_Start
 550              	.LVL60:
 206:main.c        ****     QuadDec_M2_Start();
 551              		.loc 1 206 0
 552 0046 FFF7FEFF 		bl	QuadDec_M2_Start
 553              	.LVL61:
 207:main.c        ****     
 208:main.c        ****     
 209:main.c        **** //**********************************calculate path    
 210:main.c        **** //    int startX = 0, startY = 0;
 211:main.c        **** //    int targetX = 4, targetY = 4;
 212:main.c        **** //
 213:main.c        **** //    Node* endNode = AStar(startX, startY, targetX, targetY);
 214:main.c        **** //
 215:main.c        **** //    // Print the path
 216:main.c        **** //    printPath(endNode);
 217:main.c        **** //**************************************************    
 218:main.c        ****     
 219:main.c        **** //   getMovementArray(1,1,12,1,SOUTH);
 220:main.c        ****     
 221:main.c        ****     //this loops through all the movement required in the path
 222:main.c        ****     //movement contains distance for going straight and a turn
 223:main.c        **** //    for(int i=0; i<16;i++){//length should be how many movements there should be
 224:main.c        **** ////       if(i!=0){
 225:main.c        **** ////            goStraight_cm(moveCountArray[i].distance-6);//if not the first movement remove 5 cm
 226:main.c        **** ////       }else{
 227:main.c        **** //            goStraight_cm(path[i].distance);
 228:main.c        **** ////       }
 229:main.c        **** //        if(moveCountArray[i].turnDirection=='R'){
 230:main.c        **** //           while(Sout_R_Read()!=0){
 231:main.c        **** //             goStraight();
 232:main.c        **** //           }
 233:main.c        **** //           turnRight();
 234:main.c        **** //        }else if(moveCountArray[i].turnDirection=='L'){
 235:main.c        **** //           while(Sout_L_Read()!=0){
 236:main.c        **** //             goStraight();
 237:main.c        **** //           }
 238:main.c        **** //           turnLeft();
 239:main.c        **** //        }else if(moveCountArray[i].turnDirection=='E'){
 240:main.c        **** //            stop();
 241:main.c        **** //            break;
 242:main.c        **** //        }
 243:main.c        **** //    }
 244:main.c        ****     
ARM GAS  C:\Users\ukul426\AppData\Local\Temp\ccdCf6T6.s 			page 15


 245:main.c        ****     goStraight_cm(6*3);
 554              		.loc 1 245 0
 555 004a 1220     		movs	r0, #18
 556 004c FFF7FEFF 		bl	goStraight_cm
 557              	.LVL62:
 246:main.c        ****     turnLeft(); 
 558              		.loc 1 246 0
 559 0050 FFF7FEFF 		bl	turnLeft
 560              	.LVL63:
 247:main.c        ****     goStraight_cm(10*3);
 561              		.loc 1 247 0
 562 0054 1E20     		movs	r0, #30
 563 0056 FFF7FEFF 		bl	goStraight_cm
 564              	.LVL64:
 248:main.c        ****     turnLeft();
 565              		.loc 1 248 0
 566 005a FFF7FEFF 		bl	turnLeft
 567              	.LVL65:
 249:main.c        ****     goStraight_cm(6*3);
 568              		.loc 1 249 0
 569 005e 1220     		movs	r0, #18
 570 0060 FFF7FEFF 		bl	goStraight_cm
 571              	.LVL66:
 250:main.c        ****     turnRight();
 572              		.loc 1 250 0
 573 0064 FFF7FEFF 		bl	turnRight
 574              	.LVL67:
 251:main.c        ****     goStraight_cm(10*7);
 575              		.loc 1 251 0
 576 0068 4620     		movs	r0, #70
 577 006a FFF7FEFF 		bl	goStraight_cm
 578              	.LVL68:
 252:main.c        ****     stop();
 579              		.loc 1 252 0
 580 006e FFF7FEFF 		bl	stop
 581              	.LVL69:
 582              	.L43:
 583 0072 FEE7     		b	.L43
 584              	.L46:
 585              		.align	2
 586              	.L45:
 587 0074 00000000 		.word	isr_1_handler
 588              		.cfi_endproc
 589              	.LFE71:
 590              		.size	main, .-main
 591              		.global	current_direction
 592              		.global	position
 593              		.global	target
 594              		.global	stepCount
 595              		.global	currentY
 596              		.global	currentX
 597              		.global	current_state
 598              		.comm	moveCountArray,120,4
 599              		.comm	comp3_sum,1,1
 600              		.comm	comp2_sum,1,1
 601              		.comm	comp1_sum,1,1
 602              		.comm	comp0_sum,1,1
ARM GAS  C:\Users\ukul426\AppData\Local\Temp\ccdCf6T6.s 			page 16


 603              		.global	isTurning
 604              		.global	count
 605              		.global	counter
 606              		.comm	path_length,4,4
 607              		.global	timeInterval_s
 608              		.global	wheelCircumference_cm
 609              		.global	CPR
 610              		.comm	movementArray,80,4
 611              		.data
 612              		.align	3
 613              		.type	current_direction, %object
 614              		.size	current_direction, 1
 615              	current_direction:
 616 0000 02       		.byte	2
 617 0001 000000   		.space	3
 618              		.type	position, %object
 619              		.size	position, 4
 620              	position:
 621 0004 FFFFFFFF 		.word	-1
 622              		.type	target, %object
 623              		.size	target, 8
 624              	target:
 625 0008 0E000000 		.word	14
 626 000c 0F000000 		.word	15
 627              		.type	currentY, %object
 628              		.size	currentY, 4
 629              	currentY:
 630 0010 02000000 		.word	2
 631              		.type	currentX, %object
 632              		.size	currentX, 4
 633              	currentX:
 634 0014 02000000 		.word	2
 635              		.type	current_state, %object
 636              		.size	current_state, 1
 637              	current_state:
 638 0018 03       		.byte	3
 639 0019 000000   		.space	3
 640              		.type	counter, %object
 641              		.size	counter, 4
 642              	counter:
 643 001c 01000000 		.word	1
 644              		.type	timeInterval_s, %object
 645              		.size	timeInterval_s, 8
 646              	timeInterval_s:
 647 0020 0C022B87 		.word	-2027224564
 648 0024 16D92540 		.word	1076222230
 649              		.type	wheelCircumference_cm, %object
 650              		.size	wheelCircumference_cm, 4
 651              	wheelCircumference_cm:
 652 0028 7201A241 		.word	1101136242
 653              		.type	CPR, %object
 654              		.size	CPR, 4
 655              	CPR:
 656 002c E4000000 		.word	228
 657              		.bss
 658              		.align	2
 659              		.set	.LANCHOR0,. + 0
ARM GAS  C:\Users\ukul426\AppData\Local\Temp\ccdCf6T6.s 			page 17


 660              		.type	count, %object
 661              		.size	count, 4
 662              	count:
 663 0000 00000000 		.space	4
 664              		.type	isTurning, %object
 665              		.size	isTurning, 1
 666              	isTurning:
 667 0004 00       		.space	1
 668 0005 000000   		.space	3
 669              		.type	stepCount, %object
 670              		.size	stepCount, 4
 671              	stepCount:
 672 0008 00000000 		.space	4
 673              		.text
 674              	.Letext0:
 675              		.file 2 "c:\\program files (x86)\\cypress\\psoc creator\\4.2\\psoc creator\\import\\gnu\\arm\\5.4.
 676              		.file 3 "c:\\program files (x86)\\cypress\\psoc creator\\4.2\\psoc creator\\import\\gnu\\arm\\5.4.
 677              		.file 4 "Generated_Source\\PSoC5/cytypes.h"
 678              		.file 5 "program.h"
 679              		.file 6 "Generated_Source\\PSoC5/core_cm3.h"
 680              		.file 7 "Generated_Source\\PSoC5/Comp_0.h"
 681              		.file 8 "Generated_Source\\PSoC5/Comp_1.h"
 682              		.file 9 "Generated_Source\\PSoC5/Comp_2.h"
 683              		.file 10 "Generated_Source\\PSoC5/Comp_3.h"
 684              		.file 11 "Generated_Source\\PSoC5/Timer_1.h"
 685              		.file 12 "Generated_Source\\PSoC5/PWM_1.h"
 686              		.file 13 "Generated_Source\\PSoC5/PWM_2.h"
 687              		.file 14 "Generated_Source\\PSoC5/Sout_L.h"
 688              		.file 15 "Generated_Source\\PSoC5/Sout_M1.h"
 689              		.file 16 "Generated_Source\\PSoC5/Sout_R.h"
 690              		.file 17 "Generated_Source\\PSoC5/QuadDec_M1.h"
 691              		.file 18 "Generated_Source\\PSoC5/isr_1.h"
 692              		.file 19 "Generated_Source\\PSoC5/Clock_PWM.h"
 693              		.file 20 "Generated_Source\\PSoC5/QuadDec_M2.h"