ARM GAS  C:\Users\npat025\AppData\Local\Temp\ccws0dnt.s 			page 1


   1              		.syntax unified
   2              		.cpu cortex-m3
   3              		.fpu softvfp
   4              		.eabi_attribute 20, 1
   5              		.eabi_attribute 21, 1
   6              		.eabi_attribute 23, 3
   7              		.eabi_attribute 24, 1
   8              		.eabi_attribute 25, 1
   9              		.eabi_attribute 26, 1
  10              		.eabi_attribute 30, 6
  11              		.eabi_attribute 34, 1
  12              		.eabi_attribute 18, 4
  13              		.thumb
  14              		.syntax unified
  15              		.file	"cyfitter_cfg.c"
  16              		.text
  17              	.Ltext0:
  18              		.cfi_sections	.debug_frame
  19              		.section	.text.CYMEMZERO,"ax",%progbits
  20              		.align	2
  21              		.thumb
  22              		.thumb_func
  23              		.type	CYMEMZERO, %function
  24              	CYMEMZERO:
  25              	.LFB0:
  26              		.file 1 "Generated_Source\\PSoC5\\cyfitter_cfg.c"
   1:Generated_Source\PSoC5/cyfitter_cfg.c **** 
   2:Generated_Source\PSoC5/cyfitter_cfg.c **** /*******************************************************************************
   3:Generated_Source\PSoC5/cyfitter_cfg.c **** * File Name: cyfitter_cfg.c
   4:Generated_Source\PSoC5/cyfitter_cfg.c **** * 
   5:Generated_Source\PSoC5/cyfitter_cfg.c **** * PSoC Creator  4.2
   6:Generated_Source\PSoC5/cyfitter_cfg.c **** *
   7:Generated_Source\PSoC5/cyfitter_cfg.c **** * Description:
   8:Generated_Source\PSoC5/cyfitter_cfg.c **** * This file contains device initialization code.
   9:Generated_Source\PSoC5/cyfitter_cfg.c **** * Except for the user defined sections in CyClockStartupError(), this file should not be modified.
  10:Generated_Source\PSoC5/cyfitter_cfg.c **** * This file is automatically generated by PSoC Creator.
  11:Generated_Source\PSoC5/cyfitter_cfg.c **** *
  12:Generated_Source\PSoC5/cyfitter_cfg.c **** ********************************************************************************
  13:Generated_Source\PSoC5/cyfitter_cfg.c **** * Copyright (c) 2007-2018 Cypress Semiconductor.  All rights reserved.
  14:Generated_Source\PSoC5/cyfitter_cfg.c **** * You may use this file only in accordance with the license, terms, conditions, 
  15:Generated_Source\PSoC5/cyfitter_cfg.c **** * disclaimers, and limitations in the end user license agreement accompanying 
  16:Generated_Source\PSoC5/cyfitter_cfg.c **** * the software package with which this file was provided.
  17:Generated_Source\PSoC5/cyfitter_cfg.c **** ********************************************************************************/
  18:Generated_Source\PSoC5/cyfitter_cfg.c **** 
  19:Generated_Source\PSoC5/cyfitter_cfg.c **** #include <string.h>
  20:Generated_Source\PSoC5/cyfitter_cfg.c **** #include "cytypes.h"
  21:Generated_Source\PSoC5/cyfitter_cfg.c **** #include "cydevice_trm.h"
  22:Generated_Source\PSoC5/cyfitter_cfg.c **** #include "cyfitter.h"
  23:Generated_Source\PSoC5/cyfitter_cfg.c **** #include "CyLib.h"
  24:Generated_Source\PSoC5/cyfitter_cfg.c **** #include "cyfitter_cfg.h"
  25:Generated_Source\PSoC5/cyfitter_cfg.c **** 
  26:Generated_Source\PSoC5/cyfitter_cfg.c **** #define CY_NEED_CYCLOCKSTARTUPERROR 1
  27:Generated_Source\PSoC5/cyfitter_cfg.c **** 
  28:Generated_Source\PSoC5/cyfitter_cfg.c **** 
  29:Generated_Source\PSoC5/cyfitter_cfg.c **** #if defined(__GNUC__) || defined(__ARMCC_VERSION)
  30:Generated_Source\PSoC5/cyfitter_cfg.c ****     #define CYPACKED 
  31:Generated_Source\PSoC5/cyfitter_cfg.c ****     #define CYPACKED_ATTR __attribute__ ((packed))
ARM GAS  C:\Users\npat025\AppData\Local\Temp\ccws0dnt.s 			page 2


  32:Generated_Source\PSoC5/cyfitter_cfg.c ****     #define CYALIGNED __attribute__ ((aligned))
  33:Generated_Source\PSoC5/cyfitter_cfg.c ****     #define CY_CFG_UNUSED __attribute__ ((unused))
  34:Generated_Source\PSoC5/cyfitter_cfg.c ****     #ifndef CY_CFG_SECTION
  35:Generated_Source\PSoC5/cyfitter_cfg.c ****         #define CY_CFG_SECTION __attribute__ ((section(".psocinit")))
  36:Generated_Source\PSoC5/cyfitter_cfg.c ****     #endif
  37:Generated_Source\PSoC5/cyfitter_cfg.c ****     
  38:Generated_Source\PSoC5/cyfitter_cfg.c ****     #if defined(__ARMCC_VERSION)
  39:Generated_Source\PSoC5/cyfitter_cfg.c ****         #define CY_CFG_MEMORY_BARRIER() __memory_changed()
  40:Generated_Source\PSoC5/cyfitter_cfg.c ****     #else
  41:Generated_Source\PSoC5/cyfitter_cfg.c ****         #define CY_CFG_MEMORY_BARRIER() __sync_synchronize()
  42:Generated_Source\PSoC5/cyfitter_cfg.c ****     #endif
  43:Generated_Source\PSoC5/cyfitter_cfg.c ****     
  44:Generated_Source\PSoC5/cyfitter_cfg.c **** #elif defined(__ICCARM__)
  45:Generated_Source\PSoC5/cyfitter_cfg.c ****     #include <intrinsics.h>
  46:Generated_Source\PSoC5/cyfitter_cfg.c **** 
  47:Generated_Source\PSoC5/cyfitter_cfg.c ****     #define CYPACKED __packed
  48:Generated_Source\PSoC5/cyfitter_cfg.c ****     #define CYPACKED_ATTR 
  49:Generated_Source\PSoC5/cyfitter_cfg.c ****     #define CYALIGNED _Pragma("data_alignment=4")
  50:Generated_Source\PSoC5/cyfitter_cfg.c ****     #define CY_CFG_UNUSED _Pragma("diag_suppress=Pe177")
  51:Generated_Source\PSoC5/cyfitter_cfg.c ****     #define CY_CFG_SECTION _Pragma("location=\".psocinit\"")
  52:Generated_Source\PSoC5/cyfitter_cfg.c ****     
  53:Generated_Source\PSoC5/cyfitter_cfg.c ****     #define CY_CFG_MEMORY_BARRIER() __DMB()
  54:Generated_Source\PSoC5/cyfitter_cfg.c ****     
  55:Generated_Source\PSoC5/cyfitter_cfg.c **** #else
  56:Generated_Source\PSoC5/cyfitter_cfg.c ****     #error Unsupported toolchain
  57:Generated_Source\PSoC5/cyfitter_cfg.c **** #endif
  58:Generated_Source\PSoC5/cyfitter_cfg.c **** 
  59:Generated_Source\PSoC5/cyfitter_cfg.c **** #ifndef CYCODE
  60:Generated_Source\PSoC5/cyfitter_cfg.c ****     #define CYCODE
  61:Generated_Source\PSoC5/cyfitter_cfg.c **** #endif
  62:Generated_Source\PSoC5/cyfitter_cfg.c **** #ifndef CYDATA
  63:Generated_Source\PSoC5/cyfitter_cfg.c ****     #define CYDATA
  64:Generated_Source\PSoC5/cyfitter_cfg.c **** #endif
  65:Generated_Source\PSoC5/cyfitter_cfg.c **** #ifndef CYFAR
  66:Generated_Source\PSoC5/cyfitter_cfg.c ****     #define CYFAR
  67:Generated_Source\PSoC5/cyfitter_cfg.c **** #endif
  68:Generated_Source\PSoC5/cyfitter_cfg.c **** #ifndef CYXDATA
  69:Generated_Source\PSoC5/cyfitter_cfg.c ****     #define CYXDATA
  70:Generated_Source\PSoC5/cyfitter_cfg.c **** #endif
  71:Generated_Source\PSoC5/cyfitter_cfg.c **** 
  72:Generated_Source\PSoC5/cyfitter_cfg.c **** 
  73:Generated_Source\PSoC5/cyfitter_cfg.c **** CY_CFG_UNUSED
  74:Generated_Source\PSoC5/cyfitter_cfg.c **** static void CYMEMZERO(void *s, size_t n);
  75:Generated_Source\PSoC5/cyfitter_cfg.c **** CY_CFG_UNUSED
  76:Generated_Source\PSoC5/cyfitter_cfg.c **** static void CYMEMZERO(void *s, size_t n)
  77:Generated_Source\PSoC5/cyfitter_cfg.c **** {
  27              		.loc 1 77 0
  28              		.cfi_startproc
  29              		@ args = 0, pretend = 0, frame = 8
  30              		@ frame_needed = 1, uses_anonymous_args = 0
  31 0000 80B5     		push	{r7, lr}
  32              		.cfi_def_cfa_offset 8
  33              		.cfi_offset 7, -8
  34              		.cfi_offset 14, -4
  35 0002 82B0     		sub	sp, sp, #8
  36              		.cfi_def_cfa_offset 16
  37 0004 00AF     		add	r7, sp, #0
ARM GAS  C:\Users\npat025\AppData\Local\Temp\ccws0dnt.s 			page 3


  38              		.cfi_def_cfa_register 7
  39 0006 7860     		str	r0, [r7, #4]
  40 0008 3960     		str	r1, [r7]
  78:Generated_Source\PSoC5/cyfitter_cfg.c **** 	(void)memset(s, 0, n);
  41              		.loc 1 78 0
  42 000a 3A68     		ldr	r2, [r7]
  43 000c 0021     		movs	r1, #0
  44 000e 7868     		ldr	r0, [r7, #4]
  45 0010 FFF7FEFF 		bl	memset
  79:Generated_Source\PSoC5/cyfitter_cfg.c **** }
  46              		.loc 1 79 0
  47 0014 00BF     		nop
  48 0016 0837     		adds	r7, r7, #8
  49              		.cfi_def_cfa_offset 8
  50 0018 BD46     		mov	sp, r7
  51              		.cfi_def_cfa_register 13
  52              		@ sp needed
  53 001a 80BD     		pop	{r7, pc}
  54              		.cfi_endproc
  55              	.LFE0:
  56              		.size	CYMEMZERO, .-CYMEMZERO
  57              		.section	.text.CYCONFIGCPY,"ax",%progbits
  58              		.align	2
  59              		.thumb
  60              		.thumb_func
  61              		.type	CYCONFIGCPY, %function
  62              	CYCONFIGCPY:
  63              	.LFB1:
  80:Generated_Source\PSoC5/cyfitter_cfg.c **** CY_CFG_UNUSED
  81:Generated_Source\PSoC5/cyfitter_cfg.c **** static void CYCONFIGCPY(void *dest, const void *src, size_t n);
  82:Generated_Source\PSoC5/cyfitter_cfg.c **** CY_CFG_UNUSED
  83:Generated_Source\PSoC5/cyfitter_cfg.c **** static void CYCONFIGCPY(void *dest, const void *src, size_t n)
  84:Generated_Source\PSoC5/cyfitter_cfg.c **** {
  64              		.loc 1 84 0
  65              		.cfi_startproc
  66              		@ args = 0, pretend = 0, frame = 16
  67              		@ frame_needed = 1, uses_anonymous_args = 0
  68 0000 80B5     		push	{r7, lr}
  69              		.cfi_def_cfa_offset 8
  70              		.cfi_offset 7, -8
  71              		.cfi_offset 14, -4
  72 0002 84B0     		sub	sp, sp, #16
  73              		.cfi_def_cfa_offset 24
  74 0004 00AF     		add	r7, sp, #0
  75              		.cfi_def_cfa_register 7
  76 0006 F860     		str	r0, [r7, #12]
  77 0008 B960     		str	r1, [r7, #8]
  78 000a 7A60     		str	r2, [r7, #4]
  85:Generated_Source\PSoC5/cyfitter_cfg.c **** 	(void)memcpy(dest, src, n);
  79              		.loc 1 85 0
  80 000c 7A68     		ldr	r2, [r7, #4]
  81 000e B968     		ldr	r1, [r7, #8]
  82 0010 F868     		ldr	r0, [r7, #12]
  83 0012 FFF7FEFF 		bl	memcpy
  86:Generated_Source\PSoC5/cyfitter_cfg.c **** }
  84              		.loc 1 86 0
  85 0016 00BF     		nop
ARM GAS  C:\Users\npat025\AppData\Local\Temp\ccws0dnt.s 			page 4


  86 0018 1037     		adds	r7, r7, #16
  87              		.cfi_def_cfa_offset 8
  88 001a BD46     		mov	sp, r7
  89              		.cfi_def_cfa_register 13
  90              		@ sp needed
  91 001c 80BD     		pop	{r7, pc}
  92              		.cfi_endproc
  93              	.LFE1:
  94              		.size	CYCONFIGCPY, .-CYCONFIGCPY
  95 001e 00BF     		.section	.text.CYCONFIGCPYCODE,"ax",%progbits
  96              		.align	2
  97              		.thumb
  98              		.thumb_func
  99              		.type	CYCONFIGCPYCODE, %function
 100              	CYCONFIGCPYCODE:
 101              	.LFB2:
  87:Generated_Source\PSoC5/cyfitter_cfg.c **** CY_CFG_UNUSED
  88:Generated_Source\PSoC5/cyfitter_cfg.c **** static void CYCONFIGCPYCODE(void *dest, const void *src, size_t n);
  89:Generated_Source\PSoC5/cyfitter_cfg.c **** CY_CFG_UNUSED
  90:Generated_Source\PSoC5/cyfitter_cfg.c **** static void CYCONFIGCPYCODE(void *dest, const void *src, size_t n)
  91:Generated_Source\PSoC5/cyfitter_cfg.c **** {
 102              		.loc 1 91 0
 103              		.cfi_startproc
 104              		@ args = 0, pretend = 0, frame = 16
 105              		@ frame_needed = 1, uses_anonymous_args = 0
 106 0000 80B5     		push	{r7, lr}
 107              		.cfi_def_cfa_offset 8
 108              		.cfi_offset 7, -8
 109              		.cfi_offset 14, -4
 110 0002 84B0     		sub	sp, sp, #16
 111              		.cfi_def_cfa_offset 24
 112 0004 00AF     		add	r7, sp, #0
 113              		.cfi_def_cfa_register 7
 114 0006 F860     		str	r0, [r7, #12]
 115 0008 B960     		str	r1, [r7, #8]
 116 000a 7A60     		str	r2, [r7, #4]
  92:Generated_Source\PSoC5/cyfitter_cfg.c **** 	(void)memcpy(dest, src, n);
 117              		.loc 1 92 0
 118 000c 7A68     		ldr	r2, [r7, #4]
 119 000e B968     		ldr	r1, [r7, #8]
 120 0010 F868     		ldr	r0, [r7, #12]
 121 0012 FFF7FEFF 		bl	memcpy
  93:Generated_Source\PSoC5/cyfitter_cfg.c **** }
 122              		.loc 1 93 0
 123 0016 00BF     		nop
 124 0018 1037     		adds	r7, r7, #16
 125              		.cfi_def_cfa_offset 8
 126 001a BD46     		mov	sp, r7
 127              		.cfi_def_cfa_register 13
 128              		@ sp needed
 129 001c 80BD     		pop	{r7, pc}
 130              		.cfi_endproc
 131              	.LFE2:
 132              		.size	CYCONFIGCPYCODE, .-CYCONFIGCPYCODE
 133 001e 00BF     		.section	.text.CyClockStartupError,"ax",%progbits
 134              		.align	2
 135              		.thumb
ARM GAS  C:\Users\npat025\AppData\Local\Temp\ccws0dnt.s 			page 5


 136              		.thumb_func
 137              		.type	CyClockStartupError, %function
 138              	CyClockStartupError:
 139              	.LFB3:
  94:Generated_Source\PSoC5/cyfitter_cfg.c **** 
  95:Generated_Source\PSoC5/cyfitter_cfg.c **** 
  96:Generated_Source\PSoC5/cyfitter_cfg.c **** 
  97:Generated_Source\PSoC5/cyfitter_cfg.c **** 
  98:Generated_Source\PSoC5/cyfitter_cfg.c **** /* Clock startup error codes                                                   */
  99:Generated_Source\PSoC5/cyfitter_cfg.c **** #define CYCLOCKSTART_NO_ERROR    0u
 100:Generated_Source\PSoC5/cyfitter_cfg.c **** #define CYCLOCKSTART_XTAL_ERROR  1u
 101:Generated_Source\PSoC5/cyfitter_cfg.c **** #define CYCLOCKSTART_32KHZ_ERROR 2u
 102:Generated_Source\PSoC5/cyfitter_cfg.c **** #define CYCLOCKSTART_PLL_ERROR   3u
 103:Generated_Source\PSoC5/cyfitter_cfg.c **** #define CYCLOCKSTART_FLL_ERROR   4u
 104:Generated_Source\PSoC5/cyfitter_cfg.c **** #define CYCLOCKSTART_WCO_ERROR   5u
 105:Generated_Source\PSoC5/cyfitter_cfg.c **** 
 106:Generated_Source\PSoC5/cyfitter_cfg.c **** 
 107:Generated_Source\PSoC5/cyfitter_cfg.c **** #ifdef CY_NEED_CYCLOCKSTARTUPERROR
 108:Generated_Source\PSoC5/cyfitter_cfg.c **** /*******************************************************************************
 109:Generated_Source\PSoC5/cyfitter_cfg.c **** * Function Name: CyClockStartupError
 110:Generated_Source\PSoC5/cyfitter_cfg.c **** ********************************************************************************
 111:Generated_Source\PSoC5/cyfitter_cfg.c **** * Summary:
 112:Generated_Source\PSoC5/cyfitter_cfg.c **** *  If an error is encountered during clock configuration (crystal startup error,
 113:Generated_Source\PSoC5/cyfitter_cfg.c **** *  PLL lock error, etc.), the system will end up here.  Unless reimplemented by
 114:Generated_Source\PSoC5/cyfitter_cfg.c **** *  the customer, this function will stop in an infinite loop.
 115:Generated_Source\PSoC5/cyfitter_cfg.c **** *
 116:Generated_Source\PSoC5/cyfitter_cfg.c **** * Parameters:
 117:Generated_Source\PSoC5/cyfitter_cfg.c **** *   void
 118:Generated_Source\PSoC5/cyfitter_cfg.c **** *
 119:Generated_Source\PSoC5/cyfitter_cfg.c **** * Return:
 120:Generated_Source\PSoC5/cyfitter_cfg.c **** *   void
 121:Generated_Source\PSoC5/cyfitter_cfg.c **** *
 122:Generated_Source\PSoC5/cyfitter_cfg.c **** *******************************************************************************/
 123:Generated_Source\PSoC5/cyfitter_cfg.c **** CY_CFG_UNUSED
 124:Generated_Source\PSoC5/cyfitter_cfg.c **** static void CyClockStartupError(uint8 errorCode);
 125:Generated_Source\PSoC5/cyfitter_cfg.c **** CY_CFG_UNUSED
 126:Generated_Source\PSoC5/cyfitter_cfg.c **** static void CyClockStartupError(uint8 errorCode)
 127:Generated_Source\PSoC5/cyfitter_cfg.c **** {
 140              		.loc 1 127 0
 141              		.cfi_startproc
 142              		@ args = 0, pretend = 0, frame = 8
 143              		@ frame_needed = 1, uses_anonymous_args = 0
 144              		@ link register save eliminated.
 145 0000 80B4     		push	{r7}
 146              		.cfi_def_cfa_offset 4
 147              		.cfi_offset 7, -4
 148 0002 83B0     		sub	sp, sp, #12
 149              		.cfi_def_cfa_offset 16
 150 0004 00AF     		add	r7, sp, #0
 151              		.cfi_def_cfa_register 7
 152 0006 0346     		mov	r3, r0
 153 0008 FB71     		strb	r3, [r7, #7]
 154              	.L5:
 128:Generated_Source\PSoC5/cyfitter_cfg.c ****     /* To remove the compiler warning if errorCode not used.                */
 129:Generated_Source\PSoC5/cyfitter_cfg.c ****     errorCode = errorCode;
 130:Generated_Source\PSoC5/cyfitter_cfg.c **** 
 131:Generated_Source\PSoC5/cyfitter_cfg.c ****     /* If we have a clock startup error (bad MHz crystal, PLL lock, etc.),  */
ARM GAS  C:\Users\npat025\AppData\Local\Temp\ccws0dnt.s 			page 6


 132:Generated_Source\PSoC5/cyfitter_cfg.c ****     /* we will end up here to allow the customer to implement something to  */
 133:Generated_Source\PSoC5/cyfitter_cfg.c ****     /* deal with the clock condition.                                       */
 134:Generated_Source\PSoC5/cyfitter_cfg.c **** 
 135:Generated_Source\PSoC5/cyfitter_cfg.c **** #ifdef CY_CFG_CLOCK_STARTUP_ERROR_CALLBACK
 136:Generated_Source\PSoC5/cyfitter_cfg.c ****     CY_CFG_Clock_Startup_ErrorCallback();
 137:Generated_Source\PSoC5/cyfitter_cfg.c **** #else
 138:Generated_Source\PSoC5/cyfitter_cfg.c ****     /*  If not using CY_CFG_CLOCK_STARTUP_ERROR_CALLBACK, place your clock startup code here. */
 139:Generated_Source\PSoC5/cyfitter_cfg.c ****     /* `#START CyClockStartupError` */
 140:Generated_Source\PSoC5/cyfitter_cfg.c **** 
 141:Generated_Source\PSoC5/cyfitter_cfg.c ****     /* If we have a clock startup error (bad MHz crystal, PLL lock, etc.),  */
 142:Generated_Source\PSoC5/cyfitter_cfg.c ****     /* we will end up here to allow the customer to implement something to  */
 143:Generated_Source\PSoC5/cyfitter_cfg.c ****     /* deal with the clock condition.                                       */
 144:Generated_Source\PSoC5/cyfitter_cfg.c **** 
 145:Generated_Source\PSoC5/cyfitter_cfg.c ****     /* `#END` */
 146:Generated_Source\PSoC5/cyfitter_cfg.c **** 
 147:Generated_Source\PSoC5/cyfitter_cfg.c ****     while(1) {}
 155              		.loc 1 147 0 discriminator 1
 156 000a FEE7     		b	.L5
 157              		.cfi_endproc
 158              	.LFE3:
 159              		.size	CyClockStartupError, .-CyClockStartupError
 160              		.section	.text.cfg_write_bytes32,"ax",%progbits
 161              		.align	2
 162              		.thumb
 163              		.thumb_func
 164              		.type	cfg_write_bytes32, %function
 165              	cfg_write_bytes32:
 166              	.LFB4:
 148:Generated_Source\PSoC5/cyfitter_cfg.c **** #endif /* CY_CFG_CLOCK_STARTUP_ERROR_CALLBACK */
 149:Generated_Source\PSoC5/cyfitter_cfg.c **** }
 150:Generated_Source\PSoC5/cyfitter_cfg.c **** #endif
 151:Generated_Source\PSoC5/cyfitter_cfg.c **** 
 152:Generated_Source\PSoC5/cyfitter_cfg.c **** #define CY_CFG_BASE_ADDR_COUNT 44u
 153:Generated_Source\PSoC5/cyfitter_cfg.c **** CYPACKED typedef struct
 154:Generated_Source\PSoC5/cyfitter_cfg.c **** {
 155:Generated_Source\PSoC5/cyfitter_cfg.c **** 	uint8 offset;
 156:Generated_Source\PSoC5/cyfitter_cfg.c **** 	uint8 value;
 157:Generated_Source\PSoC5/cyfitter_cfg.c **** } CYPACKED_ATTR cy_cfg_addrvalue_t;
 158:Generated_Source\PSoC5/cyfitter_cfg.c **** 
 159:Generated_Source\PSoC5/cyfitter_cfg.c **** #define cy_cfg_addr_table ((const uint32 CYFAR *)0x48000000u)
 160:Generated_Source\PSoC5/cyfitter_cfg.c **** #define cy_cfg_data_table ((const cy_cfg_addrvalue_t CYFAR *)0x480000B0u)
 161:Generated_Source\PSoC5/cyfitter_cfg.c **** 
 162:Generated_Source\PSoC5/cyfitter_cfg.c **** /* UCFG_BCTL0 Address: CYREG_BCTL0_MDCLK_EN Size (bytes): 16 */
 163:Generated_Source\PSoC5/cyfitter_cfg.c **** #define BS_UCFG_BCTL0_VAL ((const uint8 CYFAR *)0x48000F98u)
 164:Generated_Source\PSoC5/cyfitter_cfg.c **** 
 165:Generated_Source\PSoC5/cyfitter_cfg.c **** /* IOPINS0_0 Address: CYREG_PRT0_DM0 Size (bytes): 8 */
 166:Generated_Source\PSoC5/cyfitter_cfg.c **** #define BS_IOPINS0_0_VAL ((const uint8 CYFAR *)0x48000FA8u)
 167:Generated_Source\PSoC5/cyfitter_cfg.c **** 
 168:Generated_Source\PSoC5/cyfitter_cfg.c **** /* IOPINS0_7 Address: CYREG_PRT12_DM0 Size (bytes): 8 */
 169:Generated_Source\PSoC5/cyfitter_cfg.c **** #define BS_IOPINS0_7_VAL ((const uint8 CYFAR *)0x48000FB0u)
 170:Generated_Source\PSoC5/cyfitter_cfg.c **** 
 171:Generated_Source\PSoC5/cyfitter_cfg.c **** /* IOPINS0_8 Address: CYREG_PRT15_DR Size (bytes): 10 */
 172:Generated_Source\PSoC5/cyfitter_cfg.c **** #define BS_IOPINS0_8_VAL ((const uint8 CYFAR *)0x48000FB8u)
 173:Generated_Source\PSoC5/cyfitter_cfg.c **** 
 174:Generated_Source\PSoC5/cyfitter_cfg.c **** /* IOPINS0_1 Address: CYREG_PRT1_DM0 Size (bytes): 8 */
 175:Generated_Source\PSoC5/cyfitter_cfg.c **** #define BS_IOPINS0_1_VAL ((const uint8 CYFAR *)0x48000FC4u)
 176:Generated_Source\PSoC5/cyfitter_cfg.c **** 
ARM GAS  C:\Users\npat025\AppData\Local\Temp\ccws0dnt.s 			page 7


 177:Generated_Source\PSoC5/cyfitter_cfg.c **** /* IOPINS0_2 Address: CYREG_PRT2_DR Size (bytes): 10 */
 178:Generated_Source\PSoC5/cyfitter_cfg.c **** #define BS_IOPINS0_2_VAL ((const uint8 CYFAR *)0x48000FCCu)
 179:Generated_Source\PSoC5/cyfitter_cfg.c **** 
 180:Generated_Source\PSoC5/cyfitter_cfg.c **** /* IOPINS0_3 Address: CYREG_PRT3_DM0 Size (bytes): 8 */
 181:Generated_Source\PSoC5/cyfitter_cfg.c **** #define BS_IOPINS0_3_VAL ((const uint8 CYFAR *)0x48000FD8u)
 182:Generated_Source\PSoC5/cyfitter_cfg.c **** 
 183:Generated_Source\PSoC5/cyfitter_cfg.c **** /* PHUB_CFGMEM1 Address: CYREG_PHUB_CFGMEM1_CFG0 Size (bytes): 4 */
 184:Generated_Source\PSoC5/cyfitter_cfg.c **** #define BS_PHUB_CFGMEM1_VAL ((const uint8 CYFAR *)0x48000FE0u)
 185:Generated_Source\PSoC5/cyfitter_cfg.c **** 
 186:Generated_Source\PSoC5/cyfitter_cfg.c **** 
 187:Generated_Source\PSoC5/cyfitter_cfg.c **** /*******************************************************************************
 188:Generated_Source\PSoC5/cyfitter_cfg.c **** * Function Name: cfg_write_bytes32
 189:Generated_Source\PSoC5/cyfitter_cfg.c **** ********************************************************************************
 190:Generated_Source\PSoC5/cyfitter_cfg.c **** * Summary:
 191:Generated_Source\PSoC5/cyfitter_cfg.c **** *  This function is used for setting up the chip configuration areas that
 192:Generated_Source\PSoC5/cyfitter_cfg.c **** *  contain relatively sparse data.
 193:Generated_Source\PSoC5/cyfitter_cfg.c **** *
 194:Generated_Source\PSoC5/cyfitter_cfg.c **** * Parameters:
 195:Generated_Source\PSoC5/cyfitter_cfg.c **** *   void
 196:Generated_Source\PSoC5/cyfitter_cfg.c **** *
 197:Generated_Source\PSoC5/cyfitter_cfg.c **** * Return:
 198:Generated_Source\PSoC5/cyfitter_cfg.c **** *   void
 199:Generated_Source\PSoC5/cyfitter_cfg.c **** *
 200:Generated_Source\PSoC5/cyfitter_cfg.c **** *******************************************************************************/
 201:Generated_Source\PSoC5/cyfitter_cfg.c **** static void cfg_write_bytes32(const uint32 addr_table[], const cy_cfg_addrvalue_t data_table[]);
 202:Generated_Source\PSoC5/cyfitter_cfg.c **** static void cfg_write_bytes32(const uint32 addr_table[], const cy_cfg_addrvalue_t data_table[])
 203:Generated_Source\PSoC5/cyfitter_cfg.c **** {
 167              		.loc 1 203 0
 168              		.cfi_startproc
 169              		@ args = 0, pretend = 0, frame = 24
 170              		@ frame_needed = 1, uses_anonymous_args = 0
 171              		@ link register save eliminated.
 172 0000 80B4     		push	{r7}
 173              		.cfi_def_cfa_offset 4
 174              		.cfi_offset 7, -4
 175 0002 87B0     		sub	sp, sp, #28
 176              		.cfi_def_cfa_offset 32
 177 0004 00AF     		add	r7, sp, #0
 178              		.cfi_def_cfa_register 7
 179 0006 7860     		str	r0, [r7, #4]
 180 0008 3960     		str	r1, [r7]
 204:Generated_Source\PSoC5/cyfitter_cfg.c **** 	/* For 32-bit little-endian architectures */
 205:Generated_Source\PSoC5/cyfitter_cfg.c **** 	uint32 i, j = 0u;
 181              		.loc 1 205 0
 182 000a 0023     		movs	r3, #0
 183 000c 3B61     		str	r3, [r7, #16]
 206:Generated_Source\PSoC5/cyfitter_cfg.c **** 	for (i = 0u; i < CY_CFG_BASE_ADDR_COUNT; i++)
 184              		.loc 1 206 0
 185 000e 0023     		movs	r3, #0
 186 0010 7B61     		str	r3, [r7, #20]
 187 0012 27E0     		b	.L7
 188              	.L10:
 189              	.LBB2:
 207:Generated_Source\PSoC5/cyfitter_cfg.c **** 	{
 208:Generated_Source\PSoC5/cyfitter_cfg.c **** 		uint32 baseAddr = addr_table[i];
 190              		.loc 1 208 0
 191 0014 7B69     		ldr	r3, [r7, #20]
ARM GAS  C:\Users\npat025\AppData\Local\Temp\ccws0dnt.s 			page 8


 192 0016 9B00     		lsls	r3, r3, #2
 193 0018 7A68     		ldr	r2, [r7, #4]
 194 001a 1344     		add	r3, r3, r2
 195 001c 1B68     		ldr	r3, [r3]
 196 001e BB60     		str	r3, [r7, #8]
 209:Generated_Source\PSoC5/cyfitter_cfg.c **** 		uint8 count = (uint8)baseAddr;
 197              		.loc 1 209 0
 198 0020 BB68     		ldr	r3, [r7, #8]
 199 0022 FB73     		strb	r3, [r7, #15]
 210:Generated_Source\PSoC5/cyfitter_cfg.c **** 		baseAddr &= 0xFFFFFF00u;
 200              		.loc 1 210 0
 201 0024 BB68     		ldr	r3, [r7, #8]
 202 0026 23F0FF03 		bic	r3, r3, #255
 203 002a BB60     		str	r3, [r7, #8]
 211:Generated_Source\PSoC5/cyfitter_cfg.c **** 		while (count != 0u)
 204              		.loc 1 211 0
 205 002c 14E0     		b	.L8
 206              	.L9:
 212:Generated_Source\PSoC5/cyfitter_cfg.c **** 		{
 213:Generated_Source\PSoC5/cyfitter_cfg.c **** 			CY_SET_REG8((void *)(baseAddr + data_table[j].offset), data_table[j].value);
 207              		.loc 1 213 0
 208 002e 3B69     		ldr	r3, [r7, #16]
 209 0030 5B00     		lsls	r3, r3, #1
 210 0032 3A68     		ldr	r2, [r7]
 211 0034 1344     		add	r3, r3, r2
 212 0036 1B78     		ldrb	r3, [r3]	@ zero_extendqisi2
 213 0038 1A46     		mov	r2, r3
 214 003a BB68     		ldr	r3, [r7, #8]
 215 003c 1344     		add	r3, r3, r2
 216 003e 1946     		mov	r1, r3
 217 0040 3B69     		ldr	r3, [r7, #16]
 218 0042 5B00     		lsls	r3, r3, #1
 219 0044 3A68     		ldr	r2, [r7]
 220 0046 1344     		add	r3, r3, r2
 221 0048 5B78     		ldrb	r3, [r3, #1]	@ zero_extendqisi2
 222 004a 0B70     		strb	r3, [r1]
 214:Generated_Source\PSoC5/cyfitter_cfg.c **** 			j++;
 223              		.loc 1 214 0
 224 004c 3B69     		ldr	r3, [r7, #16]
 225 004e 0133     		adds	r3, r3, #1
 226 0050 3B61     		str	r3, [r7, #16]
 215:Generated_Source\PSoC5/cyfitter_cfg.c **** 			count--;
 227              		.loc 1 215 0
 228 0052 FB7B     		ldrb	r3, [r7, #15]	@ zero_extendqisi2
 229 0054 013B     		subs	r3, r3, #1
 230 0056 FB73     		strb	r3, [r7, #15]
 231              	.L8:
 211:Generated_Source\PSoC5/cyfitter_cfg.c **** 		{
 232              		.loc 1 211 0
 233 0058 FB7B     		ldrb	r3, [r7, #15]	@ zero_extendqisi2
 234 005a 002B     		cmp	r3, #0
 235 005c E7D1     		bne	.L9
 236              	.LBE2:
 206:Generated_Source\PSoC5/cyfitter_cfg.c **** 	{
 237              		.loc 1 206 0 discriminator 2
 238 005e 7B69     		ldr	r3, [r7, #20]
 239 0060 0133     		adds	r3, r3, #1
ARM GAS  C:\Users\npat025\AppData\Local\Temp\ccws0dnt.s 			page 9


 240 0062 7B61     		str	r3, [r7, #20]
 241              	.L7:
 206:Generated_Source\PSoC5/cyfitter_cfg.c **** 	{
 242              		.loc 1 206 0 is_stmt 0 discriminator 1
 243 0064 7B69     		ldr	r3, [r7, #20]
 244 0066 2B2B     		cmp	r3, #43
 245 0068 D4D9     		bls	.L10
 216:Generated_Source\PSoC5/cyfitter_cfg.c **** 		}
 217:Generated_Source\PSoC5/cyfitter_cfg.c **** 	}
 218:Generated_Source\PSoC5/cyfitter_cfg.c **** }
 246              		.loc 1 218 0 is_stmt 1
 247 006a 00BF     		nop
 248 006c 1C37     		adds	r7, r7, #28
 249              		.cfi_def_cfa_offset 4
 250 006e BD46     		mov	sp, r7
 251              		.cfi_def_cfa_register 13
 252              		@ sp needed
 253 0070 80BC     		pop	{r7}
 254              		.cfi_restore 7
 255              		.cfi_def_cfa_offset 0
 256 0072 7047     		bx	lr
 257              		.cfi_endproc
 258              	.LFE4:
 259              		.size	cfg_write_bytes32, .-cfg_write_bytes32
 260              		.section	.text.ClockSetup,"ax",%progbits
 261              		.align	2
 262              		.thumb
 263              		.thumb_func
 264              		.type	ClockSetup, %function
 265              	ClockSetup:
 266              	.LFB5:
 219:Generated_Source\PSoC5/cyfitter_cfg.c **** 
 220:Generated_Source\PSoC5/cyfitter_cfg.c **** /*******************************************************************************
 221:Generated_Source\PSoC5/cyfitter_cfg.c **** * Function Name: ClockSetup
 222:Generated_Source\PSoC5/cyfitter_cfg.c **** ********************************************************************************
 223:Generated_Source\PSoC5/cyfitter_cfg.c **** *
 224:Generated_Source\PSoC5/cyfitter_cfg.c **** * Summary:
 225:Generated_Source\PSoC5/cyfitter_cfg.c **** *  Performs the initialization of all of the clocks in the device based on the
 226:Generated_Source\PSoC5/cyfitter_cfg.c **** *  settings in the Clock tab of the DWR.  This includes enabling the requested
 227:Generated_Source\PSoC5/cyfitter_cfg.c **** *  clocks and setting the necessary dividers to produce the desired frequency. 
 228:Generated_Source\PSoC5/cyfitter_cfg.c **** *
 229:Generated_Source\PSoC5/cyfitter_cfg.c **** * Parameters:
 230:Generated_Source\PSoC5/cyfitter_cfg.c **** *  void
 231:Generated_Source\PSoC5/cyfitter_cfg.c **** *
 232:Generated_Source\PSoC5/cyfitter_cfg.c **** * Return:
 233:Generated_Source\PSoC5/cyfitter_cfg.c **** *  void
 234:Generated_Source\PSoC5/cyfitter_cfg.c **** *
 235:Generated_Source\PSoC5/cyfitter_cfg.c **** *******************************************************************************/
 236:Generated_Source\PSoC5/cyfitter_cfg.c **** static void ClockSetup(void);
 237:Generated_Source\PSoC5/cyfitter_cfg.c **** static void ClockSetup(void)
 238:Generated_Source\PSoC5/cyfitter_cfg.c **** {
 267              		.loc 1 238 0
 268              		.cfi_startproc
 269              		@ args = 0, pretend = 0, frame = 8
 270              		@ frame_needed = 1, uses_anonymous_args = 0
 271 0000 80B5     		push	{r7, lr}
 272              		.cfi_def_cfa_offset 8
ARM GAS  C:\Users\npat025\AppData\Local\Temp\ccws0dnt.s 			page 10


 273              		.cfi_offset 7, -8
 274              		.cfi_offset 14, -4
 275 0002 82B0     		sub	sp, sp, #8
 276              		.cfi_def_cfa_offset 16
 277 0004 00AF     		add	r7, sp, #0
 278              		.cfi_def_cfa_register 7
 239:Generated_Source\PSoC5/cyfitter_cfg.c **** 	uint32 timeout;
 240:Generated_Source\PSoC5/cyfitter_cfg.c **** 	uint8 pllLock;
 241:Generated_Source\PSoC5/cyfitter_cfg.c **** 
 242:Generated_Source\PSoC5/cyfitter_cfg.c **** 
 243:Generated_Source\PSoC5/cyfitter_cfg.c **** 	/* Configure Digital Clocks based on settings from Clock DWR */
 244:Generated_Source\PSoC5/cyfitter_cfg.c **** 	CY_SET_XTND_REG16((void CYFAR *)(CYREG_CLKDIST_DCFG0_CFG0), 0x0004u);
 279              		.loc 1 244 0
 280 0006 3C4B     		ldr	r3, .L16
 281 0008 0422     		movs	r2, #4
 282 000a 1A80     		strh	r2, [r3]	@ movhi
 245:Generated_Source\PSoC5/cyfitter_cfg.c **** 	CY_SET_XTND_REG8((void CYFAR *)(CYREG_CLKDIST_DCFG0_CFG0 + 0x2u), 0x18u);
 283              		.loc 1 245 0
 284 000c 3B4B     		ldr	r3, .L16+4
 285 000e 1822     		movs	r2, #24
 286 0010 1A70     		strb	r2, [r3]
 246:Generated_Source\PSoC5/cyfitter_cfg.c **** 	CY_SET_XTND_REG16((void CYFAR *)(CYREG_CLKDIST_DCFG1_CFG0), 0x003Au);
 287              		.loc 1 246 0
 288 0012 3B4B     		ldr	r3, .L16+8
 289 0014 3A22     		movs	r2, #58
 290 0016 1A80     		strh	r2, [r3]	@ movhi
 247:Generated_Source\PSoC5/cyfitter_cfg.c **** 	CY_SET_XTND_REG8((void CYFAR *)(CYREG_CLKDIST_DCFG1_CFG0 + 0x2u), 0x18u);
 291              		.loc 1 247 0
 292 0018 3A4B     		ldr	r3, .L16+12
 293 001a 1822     		movs	r2, #24
 294 001c 1A70     		strb	r2, [r3]
 248:Generated_Source\PSoC5/cyfitter_cfg.c **** 	CY_SET_XTND_REG16((void CYFAR *)(CYREG_CLKDIST_DCFG2_CFG0), 0x003Bu);
 295              		.loc 1 248 0
 296 001e 3A4B     		ldr	r3, .L16+16
 297 0020 3B22     		movs	r2, #59
 298 0022 1A80     		strh	r2, [r3]	@ movhi
 249:Generated_Source\PSoC5/cyfitter_cfg.c **** 	CY_SET_XTND_REG8((void CYFAR *)(CYREG_CLKDIST_DCFG2_CFG0 + 0x2u), 0x18u);
 299              		.loc 1 249 0
 300 0024 394B     		ldr	r3, .L16+20
 301 0026 1822     		movs	r2, #24
 302 0028 1A70     		strb	r2, [r3]
 250:Generated_Source\PSoC5/cyfitter_cfg.c **** 	CY_SET_XTND_REG16((void CYFAR *)(CYREG_CLKDIST_DCFG3_CFG0), 0x0081u);
 303              		.loc 1 250 0
 304 002a 394B     		ldr	r3, .L16+24
 305 002c 8122     		movs	r2, #129
 306 002e 1A80     		strh	r2, [r3]	@ movhi
 251:Generated_Source\PSoC5/cyfitter_cfg.c **** 	CY_SET_XTND_REG8((void CYFAR *)(CYREG_CLKDIST_DCFG3_CFG0 + 0x2u), 0x18u);
 307              		.loc 1 251 0
 308 0030 384B     		ldr	r3, .L16+28
 309 0032 1822     		movs	r2, #24
 310 0034 1A70     		strb	r2, [r3]
 252:Generated_Source\PSoC5/cyfitter_cfg.c **** 	CY_SET_XTND_REG16((void CYFAR *)(CYREG_CLKDIST_DCFG4_CFG0), 0x0000u);
 311              		.loc 1 252 0
 312 0036 384B     		ldr	r3, .L16+32
 313 0038 0022     		movs	r2, #0
 314 003a 1A80     		strh	r2, [r3]	@ movhi
 253:Generated_Source\PSoC5/cyfitter_cfg.c **** 	CY_SET_XTND_REG8((void CYFAR *)(CYREG_CLKDIST_DCFG4_CFG0 + 0x2u), 0x1Bu);
ARM GAS  C:\Users\npat025\AppData\Local\Temp\ccws0dnt.s 			page 11


 315              		.loc 1 253 0
 316 003c 374B     		ldr	r3, .L16+36
 317 003e 1B22     		movs	r2, #27
 318 0040 1A70     		strb	r2, [r3]
 254:Generated_Source\PSoC5/cyfitter_cfg.c **** 
 255:Generated_Source\PSoC5/cyfitter_cfg.c **** 	/* Configure ILO based on settings from Clock DWR */
 256:Generated_Source\PSoC5/cyfitter_cfg.c **** 	CY_SET_XTND_REG8((void CYFAR *)(CYREG_SLOWCLK_ILO_CR0), 0x06u);
 319              		.loc 1 256 0
 320 0042 374B     		ldr	r3, .L16+40
 321 0044 0622     		movs	r2, #6
 322 0046 1A70     		strb	r2, [r3]
 257:Generated_Source\PSoC5/cyfitter_cfg.c **** 
 258:Generated_Source\PSoC5/cyfitter_cfg.c **** 	/* Configure IMO based on settings from Clock DWR */
 259:Generated_Source\PSoC5/cyfitter_cfg.c **** 	CY_SET_XTND_REG8((void CYFAR *)(CYREG_FASTCLK_IMO_CR), 0x52u);
 323              		.loc 1 259 0
 324 0048 364B     		ldr	r3, .L16+44
 325 004a 5222     		movs	r2, #82
 326 004c 1A70     		strb	r2, [r3]
 260:Generated_Source\PSoC5/cyfitter_cfg.c **** 	CY_SET_XTND_REG8((void CYFAR *)(CYREG_IMO_TR1), (CY_GET_XTND_REG8((void CYFAR *)CYREG_FLSHID_CUST_
 327              		.loc 1 260 0
 328 004e 364B     		ldr	r3, .L16+48
 329 0050 364A     		ldr	r2, .L16+52
 330 0052 1278     		ldrb	r2, [r2]
 331 0054 D2B2     		uxtb	r2, r2
 332 0056 1A70     		strb	r2, [r3]
 261:Generated_Source\PSoC5/cyfitter_cfg.c **** 
 262:Generated_Source\PSoC5/cyfitter_cfg.c **** 	/* Configure PLL based on settings from Clock DWR */
 263:Generated_Source\PSoC5/cyfitter_cfg.c **** 	CY_SET_XTND_REG16((void CYFAR *)(CYREG_FASTCLK_PLL_P), 0x0919u);
 333              		.loc 1 263 0
 334 0058 354B     		ldr	r3, .L16+56
 335 005a 40F61912 		movw	r2, #2329
 336 005e 1A80     		strh	r2, [r3]	@ movhi
 264:Generated_Source\PSoC5/cyfitter_cfg.c **** 	CY_SET_XTND_REG16((void CYFAR *)(CYREG_FASTCLK_PLL_CFG0), 0x1251u);
 337              		.loc 1 264 0
 338 0060 344B     		ldr	r3, .L16+60
 339 0062 41F25122 		movw	r2, #4689
 340 0066 1A80     		strh	r2, [r3]	@ movhi
 265:Generated_Source\PSoC5/cyfitter_cfg.c **** 	/* Wait up to 250us for the PLL to lock */
 266:Generated_Source\PSoC5/cyfitter_cfg.c **** 	pllLock = 0u;
 341              		.loc 1 266 0
 342 0068 0023     		movs	r3, #0
 343 006a FB70     		strb	r3, [r7, #3]
 267:Generated_Source\PSoC5/cyfitter_cfg.c **** 	for (timeout = 250u / 10u; (timeout > 0u) && (pllLock != 0x03u); timeout--)
 344              		.loc 1 267 0
 345 006c 1923     		movs	r3, #25
 346 006e 7B60     		str	r3, [r7, #4]
 347 0070 14E0     		b	.L12
 348              	.L14:
 268:Generated_Source\PSoC5/cyfitter_cfg.c **** 	{ 
 269:Generated_Source\PSoC5/cyfitter_cfg.c **** 		pllLock = 0x03u & ((uint8)((uint8)pllLock << 1) | ((CY_GET_XTND_REG8((void CYFAR *)CYREG_FASTCLK_
 349              		.loc 1 269 0 discriminator 4
 350 0072 FB78     		ldrb	r3, [r7, #3]
 351 0074 5B00     		lsls	r3, r3, #1
 352 0076 DAB2     		uxtb	r2, r3
 353 0078 2F4B     		ldr	r3, .L16+64
 354 007a 1B78     		ldrb	r3, [r3]
 355 007c DBB2     		uxtb	r3, r3
ARM GAS  C:\Users\npat025\AppData\Local\Temp\ccws0dnt.s 			page 12


 356 007e 03F00103 		and	r3, r3, #1
 357 0082 DBB2     		uxtb	r3, r3
 358 0084 1343     		orrs	r3, r3, r2
 359 0086 DBB2     		uxtb	r3, r3
 360 0088 03F00303 		and	r3, r3, #3
 361 008c FB70     		strb	r3, [r7, #3]
 270:Generated_Source\PSoC5/cyfitter_cfg.c **** 		CyDelayCycles(10u * 48u); /* Delay 10us based on 48MHz clock */
 362              		.loc 1 270 0 discriminator 4
 363 008e 4FF4F070 		mov	r0, #480
 364 0092 FFF7FEFF 		bl	CyDelayCycles
 267:Generated_Source\PSoC5/cyfitter_cfg.c **** 	for (timeout = 250u / 10u; (timeout > 0u) && (pllLock != 0x03u); timeout--)
 365              		.loc 1 267 0 discriminator 4
 366 0096 7B68     		ldr	r3, [r7, #4]
 367 0098 013B     		subs	r3, r3, #1
 368 009a 7B60     		str	r3, [r7, #4]
 369              	.L12:
 267:Generated_Source\PSoC5/cyfitter_cfg.c **** 	for (timeout = 250u / 10u; (timeout > 0u) && (pllLock != 0x03u); timeout--)
 370              		.loc 1 267 0 is_stmt 0 discriminator 1
 371 009c 7B68     		ldr	r3, [r7, #4]
 372 009e 002B     		cmp	r3, #0
 373 00a0 02D0     		beq	.L13
 267:Generated_Source\PSoC5/cyfitter_cfg.c **** 	for (timeout = 250u / 10u; (timeout > 0u) && (pllLock != 0x03u); timeout--)
 374              		.loc 1 267 0 discriminator 3
 375 00a2 FB78     		ldrb	r3, [r7, #3]	@ zero_extendqisi2
 376 00a4 032B     		cmp	r3, #3
 377 00a6 E4D1     		bne	.L14
 378              	.L13:
 271:Generated_Source\PSoC5/cyfitter_cfg.c **** 	}
 272:Generated_Source\PSoC5/cyfitter_cfg.c **** 	/* If we ran out of time the PLL didn't lock so go to the error function */
 273:Generated_Source\PSoC5/cyfitter_cfg.c **** 	if (timeout == 0u)
 379              		.loc 1 273 0 is_stmt 1
 380 00a8 7B68     		ldr	r3, [r7, #4]
 381 00aa 002B     		cmp	r3, #0
 382 00ac 02D1     		bne	.L15
 274:Generated_Source\PSoC5/cyfitter_cfg.c **** 	{
 275:Generated_Source\PSoC5/cyfitter_cfg.c **** 		CyClockStartupError(CYCLOCKSTART_PLL_ERROR);
 383              		.loc 1 275 0
 384 00ae 0320     		movs	r0, #3
 385 00b0 FFF7FEFF 		bl	CyClockStartupError
 386              	.L15:
 276:Generated_Source\PSoC5/cyfitter_cfg.c **** 	}
 277:Generated_Source\PSoC5/cyfitter_cfg.c **** 
 278:Generated_Source\PSoC5/cyfitter_cfg.c **** 	/* Configure Bus/Master Clock based on settings from Clock DWR */
 279:Generated_Source\PSoC5/cyfitter_cfg.c **** 	CY_SET_XTND_REG16((void CYFAR *)(CYREG_CLKDIST_MSTR0), 0x0100u);
 387              		.loc 1 279 0
 388 00b4 214B     		ldr	r3, .L16+68
 389 00b6 4FF48072 		mov	r2, #256
 390 00ba 1A80     		strh	r2, [r3]	@ movhi
 280:Generated_Source\PSoC5/cyfitter_cfg.c **** 	CY_SET_XTND_REG8((void CYFAR *)(CYREG_CLKDIST_MSTR0), 0x07u);
 391              		.loc 1 280 0
 392 00bc 1F4B     		ldr	r3, .L16+68
 393 00be 0722     		movs	r2, #7
 394 00c0 1A70     		strb	r2, [r3]
 281:Generated_Source\PSoC5/cyfitter_cfg.c **** 	CY_SET_XTND_REG8((void CYFAR *)(CYREG_CLKDIST_BCFG0), 0x00u);
 395              		.loc 1 281 0
 396 00c2 1F4B     		ldr	r3, .L16+72
 397 00c4 0022     		movs	r2, #0
ARM GAS  C:\Users\npat025\AppData\Local\Temp\ccws0dnt.s 			page 13


 398 00c6 1A70     		strb	r2, [r3]
 282:Generated_Source\PSoC5/cyfitter_cfg.c **** 	CY_SET_XTND_REG8((void CYFAR *)(CYREG_CLKDIST_BCFG2), 0x48u);
 399              		.loc 1 282 0
 400 00c8 1E4B     		ldr	r3, .L16+76
 401 00ca 4822     		movs	r2, #72
 402 00cc 1A70     		strb	r2, [r3]
 283:Generated_Source\PSoC5/cyfitter_cfg.c **** 	CY_SET_XTND_REG8((void CYFAR *)(CYREG_CLKDIST_MSTR0), 0x00u);
 403              		.loc 1 283 0
 404 00ce 1B4B     		ldr	r3, .L16+68
 405 00d0 0022     		movs	r2, #0
 406 00d2 1A70     		strb	r2, [r3]
 284:Generated_Source\PSoC5/cyfitter_cfg.c **** 
 285:Generated_Source\PSoC5/cyfitter_cfg.c **** 	/* Configure USB Clock based on settings from Clock DWR */
 286:Generated_Source\PSoC5/cyfitter_cfg.c **** 	CY_SET_XTND_REG8((void CYFAR *)(CYREG_CLKDIST_UCFG), 0x00u);
 407              		.loc 1 286 0
 408 00d4 1C4B     		ldr	r3, .L16+80
 409 00d6 0022     		movs	r2, #0
 410 00d8 1A70     		strb	r2, [r3]
 287:Generated_Source\PSoC5/cyfitter_cfg.c **** 	CY_SET_XTND_REG8((void CYFAR *)(CYREG_CLKDIST_LD), 0x02u);
 411              		.loc 1 287 0
 412 00da 1C4B     		ldr	r3, .L16+84
 413 00dc 0222     		movs	r2, #2
 414 00de 1A70     		strb	r2, [r3]
 288:Generated_Source\PSoC5/cyfitter_cfg.c **** 
 289:Generated_Source\PSoC5/cyfitter_cfg.c **** 	CY_SET_XTND_REG8((void CYFAR *)(CYREG_PM_ACT_CFG2), ((CY_GET_XTND_REG8((void CYFAR *)CYREG_PM_ACT_
 415              		.loc 1 289 0
 416 00e0 1B4A     		ldr	r2, .L16+88
 417 00e2 1B4B     		ldr	r3, .L16+88
 418 00e4 1B78     		ldrb	r3, [r3]
 419 00e6 DBB2     		uxtb	r3, r3
 420 00e8 43F01F03 		orr	r3, r3, #31
 421 00ec DBB2     		uxtb	r3, r3
 422 00ee 1370     		strb	r3, [r2]
 290:Generated_Source\PSoC5/cyfitter_cfg.c **** }
 423              		.loc 1 290 0
 424 00f0 00BF     		nop
 425 00f2 0837     		adds	r7, r7, #8
 426              		.cfi_def_cfa_offset 8
 427 00f4 BD46     		mov	sp, r7
 428              		.cfi_def_cfa_register 13
 429              		@ sp needed
 430 00f6 80BD     		pop	{r7, pc}
 431              	.L17:
 432              		.align	2
 433              	.L16:
 434 00f8 80400040 		.word	1073758336
 435 00fc 82400040 		.word	1073758338
 436 0100 84400040 		.word	1073758340
 437 0104 86400040 		.word	1073758342
 438 0108 88400040 		.word	1073758344
 439 010c 8A400040 		.word	1073758346
 440 0110 8C400040 		.word	1073758348
 441 0114 8E400040 		.word	1073758350
 442 0118 90400040 		.word	1073758352
 443 011c 92400040 		.word	1073758354
 444 0120 00430040 		.word	1073758976
 445 0124 00420040 		.word	1073758720
ARM GAS  C:\Users\npat025\AppData\Local\Temp\ccws0dnt.s 			page 14


 446 0128 A1460040 		.word	1073759905
 447 012c 0F010049 		.word	1224737039
 448 0130 22420040 		.word	1073758754
 449 0134 20420040 		.word	1073758752
 450 0138 25420040 		.word	1073758757
 451 013c 04400040 		.word	1073758212
 452 0140 06400040 		.word	1073758214
 453 0144 08400040 		.word	1073758216
 454 0148 09400040 		.word	1073758217
 455 014c 01400040 		.word	1073758209
 456 0150 A2430040 		.word	1073759138
 457              		.cfi_endproc
 458              	.LFE5:
 459              		.size	ClockSetup, .-ClockSetup
 460              		.section	.text.AnalogSetDefault,"ax",%progbits
 461              		.align	2
 462              		.thumb
 463              		.thumb_func
 464              		.type	AnalogSetDefault, %function
 465              	AnalogSetDefault:
 466              	.LFB6:
 291:Generated_Source\PSoC5/cyfitter_cfg.c **** 
 292:Generated_Source\PSoC5/cyfitter_cfg.c **** 
 293:Generated_Source\PSoC5/cyfitter_cfg.c **** /* Analog API Functions */
 294:Generated_Source\PSoC5/cyfitter_cfg.c **** 
 295:Generated_Source\PSoC5/cyfitter_cfg.c **** 
 296:Generated_Source\PSoC5/cyfitter_cfg.c **** /*******************************************************************************
 297:Generated_Source\PSoC5/cyfitter_cfg.c **** * Function Name: AnalogSetDefault
 298:Generated_Source\PSoC5/cyfitter_cfg.c **** ********************************************************************************
 299:Generated_Source\PSoC5/cyfitter_cfg.c **** *
 300:Generated_Source\PSoC5/cyfitter_cfg.c **** * Summary:
 301:Generated_Source\PSoC5/cyfitter_cfg.c **** *  Sets up the analog portions of the chip to default values based on chip
 302:Generated_Source\PSoC5/cyfitter_cfg.c **** *  configuration options from the project.
 303:Generated_Source\PSoC5/cyfitter_cfg.c **** *
 304:Generated_Source\PSoC5/cyfitter_cfg.c **** * Parameters:
 305:Generated_Source\PSoC5/cyfitter_cfg.c **** *  void
 306:Generated_Source\PSoC5/cyfitter_cfg.c **** *
 307:Generated_Source\PSoC5/cyfitter_cfg.c **** * Return:
 308:Generated_Source\PSoC5/cyfitter_cfg.c **** *  void
 309:Generated_Source\PSoC5/cyfitter_cfg.c **** *
 310:Generated_Source\PSoC5/cyfitter_cfg.c **** *******************************************************************************/
 311:Generated_Source\PSoC5/cyfitter_cfg.c **** static void AnalogSetDefault(void);
 312:Generated_Source\PSoC5/cyfitter_cfg.c **** static void AnalogSetDefault(void)
 313:Generated_Source\PSoC5/cyfitter_cfg.c **** {
 467              		.loc 1 313 0
 468              		.cfi_startproc
 469              		@ args = 0, pretend = 0, frame = 8
 470              		@ frame_needed = 1, uses_anonymous_args = 0
 471 0000 80B5     		push	{r7, lr}
 472              		.cfi_def_cfa_offset 8
 473              		.cfi_offset 7, -8
 474              		.cfi_offset 14, -4
 475 0002 82B0     		sub	sp, sp, #8
 476              		.cfi_def_cfa_offset 16
 477 0004 00AF     		add	r7, sp, #0
 478              		.cfi_def_cfa_register 7
 314:Generated_Source\PSoC5/cyfitter_cfg.c **** 	uint8 bg_xover_inl_trim = CY_GET_XTND_REG8((void CYFAR *)(CYREG_FLSHID_MFG_CFG_BG_XOVER_INL_TRIM +
ARM GAS  C:\Users\npat025\AppData\Local\Temp\ccws0dnt.s 			page 15


 479              		.loc 1 314 0
 480 0006 244B     		ldr	r3, .L19
 481 0008 1B78     		ldrb	r3, [r3]
 482 000a FB71     		strb	r3, [r7, #7]
 315:Generated_Source\PSoC5/cyfitter_cfg.c **** 	uint8 cr4 = CY_GET_XTND_REG8((void CYFAR *)(CYREG_RESET_CR4));
 483              		.loc 1 315 0
 484 000c 234B     		ldr	r3, .L19+4
 485 000e 1B78     		ldrb	r3, [r3]
 486 0010 BB71     		strb	r3, [r7, #6]
 316:Generated_Source\PSoC5/cyfitter_cfg.c **** 	uint8 cr5 = CY_GET_XTND_REG8((void CYFAR *)(CYREG_RESET_CR5));
 487              		.loc 1 316 0
 488 0012 234B     		ldr	r3, .L19+8
 489 0014 1B78     		ldrb	r3, [r3]
 490 0016 7B71     		strb	r3, [r7, #5]
 317:Generated_Source\PSoC5/cyfitter_cfg.c **** 	CY_SET_XTND_REG8((void CYFAR *)(CYREG_BG_DFT0), (bg_xover_inl_trim & 0x07u));
 491              		.loc 1 317 0
 492 0018 224A     		ldr	r2, .L19+12
 493 001a FB79     		ldrb	r3, [r7, #7]
 494 001c 03F00703 		and	r3, r3, #7
 495 0020 DBB2     		uxtb	r3, r3
 496 0022 1370     		strb	r3, [r2]
 318:Generated_Source\PSoC5/cyfitter_cfg.c **** 	CY_SET_XTND_REG8((void CYFAR *)(CYREG_BG_DFT1), ((bg_xover_inl_trim >> 4) & 0x0Fu));
 497              		.loc 1 318 0
 498 0024 204A     		ldr	r2, .L19+16
 499 0026 FB79     		ldrb	r3, [r7, #7]	@ zero_extendqisi2
 500 0028 1B09     		lsrs	r3, r3, #4
 501 002a DBB2     		uxtb	r3, r3
 502 002c 1370     		strb	r3, [r2]
 319:Generated_Source\PSoC5/cyfitter_cfg.c **** 	/* Disable PRES while setting up SAR voltage reference */
 320:Generated_Source\PSoC5/cyfitter_cfg.c **** 	CY_SET_XTND_REG8((void CYFAR *)(CYREG_RESET_CR4), (cr4 | 0x03u));
 503              		.loc 1 320 0
 504 002e 1B4A     		ldr	r2, .L19+4
 505 0030 BB79     		ldrb	r3, [r7, #6]
 506 0032 43F00303 		orr	r3, r3, #3
 507 0036 DBB2     		uxtb	r3, r3
 508 0038 1370     		strb	r3, [r2]
 321:Generated_Source\PSoC5/cyfitter_cfg.c **** 	CY_SET_XTND_REG8((void CYFAR *)(CYREG_RESET_CR5), (cr5 | 0x03u));
 509              		.loc 1 321 0
 510 003a 194A     		ldr	r2, .L19+8
 511 003c 7B79     		ldrb	r3, [r7, #5]
 512 003e 43F00303 		orr	r3, r3, #3
 513 0042 DBB2     		uxtb	r3, r3
 514 0044 1370     		strb	r3, [r2]
 322:Generated_Source\PSoC5/cyfitter_cfg.c **** 	CY_SET_XTND_REG8((void CYFAR *)CYREG_PRT0_AG, 0xE0u);
 515              		.loc 1 322 0
 516 0046 194B     		ldr	r3, .L19+20
 517 0048 E022     		movs	r2, #224
 518 004a 1A70     		strb	r2, [r3]
 323:Generated_Source\PSoC5/cyfitter_cfg.c **** 	CY_SET_XTND_REG8((void CYFAR *)CYREG_PRT1_AG, 0xF4u);
 519              		.loc 1 323 0
 520 004c 184B     		ldr	r3, .L19+24
 521 004e F422     		movs	r2, #244
 522 0050 1A70     		strb	r2, [r3]
 324:Generated_Source\PSoC5/cyfitter_cfg.c **** 	CY_SET_XTND_REG8((void CYFAR *)CYREG_SAR1_CSR1, 0x40u);
 523              		.loc 1 324 0
 524 0052 184B     		ldr	r3, .L19+28
 525 0054 4022     		movs	r2, #64
ARM GAS  C:\Users\npat025\AppData\Local\Temp\ccws0dnt.s 			page 16


 526 0056 1A70     		strb	r2, [r3]
 325:Generated_Source\PSoC5/cyfitter_cfg.c **** 	CY_SET_XTND_REG8((void CYFAR *)CYREG_SAR1_CSR3, 0x40u);
 527              		.loc 1 325 0
 528 0058 174B     		ldr	r3, .L19+32
 529 005a 4022     		movs	r2, #64
 530 005c 1A70     		strb	r2, [r3]
 326:Generated_Source\PSoC5/cyfitter_cfg.c **** 	CY_SET_XTND_REG8((void CYFAR *)CYREG_DSM0_SW0, 0xE0u);
 531              		.loc 1 326 0
 532 005e 174B     		ldr	r3, .L19+36
 533 0060 E022     		movs	r2, #224
 534 0062 1A70     		strb	r2, [r3]
 327:Generated_Source\PSoC5/cyfitter_cfg.c **** 	CY_SET_XTND_REG8((void CYFAR *)CYREG_SAR1_SW0, 0x4Fu);
 535              		.loc 1 327 0
 536 0064 164B     		ldr	r3, .L19+40
 537 0066 4F22     		movs	r2, #79
 538 0068 1A70     		strb	r2, [r3]
 328:Generated_Source\PSoC5/cyfitter_cfg.c **** 	CY_SET_XTND_REG8((void CYFAR *)CYREG_SAR1_SW3, 0x20u);
 539              		.loc 1 328 0
 540 006a 164B     		ldr	r3, .L19+44
 541 006c 2022     		movs	r2, #32
 542 006e 1A70     		strb	r2, [r3]
 329:Generated_Source\PSoC5/cyfitter_cfg.c **** 	CY_SET_XTND_REG8((void CYFAR *)CYREG_BUS_SW0, 0x40u);
 543              		.loc 1 329 0
 544 0070 154B     		ldr	r3, .L19+48
 545 0072 4022     		movs	r2, #64
 546 0074 1A70     		strb	r2, [r3]
 330:Generated_Source\PSoC5/cyfitter_cfg.c **** 	CyDelayUs(10u); /* Allow vref to settle before re-enabling PRES */
 547              		.loc 1 330 0
 548 0076 0A20     		movs	r0, #10
 549 0078 FFF7FEFF 		bl	CyDelayUs
 331:Generated_Source\PSoC5/cyfitter_cfg.c **** 	CY_SET_XTND_REG8((void CYFAR *)(CYREG_RESET_CR5), (cr5));
 550              		.loc 1 331 0
 551 007c 084A     		ldr	r2, .L19+8
 552 007e 7B79     		ldrb	r3, [r7, #5]
 553 0080 1370     		strb	r3, [r2]
 332:Generated_Source\PSoC5/cyfitter_cfg.c **** 	CY_SET_XTND_REG8((void CYFAR *)(CYREG_RESET_CR4), (cr4));
 554              		.loc 1 332 0
 555 0082 064A     		ldr	r2, .L19+4
 556 0084 BB79     		ldrb	r3, [r7, #6]
 557 0086 1370     		strb	r3, [r2]
 333:Generated_Source\PSoC5/cyfitter_cfg.c **** 	CY_SET_XTND_REG8((void CYFAR *)CYREG_PUMP_CR0, 0x44u);
 558              		.loc 1 333 0
 559 0088 104B     		ldr	r3, .L19+52
 560 008a 4422     		movs	r2, #68
 561 008c 1A70     		strb	r2, [r3]
 334:Generated_Source\PSoC5/cyfitter_cfg.c **** }
 562              		.loc 1 334 0
 563 008e 00BF     		nop
 564 0090 0837     		adds	r7, r7, #8
 565              		.cfi_def_cfa_offset 8
 566 0092 BD46     		mov	sp, r7
 567              		.cfi_def_cfa_register 13
 568              		@ sp needed
 569 0094 80BD     		pop	{r7, pc}
 570              	.L20:
 571 0096 00BF     		.align	2
 572              	.L19:
ARM GAS  C:\Users\npat025\AppData\Local\Temp\ccws0dnt.s 			page 17


 573 0098 CF010049 		.word	1224737231
 574 009c F8460040 		.word	1073759992
 575 00a0 F9460040 		.word	1073759993
 576 00a4 6E580040 		.word	1073764462
 577 00a8 6F580040 		.word	1073764463
 578 00ac 0D510040 		.word	1073762573
 579 00b0 1D510040 		.word	1073762589
 580 00b4 09590040 		.word	1073764617
 581 00b8 0B590040 		.word	1073764619
 582 00bc 005B0040 		.word	1073765120
 583 00c0 285B0040 		.word	1073765160
 584 00c4 2B5B0040 		.word	1073765163
 585 00c8 585B0040 		.word	1073765208
 586 00cc 76580040 		.word	1073764470
 587              		.cfi_endproc
 588              	.LFE6:
 589              		.size	AnalogSetDefault, .-AnalogSetDefault
 590              		.section	.text.SetAnalogRoutingPumps,"ax",%progbits
 591              		.align	2
 592              		.global	SetAnalogRoutingPumps
 593              		.thumb
 594              		.thumb_func
 595              		.type	SetAnalogRoutingPumps, %function
 596              	SetAnalogRoutingPumps:
 597              	.LFB7:
 335:Generated_Source\PSoC5/cyfitter_cfg.c **** 
 336:Generated_Source\PSoC5/cyfitter_cfg.c **** 
 337:Generated_Source\PSoC5/cyfitter_cfg.c **** /*******************************************************************************
 338:Generated_Source\PSoC5/cyfitter_cfg.c **** * Function Name: SetAnalogRoutingPumps
 339:Generated_Source\PSoC5/cyfitter_cfg.c **** ********************************************************************************
 340:Generated_Source\PSoC5/cyfitter_cfg.c **** *
 341:Generated_Source\PSoC5/cyfitter_cfg.c **** * Summary:
 342:Generated_Source\PSoC5/cyfitter_cfg.c **** * Enables or disables the analog pumps feeding analog routing switches.
 343:Generated_Source\PSoC5/cyfitter_cfg.c **** * Intended to be called at startup, based on the Vdda system configuration;
 344:Generated_Source\PSoC5/cyfitter_cfg.c **** * may be called during operation when the user informs us that the Vdda voltage
 345:Generated_Source\PSoC5/cyfitter_cfg.c **** * crossed the pump threshold.
 346:Generated_Source\PSoC5/cyfitter_cfg.c **** *
 347:Generated_Source\PSoC5/cyfitter_cfg.c **** * Parameters:
 348:Generated_Source\PSoC5/cyfitter_cfg.c **** *  enabled - 1 to enable the pumps, 0 to disable the pumps
 349:Generated_Source\PSoC5/cyfitter_cfg.c **** *
 350:Generated_Source\PSoC5/cyfitter_cfg.c **** * Return:
 351:Generated_Source\PSoC5/cyfitter_cfg.c **** *  void
 352:Generated_Source\PSoC5/cyfitter_cfg.c **** *
 353:Generated_Source\PSoC5/cyfitter_cfg.c **** *******************************************************************************/
 354:Generated_Source\PSoC5/cyfitter_cfg.c **** void SetAnalogRoutingPumps(uint8 enabled)
 355:Generated_Source\PSoC5/cyfitter_cfg.c **** {
 598              		.loc 1 355 0
 599              		.cfi_startproc
 600              		@ args = 0, pretend = 0, frame = 16
 601              		@ frame_needed = 1, uses_anonymous_args = 0
 602              		@ link register save eliminated.
 603 0000 80B4     		push	{r7}
 604              		.cfi_def_cfa_offset 4
 605              		.cfi_offset 7, -4
 606 0002 85B0     		sub	sp, sp, #20
 607              		.cfi_def_cfa_offset 24
 608 0004 00AF     		add	r7, sp, #0
ARM GAS  C:\Users\npat025\AppData\Local\Temp\ccws0dnt.s 			page 18


 609              		.cfi_def_cfa_register 7
 610 0006 0346     		mov	r3, r0
 611 0008 FB71     		strb	r3, [r7, #7]
 356:Generated_Source\PSoC5/cyfitter_cfg.c **** 	uint8 regValue = CY_GET_XTND_REG8((void CYFAR *)CYREG_PUMP_CR0);
 612              		.loc 1 356 0
 613 000a 0B4B     		ldr	r3, .L24
 614 000c 1B78     		ldrb	r3, [r3]
 615 000e FB73     		strb	r3, [r7, #15]
 357:Generated_Source\PSoC5/cyfitter_cfg.c **** 	if (enabled != 0u)
 616              		.loc 1 357 0
 617 0010 FB79     		ldrb	r3, [r7, #7]	@ zero_extendqisi2
 618 0012 002B     		cmp	r3, #0
 619 0014 04D0     		beq	.L22
 358:Generated_Source\PSoC5/cyfitter_cfg.c **** 	{
 359:Generated_Source\PSoC5/cyfitter_cfg.c **** 		regValue |= 0x22u;
 620              		.loc 1 359 0
 621 0016 FB7B     		ldrb	r3, [r7, #15]
 622 0018 43F02203 		orr	r3, r3, #34
 623 001c FB73     		strb	r3, [r7, #15]
 624 001e 03E0     		b	.L23
 625              	.L22:
 360:Generated_Source\PSoC5/cyfitter_cfg.c **** 	}
 361:Generated_Source\PSoC5/cyfitter_cfg.c **** 	else
 362:Generated_Source\PSoC5/cyfitter_cfg.c **** 	{
 363:Generated_Source\PSoC5/cyfitter_cfg.c **** 		regValue &= (uint8)~0x22u;
 626              		.loc 1 363 0
 627 0020 FB7B     		ldrb	r3, [r7, #15]
 628 0022 23F02203 		bic	r3, r3, #34
 629 0026 FB73     		strb	r3, [r7, #15]
 630              	.L23:
 364:Generated_Source\PSoC5/cyfitter_cfg.c **** 	}
 365:Generated_Source\PSoC5/cyfitter_cfg.c **** 	CY_SET_XTND_REG8((void CYFAR *)CYREG_PUMP_CR0, regValue);
 631              		.loc 1 365 0
 632 0028 034A     		ldr	r2, .L24
 633 002a FB7B     		ldrb	r3, [r7, #15]
 634 002c 1370     		strb	r3, [r2]
 366:Generated_Source\PSoC5/cyfitter_cfg.c **** }
 635              		.loc 1 366 0
 636 002e 00BF     		nop
 637 0030 1437     		adds	r7, r7, #20
 638              		.cfi_def_cfa_offset 4
 639 0032 BD46     		mov	sp, r7
 640              		.cfi_def_cfa_register 13
 641              		@ sp needed
 642 0034 80BC     		pop	{r7}
 643              		.cfi_restore 7
 644              		.cfi_def_cfa_offset 0
 645 0036 7047     		bx	lr
 646              	.L25:
 647              		.align	2
 648              	.L24:
 649 0038 76580040 		.word	1073764470
 650              		.cfi_endproc
 651              	.LFE7:
 652              		.size	SetAnalogRoutingPumps, .-SetAnalogRoutingPumps
 653              		.section	.text.cyfitter_cfg,"ax",%progbits
 654              		.align	2
ARM GAS  C:\Users\npat025\AppData\Local\Temp\ccws0dnt.s 			page 19


 655              		.global	cyfitter_cfg
 656              		.thumb
 657              		.thumb_func
 658              		.type	cyfitter_cfg, %function
 659              	cyfitter_cfg:
 660              	.LFB8:
 367:Generated_Source\PSoC5/cyfitter_cfg.c **** 
 368:Generated_Source\PSoC5/cyfitter_cfg.c **** 
 369:Generated_Source\PSoC5/cyfitter_cfg.c **** #define CY_AMUX_UNUSED CYREG_BOOST_SR
 370:Generated_Source\PSoC5/cyfitter_cfg.c **** 
 371:Generated_Source\PSoC5/cyfitter_cfg.c **** 
 372:Generated_Source\PSoC5/cyfitter_cfg.c **** /*******************************************************************************
 373:Generated_Source\PSoC5/cyfitter_cfg.c **** * Function Name: cyfitter_cfg
 374:Generated_Source\PSoC5/cyfitter_cfg.c **** ********************************************************************************
 375:Generated_Source\PSoC5/cyfitter_cfg.c **** * Summary:
 376:Generated_Source\PSoC5/cyfitter_cfg.c **** *  This function is called by the start-up code for the selected device. It
 377:Generated_Source\PSoC5/cyfitter_cfg.c **** *  performs all of the necessary device configuration based on the design
 378:Generated_Source\PSoC5/cyfitter_cfg.c **** *  settings.  This includes settings from the Design Wide Resources (DWR) such
 379:Generated_Source\PSoC5/cyfitter_cfg.c **** *  as Clocks and Pins as well as any component configuration that is necessary.
 380:Generated_Source\PSoC5/cyfitter_cfg.c **** *
 381:Generated_Source\PSoC5/cyfitter_cfg.c **** * Parameters:
 382:Generated_Source\PSoC5/cyfitter_cfg.c **** *   void
 383:Generated_Source\PSoC5/cyfitter_cfg.c **** *
 384:Generated_Source\PSoC5/cyfitter_cfg.c **** * Return:
 385:Generated_Source\PSoC5/cyfitter_cfg.c **** *   void
 386:Generated_Source\PSoC5/cyfitter_cfg.c **** *
 387:Generated_Source\PSoC5/cyfitter_cfg.c **** *******************************************************************************/
 388:Generated_Source\PSoC5/cyfitter_cfg.c **** 
 389:Generated_Source\PSoC5/cyfitter_cfg.c **** void cyfitter_cfg(void)
 390:Generated_Source\PSoC5/cyfitter_cfg.c **** {
 661              		.loc 1 390 0
 662              		.cfi_startproc
 663              		@ args = 0, pretend = 0, frame = 24
 664              		@ frame_needed = 1, uses_anonymous_args = 0
 665 0000 80B5     		push	{r7, lr}
 666              		.cfi_def_cfa_offset 8
 667              		.cfi_offset 7, -8
 668              		.cfi_offset 14, -4
 669 0002 86B0     		sub	sp, sp, #24
 670              		.cfi_def_cfa_offset 32
 671 0004 00AF     		add	r7, sp, #0
 672              		.cfi_def_cfa_register 7
 391:Generated_Source\PSoC5/cyfitter_cfg.c **** #ifdef CYGlobalIntDisable
 392:Generated_Source\PSoC5/cyfitter_cfg.c **** 	/* Disable interrupts by default. Let user enable if/when they want. */
 393:Generated_Source\PSoC5/cyfitter_cfg.c **** 	CYGlobalIntDisable
 673              		.loc 1 393 0
 674              		.syntax unified
 675              	@ 393 "Generated_Source\PSoC5\cyfitter_cfg.c" 1
 676 0006 72B6     		CPSID   i
 677              	@ 0 "" 2
 394:Generated_Source\PSoC5/cyfitter_cfg.c **** #endif
 395:Generated_Source\PSoC5/cyfitter_cfg.c **** 
 396:Generated_Source\PSoC5/cyfitter_cfg.c **** 
 397:Generated_Source\PSoC5/cyfitter_cfg.c **** 	/* Set Flash Cycles based on max possible frequency in case a glitch occurs during ClockSetup(). *
 398:Generated_Source\PSoC5/cyfitter_cfg.c **** 	CY_SET_XTND_REG8((void CYFAR *)(CYREG_CACHE_CC_CTL), (((CYDEV_INSTRUCT_CACHE_ENABLED) != 0) ? 0x61
 678              		.loc 1 398 0
 679              		.thumb
ARM GAS  C:\Users\npat025\AppData\Local\Temp\ccws0dnt.s 			page 20


 680              		.syntax unified
 681 0008 584B     		ldr	r3, .L31
 682 000a 6122     		movs	r2, #97
 683 000c 1A70     		strb	r2, [r3]
 399:Generated_Source\PSoC5/cyfitter_cfg.c **** 	/* Setup clocks based on selections from Clock DWR */
 400:Generated_Source\PSoC5/cyfitter_cfg.c **** 	ClockSetup();
 684              		.loc 1 400 0
 685 000e FFF7FEFF 		bl	ClockSetup
 401:Generated_Source\PSoC5/cyfitter_cfg.c **** 	/* Set Flash Cycles based on newly configured 60.00MHz Bus Clock. */
 402:Generated_Source\PSoC5/cyfitter_cfg.c **** 	CY_SET_XTND_REG8((void CYFAR *)(CYREG_CACHE_CC_CTL), (((CYDEV_INSTRUCT_CACHE_ENABLED) != 0) ? 0x01
 686              		.loc 1 402 0
 687 0012 564B     		ldr	r3, .L31
 688 0014 0122     		movs	r2, #1
 689 0016 1A70     		strb	r2, [r3]
 403:Generated_Source\PSoC5/cyfitter_cfg.c **** 	/* Enable/Disable Debug functionality based on settings from System DWR */
 404:Generated_Source\PSoC5/cyfitter_cfg.c **** 	CY_SET_XTND_REG8((void CYFAR *)CYREG_MLOGIC_DEBUG, (CY_GET_XTND_REG8((void CYFAR *)CYREG_MLOGIC_DE
 690              		.loc 1 404 0
 691 0018 554A     		ldr	r2, .L31+4
 692 001a 554B     		ldr	r3, .L31+4
 693 001c 1B78     		ldrb	r3, [r3]
 694 001e DBB2     		uxtb	r3, r3
 695 0020 43F00403 		orr	r3, r3, #4
 696 0024 DBB2     		uxtb	r3, r3
 697 0026 1370     		strb	r3, [r2]
 698              	.LBB3:
 405:Generated_Source\PSoC5/cyfitter_cfg.c **** 
 406:Generated_Source\PSoC5/cyfitter_cfg.c **** 	{
 407:Generated_Source\PSoC5/cyfitter_cfg.c **** 
 408:Generated_Source\PSoC5/cyfitter_cfg.c **** 		CYPACKED typedef struct {
 409:Generated_Source\PSoC5/cyfitter_cfg.c **** 			void CYFAR *address;
 410:Generated_Source\PSoC5/cyfitter_cfg.c **** 			uint16 size;
 411:Generated_Source\PSoC5/cyfitter_cfg.c **** 		} CYPACKED_ATTR cfg_memset_t;
 412:Generated_Source\PSoC5/cyfitter_cfg.c **** 
 413:Generated_Source\PSoC5/cyfitter_cfg.c **** 
 414:Generated_Source\PSoC5/cyfitter_cfg.c **** 		CYPACKED typedef struct {
 415:Generated_Source\PSoC5/cyfitter_cfg.c **** 			void CYFAR *dest;
 416:Generated_Source\PSoC5/cyfitter_cfg.c **** 			const void CYFAR *src;
 417:Generated_Source\PSoC5/cyfitter_cfg.c **** 			uint16 size;
 418:Generated_Source\PSoC5/cyfitter_cfg.c **** 		} CYPACKED_ATTR cfg_memcpy_t;
 419:Generated_Source\PSoC5/cyfitter_cfg.c **** 
 420:Generated_Source\PSoC5/cyfitter_cfg.c **** 		static const cfg_memset_t CYCODE cfg_memset_list[] = {
 421:Generated_Source\PSoC5/cyfitter_cfg.c **** 			/* address, size */
 422:Generated_Source\PSoC5/cyfitter_cfg.c **** 			{(void CYFAR *)(CYREG_TMR0_CFG0), 36u},
 423:Generated_Source\PSoC5/cyfitter_cfg.c **** 			{(void CYFAR *)(CYREG_PRT4_DR), 48u},
 424:Generated_Source\PSoC5/cyfitter_cfg.c **** 			{(void CYFAR *)(CYDEV_UCFG_B0_P0_U0_BASE), 4096u},
 425:Generated_Source\PSoC5/cyfitter_cfg.c **** 			{(void CYFAR *)(CYDEV_UCFG_B1_P2_U0_BASE), 2048u},
 426:Generated_Source\PSoC5/cyfitter_cfg.c **** 			{(void CYFAR *)(CYDEV_UCFG_DSI0_BASE), 2560u},
 427:Generated_Source\PSoC5/cyfitter_cfg.c **** 			{(void CYFAR *)(CYDEV_UCFG_DSI12_BASE), 512u},
 428:Generated_Source\PSoC5/cyfitter_cfg.c **** 			{(void CYFAR *)(CYREG_BCTL1_MDCLK_EN), 16u},
 429:Generated_Source\PSoC5/cyfitter_cfg.c **** 		};
 430:Generated_Source\PSoC5/cyfitter_cfg.c **** 
 431:Generated_Source\PSoC5/cyfitter_cfg.c **** 		static const cfg_memcpy_t CYCODE cfg_memcpy_list [] = {
 432:Generated_Source\PSoC5/cyfitter_cfg.c **** 			/* dest, src, size */
 433:Generated_Source\PSoC5/cyfitter_cfg.c **** 			{(void CYFAR *)(CYREG_BCTL0_MDCLK_EN), BS_UCFG_BCTL0_VAL, 16u},
 434:Generated_Source\PSoC5/cyfitter_cfg.c **** 		};
 435:Generated_Source\PSoC5/cyfitter_cfg.c **** 
 436:Generated_Source\PSoC5/cyfitter_cfg.c **** 		uint8 CYDATA i;
ARM GAS  C:\Users\npat025\AppData\Local\Temp\ccws0dnt.s 			page 21


 437:Generated_Source\PSoC5/cyfitter_cfg.c **** 
 438:Generated_Source\PSoC5/cyfitter_cfg.c **** 		/* Zero out critical memory blocks before beginning configuration */
 439:Generated_Source\PSoC5/cyfitter_cfg.c **** 		for (i = 0u; i < (sizeof(cfg_memset_list)/sizeof(cfg_memset_list[0])); i++)
 699              		.loc 1 439 0
 700 0028 0023     		movs	r3, #0
 701 002a FB75     		strb	r3, [r7, #23]
 702 002c 13E0     		b	.L27
 703              	.L28:
 704              	.LBB4:
 440:Generated_Source\PSoC5/cyfitter_cfg.c **** 		{
 441:Generated_Source\PSoC5/cyfitter_cfg.c **** 			const cfg_memset_t CYCODE * CYDATA ms = &cfg_memset_list[i];
 705              		.loc 1 441 0 discriminator 3
 706 002e FA7D     		ldrb	r2, [r7, #23]	@ zero_extendqisi2
 707 0030 1346     		mov	r3, r2
 708 0032 5B00     		lsls	r3, r3, #1
 709 0034 1344     		add	r3, r3, r2
 710 0036 5B00     		lsls	r3, r3, #1
 711 0038 4E4A     		ldr	r2, .L31+8
 712 003a 1344     		add	r3, r3, r2
 713 003c 3B61     		str	r3, [r7, #16]
 442:Generated_Source\PSoC5/cyfitter_cfg.c **** 			CYMEMZERO(ms->address, (size_t)(uint32)(ms->size));
 714              		.loc 1 442 0 discriminator 3
 715 003e 3B69     		ldr	r3, [r7, #16]
 716 0040 1A68     		ldr	r2, [r3]	@ unaligned
 717 0042 3B69     		ldr	r3, [r7, #16]
 718 0044 9B88     		ldrh	r3, [r3, #4]	@ unaligned
 719 0046 9BB2     		uxth	r3, r3
 720 0048 1946     		mov	r1, r3
 721 004a 1046     		mov	r0, r2
 722 004c FFF7FEFF 		bl	CYMEMZERO
 723              	.LBE4:
 439:Generated_Source\PSoC5/cyfitter_cfg.c **** 		{
 724              		.loc 1 439 0 discriminator 3
 725 0050 FB7D     		ldrb	r3, [r7, #23]	@ zero_extendqisi2
 726 0052 0133     		adds	r3, r3, #1
 727 0054 FB75     		strb	r3, [r7, #23]
 728              	.L27:
 439:Generated_Source\PSoC5/cyfitter_cfg.c **** 		{
 729              		.loc 1 439 0 is_stmt 0 discriminator 1
 730 0056 FB7D     		ldrb	r3, [r7, #23]	@ zero_extendqisi2
 731 0058 062B     		cmp	r3, #6
 732 005a E8D9     		bls	.L28
 443:Generated_Source\PSoC5/cyfitter_cfg.c **** 		}
 444:Generated_Source\PSoC5/cyfitter_cfg.c **** 
 445:Generated_Source\PSoC5/cyfitter_cfg.c **** 		/* Copy device configuration data into registers */
 446:Generated_Source\PSoC5/cyfitter_cfg.c **** 		for (i = 0u; i < (sizeof(cfg_memcpy_list)/sizeof(cfg_memcpy_list[0])); i++)
 733              		.loc 1 446 0 is_stmt 1
 734 005c 0023     		movs	r3, #0
 735 005e FB75     		strb	r3, [r7, #23]
 736 0060 1CE0     		b	.L29
 737              	.L30:
 738              	.LBB5:
 447:Generated_Source\PSoC5/cyfitter_cfg.c **** 		{
 448:Generated_Source\PSoC5/cyfitter_cfg.c **** 			const cfg_memcpy_t CYCODE * CYDATA mc = &cfg_memcpy_list[i];
 739              		.loc 1 448 0 discriminator 3
 740 0062 FA7D     		ldrb	r2, [r7, #23]	@ zero_extendqisi2
 741 0064 1346     		mov	r3, r2
ARM GAS  C:\Users\npat025\AppData\Local\Temp\ccws0dnt.s 			page 22


 742 0066 9B00     		lsls	r3, r3, #2
 743 0068 1344     		add	r3, r3, r2
 744 006a 5B00     		lsls	r3, r3, #1
 745 006c 424A     		ldr	r2, .L31+12
 746 006e 1344     		add	r3, r3, r2
 747 0070 FB60     		str	r3, [r7, #12]
 449:Generated_Source\PSoC5/cyfitter_cfg.c **** 			void * CYDATA destPtr = mc->dest;
 748              		.loc 1 449 0 discriminator 3
 749 0072 FB68     		ldr	r3, [r7, #12]
 750 0074 1B68     		ldr	r3, [r3]	@ unaligned
 751 0076 BB60     		str	r3, [r7, #8]
 450:Generated_Source\PSoC5/cyfitter_cfg.c **** 			const void * CYDATA srcPtr = mc->src;
 752              		.loc 1 450 0 discriminator 3
 753 0078 FB68     		ldr	r3, [r7, #12]
 754 007a 5B68     		ldr	r3, [r3, #4]	@ unaligned
 755 007c 7B60     		str	r3, [r7, #4]
 451:Generated_Source\PSoC5/cyfitter_cfg.c **** 			uint16 CYDATA numBytes = mc->size;
 756              		.loc 1 451 0 discriminator 3
 757 007e FB68     		ldr	r3, [r7, #12]
 758 0080 1A7A     		ldrb	r2, [r3, #8]	@ zero_extendqisi2
 759 0082 5B7A     		ldrb	r3, [r3, #9]	@ zero_extendqisi2
 760 0084 1B02     		lsls	r3, r3, #8
 761 0086 1343     		orrs	r3, r3, r2
 762 0088 7B80     		strh	r3, [r7, #2]	@ movhi
 452:Generated_Source\PSoC5/cyfitter_cfg.c **** 			CYCONFIGCPY(destPtr, srcPtr, numBytes);
 763              		.loc 1 452 0 discriminator 3
 764 008a 7B88     		ldrh	r3, [r7, #2]
 765 008c 1A46     		mov	r2, r3
 766 008e 7968     		ldr	r1, [r7, #4]
 767 0090 B868     		ldr	r0, [r7, #8]
 768 0092 FFF7FEFF 		bl	CYCONFIGCPY
 769              	.LBE5:
 446:Generated_Source\PSoC5/cyfitter_cfg.c **** 		{
 770              		.loc 1 446 0 discriminator 3
 771 0096 FB7D     		ldrb	r3, [r7, #23]	@ zero_extendqisi2
 772 0098 0133     		adds	r3, r3, #1
 773 009a FB75     		strb	r3, [r7, #23]
 774              	.L29:
 446:Generated_Source\PSoC5/cyfitter_cfg.c **** 		{
 775              		.loc 1 446 0 is_stmt 0 discriminator 1
 776 009c FB7D     		ldrb	r3, [r7, #23]	@ zero_extendqisi2
 777 009e 002B     		cmp	r3, #0
 778 00a0 DFD0     		beq	.L30
 453:Generated_Source\PSoC5/cyfitter_cfg.c **** 		}
 454:Generated_Source\PSoC5/cyfitter_cfg.c **** 
 455:Generated_Source\PSoC5/cyfitter_cfg.c **** 		cfg_write_bytes32(cy_cfg_addr_table, cy_cfg_data_table);
 779              		.loc 1 455 0 is_stmt 1
 780 00a2 3649     		ldr	r1, .L31+16
 781 00a4 4FF09040 		mov	r0, #1207959552
 782 00a8 FFF7FEFF 		bl	cfg_write_bytes32
 456:Generated_Source\PSoC5/cyfitter_cfg.c **** 
 457:Generated_Source\PSoC5/cyfitter_cfg.c **** 		/* Perform normal device configuration. Order is not critical for these items. */
 458:Generated_Source\PSoC5/cyfitter_cfg.c **** 		CYMEMZERO((void CYFAR *)(CYREG_PHUB_CFGMEM0_CFG0), 4u);
 783              		.loc 1 458 0
 784 00ac 0421     		movs	r1, #4
 785 00ae 3448     		ldr	r0, .L31+20
 786 00b0 FFF7FEFF 		bl	CYMEMZERO
ARM GAS  C:\Users\npat025\AppData\Local\Temp\ccws0dnt.s 			page 23


 459:Generated_Source\PSoC5/cyfitter_cfg.c **** 		CYCONFIGCPY((void CYFAR *)(CYREG_PHUB_CFGMEM1_CFG0), (const void CYFAR *)(BS_PHUB_CFGMEM1_VAL), 4
 787              		.loc 1 459 0
 788 00b4 0422     		movs	r2, #4
 789 00b6 3349     		ldr	r1, .L31+24
 790 00b8 3348     		ldr	r0, .L31+28
 791 00ba FFF7FEFF 		bl	CYCONFIGCPY
 460:Generated_Source\PSoC5/cyfitter_cfg.c **** 
 461:Generated_Source\PSoC5/cyfitter_cfg.c **** 		/* B0_P2_U0_CFG24 Starting address: CYDEV_UCFG_B0_P2_U0_CFG24 */
 462:Generated_Source\PSoC5/cyfitter_cfg.c **** 		CY_SET_XTND_REG32((void CYFAR *)(CYREG_B0_P2_U0_CFG24), 0x84000404u);
 792              		.loc 1 462 0
 793 00be 334B     		ldr	r3, .L31+32
 794 00c0 334A     		ldr	r2, .L31+36
 795 00c2 1A60     		str	r2, [r3]
 463:Generated_Source\PSoC5/cyfitter_cfg.c **** 
 464:Generated_Source\PSoC5/cyfitter_cfg.c **** 		/* B1_P2_U1_CFG24 Starting address: CYDEV_UCFG_B1_P2_U1_CFG24 */
 465:Generated_Source\PSoC5/cyfitter_cfg.c **** 		CY_SET_XTND_REG32((void CYFAR *)(CYREG_B1_P2_U1_CFG24), 0x84040404u);
 796              		.loc 1 465 0
 797 00c4 334B     		ldr	r3, .L31+40
 798 00c6 344A     		ldr	r2, .L31+44
 799 00c8 1A60     		str	r2, [r3]
 466:Generated_Source\PSoC5/cyfitter_cfg.c **** 
 467:Generated_Source\PSoC5/cyfitter_cfg.c **** 		/* Enable digital routing */
 468:Generated_Source\PSoC5/cyfitter_cfg.c **** 		CY_SET_XTND_REG8((void CYFAR *)CYREG_BCTL0_BANK_CTL, CY_GET_XTND_REG8((void CYFAR *)CYREG_BCTL0_B
 800              		.loc 1 468 0
 801 00ca 344A     		ldr	r2, .L31+48
 802 00cc 334B     		ldr	r3, .L31+48
 803 00ce 1B78     		ldrb	r3, [r3]
 804 00d0 DBB2     		uxtb	r3, r3
 805 00d2 43F00203 		orr	r3, r3, #2
 806 00d6 DBB2     		uxtb	r3, r3
 807 00d8 1370     		strb	r3, [r2]
 469:Generated_Source\PSoC5/cyfitter_cfg.c **** 		CY_SET_XTND_REG8((void CYFAR *)CYREG_BCTL1_BANK_CTL, CY_GET_XTND_REG8((void CYFAR *)CYREG_BCTL1_B
 808              		.loc 1 469 0
 809 00da 314A     		ldr	r2, .L31+52
 810 00dc 304B     		ldr	r3, .L31+52
 811 00de 1B78     		ldrb	r3, [r3]
 812 00e0 DBB2     		uxtb	r3, r3
 813 00e2 43F00203 		orr	r3, r3, #2
 814 00e6 DBB2     		uxtb	r3, r3
 815 00e8 1370     		strb	r3, [r2]
 470:Generated_Source\PSoC5/cyfitter_cfg.c **** 
 471:Generated_Source\PSoC5/cyfitter_cfg.c **** 		/* Enable UDB array */
 472:Generated_Source\PSoC5/cyfitter_cfg.c **** 		CY_SET_XTND_REG8((void CYFAR *)CYREG_PM_ACT_CFG0, CY_GET_XTND_REG8((void CYFAR *)CYREG_PM_ACT_CFG
 816              		.loc 1 472 0
 817 00ea 2E4A     		ldr	r2, .L31+56
 818 00ec 2D4B     		ldr	r3, .L31+56
 819 00ee 1B78     		ldrb	r3, [r3]
 820 00f0 DBB2     		uxtb	r3, r3
 821 00f2 43F04003 		orr	r3, r3, #64
 822 00f6 DBB2     		uxtb	r3, r3
 823 00f8 1370     		strb	r3, [r2]
 473:Generated_Source\PSoC5/cyfitter_cfg.c **** 		CY_SET_XTND_REG8((void CYFAR *)CYREG_PM_AVAIL_CR2, CY_GET_XTND_REG8((void CYFAR *)CYREG_PM_AVAIL_
 824              		.loc 1 473 0
 825 00fa 2B4A     		ldr	r2, .L31+60
 826 00fc 2A4B     		ldr	r3, .L31+60
 827 00fe 1B78     		ldrb	r3, [r3]
 828 0100 DBB2     		uxtb	r3, r3
ARM GAS  C:\Users\npat025\AppData\Local\Temp\ccws0dnt.s 			page 24


 829 0102 43F01003 		orr	r3, r3, #16
 830 0106 DBB2     		uxtb	r3, r3
 831 0108 1370     		strb	r3, [r2]
 832              	.LBE3:
 474:Generated_Source\PSoC5/cyfitter_cfg.c **** 	}
 475:Generated_Source\PSoC5/cyfitter_cfg.c **** 
 476:Generated_Source\PSoC5/cyfitter_cfg.c **** 
 477:Generated_Source\PSoC5/cyfitter_cfg.c **** 	/* Perform second pass device configuration. These items must be configured in specific order afte
 478:Generated_Source\PSoC5/cyfitter_cfg.c **** 	CYCONFIGCPY((void CYFAR *)(CYREG_PRT0_DM0), (const void CYFAR *)(BS_IOPINS0_0_VAL), 8u);
 833              		.loc 1 478 0
 834 010a 0822     		movs	r2, #8
 835 010c 2749     		ldr	r1, .L31+64
 836 010e 2848     		ldr	r0, .L31+68
 837 0110 FFF7FEFF 		bl	CYCONFIGCPY
 479:Generated_Source\PSoC5/cyfitter_cfg.c **** 	CYCONFIGCPY((void CYFAR *)(CYREG_PRT12_DM0), (const void CYFAR *)(BS_IOPINS0_7_VAL), 8u);
 838              		.loc 1 479 0
 839 0114 0822     		movs	r2, #8
 840 0116 2749     		ldr	r1, .L31+72
 841 0118 2748     		ldr	r0, .L31+76
 842 011a FFF7FEFF 		bl	CYCONFIGCPY
 480:Generated_Source\PSoC5/cyfitter_cfg.c **** 	CYCONFIGCPY((void CYFAR *)(CYREG_PRT15_DR), (const void CYFAR *)(BS_IOPINS0_8_VAL), 10u);
 843              		.loc 1 480 0
 844 011e 0A22     		movs	r2, #10
 845 0120 2649     		ldr	r1, .L31+80
 846 0122 2748     		ldr	r0, .L31+84
 847 0124 FFF7FEFF 		bl	CYCONFIGCPY
 481:Generated_Source\PSoC5/cyfitter_cfg.c **** 	CYCONFIGCPY((void CYFAR *)(CYREG_PRT1_DM0), (const void CYFAR *)(BS_IOPINS0_1_VAL), 8u);
 848              		.loc 1 481 0
 849 0128 0822     		movs	r2, #8
 850 012a 2649     		ldr	r1, .L31+88
 851 012c 2648     		ldr	r0, .L31+92
 852 012e FFF7FEFF 		bl	CYCONFIGCPY
 482:Generated_Source\PSoC5/cyfitter_cfg.c **** 	CYCONFIGCPY((void CYFAR *)(CYREG_PRT2_DR), (const void CYFAR *)(BS_IOPINS0_2_VAL), 10u);
 853              		.loc 1 482 0
 854 0132 0A22     		movs	r2, #10
 855 0134 2549     		ldr	r1, .L31+96
 856 0136 2648     		ldr	r0, .L31+100
 857 0138 FFF7FEFF 		bl	CYCONFIGCPY
 483:Generated_Source\PSoC5/cyfitter_cfg.c **** 	CYCONFIGCPY((void CYFAR *)(CYREG_PRT3_DM0), (const void CYFAR *)(BS_IOPINS0_3_VAL), 8u);
 858              		.loc 1 483 0
 859 013c 0822     		movs	r2, #8
 860 013e 2549     		ldr	r1, .L31+104
 861 0140 2548     		ldr	r0, .L31+108
 862 0142 FFF7FEFF 		bl	CYCONFIGCPY
 484:Generated_Source\PSoC5/cyfitter_cfg.c **** 	/* Switch Boost to the precision bandgap reference from its internal reference */
 485:Generated_Source\PSoC5/cyfitter_cfg.c **** 	CY_SET_REG8((void CYXDATA *)CYREG_BOOST_CR2, (CY_GET_REG8((void CYXDATA *)CYREG_BOOST_CR2) | 0x08u
 863              		.loc 1 485 0
 864 0146 254A     		ldr	r2, .L31+112
 865 0148 244B     		ldr	r3, .L31+112
 866 014a 1B78     		ldrb	r3, [r3]
 867 014c DBB2     		uxtb	r3, r3
 868 014e 43F00803 		orr	r3, r3, #8
 869 0152 DBB2     		uxtb	r3, r3
 870 0154 1370     		strb	r3, [r2]
 486:Generated_Source\PSoC5/cyfitter_cfg.c **** 
 487:Generated_Source\PSoC5/cyfitter_cfg.c **** 	/* Perform basic analog initialization to defaults */
 488:Generated_Source\PSoC5/cyfitter_cfg.c **** 	AnalogSetDefault();
ARM GAS  C:\Users\npat025\AppData\Local\Temp\ccws0dnt.s 			page 25


 871              		.loc 1 488 0
 872 0156 FFF7FEFF 		bl	AnalogSetDefault
 489:Generated_Source\PSoC5/cyfitter_cfg.c **** 
 490:Generated_Source\PSoC5/cyfitter_cfg.c **** 	/* Configure alternate active mode */
 491:Generated_Source\PSoC5/cyfitter_cfg.c **** 	CYCONFIGCPY((void CYFAR *)CYDEV_PM_STBY_BASE, (const void CYFAR *)CYDEV_PM_ACT_BASE, 14u);
 873              		.loc 1 491 0
 874 015a 0E22     		movs	r2, #14
 875 015c 1149     		ldr	r1, .L31+56
 876 015e 2048     		ldr	r0, .L31+116
 877 0160 FFF7FEFF 		bl	CYCONFIGCPY
 492:Generated_Source\PSoC5/cyfitter_cfg.c **** }
 878              		.loc 1 492 0
 879 0164 00BF     		nop
 880 0166 1837     		adds	r7, r7, #24
 881              		.cfi_def_cfa_offset 8
 882 0168 BD46     		mov	sp, r7
 883              		.cfi_def_cfa_register 13
 884              		@ sp needed
 885 016a 80BD     		pop	{r7, pc}
 886              	.L32:
 887              		.align	2
 888              	.L31:
 889 016c 00480040 		.word	1073760256
 890 0170 E8460040 		.word	1073759976
 891 0174 00000000 		.word	cfg_memset_list.5020
 892 0178 2C000000 		.word	cfg_memcpy_list.5021
 893 017c B0000048 		.word	1207959728
 894 0180 00760040 		.word	1073772032
 895 0184 E00F0048 		.word	1207963616
 896 0188 08760040 		.word	1073772040
 897 018c 58040140 		.word	1073808472
 898 0190 04040084 		.word	-2080373756
 899 0194 D8140140 		.word	1073812696
 900 0198 04040484 		.word	-2080111612
 901 019c 03500140 		.word	1073827843
 902 01a0 13500140 		.word	1073827859
 903 01a4 A0430040 		.word	1073759136
 904 01a8 C2430040 		.word	1073759170
 905 01ac A80F0048 		.word	1207963560
 906 01b0 02510040 		.word	1073762562
 907 01b4 B00F0048 		.word	1207963568
 908 01b8 C2510040 		.word	1073762754
 909 01bc B80F0048 		.word	1207963576
 910 01c0 F0510040 		.word	1073762800
 911 01c4 C40F0048 		.word	1207963588
 912 01c8 12510040 		.word	1073762578
 913 01cc CC0F0048 		.word	1207963596
 914 01d0 20510040 		.word	1073762592
 915 01d4 D80F0048 		.word	1207963608
 916 01d8 32510040 		.word	1073762610
 917 01dc 22430040 		.word	1073759010
 918 01e0 B0430040 		.word	1073759152
 919              		.cfi_endproc
 920              	.LFE8:
 921              		.size	cyfitter_cfg, .-cyfitter_cfg
 922              		.section	.rodata
 923              		.align	2
ARM GAS  C:\Users\npat025\AppData\Local\Temp\ccws0dnt.s 			page 26


 924              		.type	cfg_memset_list.5020, %object
 925              		.size	cfg_memset_list.5020, 42
 926              	cfg_memset_list.5020:
 927 0000 004F0040 		.word	1073762048
 928 0004 2400     		.short	36
 929 0006 40510040 		.4byte	1073762624
 930 000a 3000     		.short	48
 931 000c 00000140 		.word	1073807360
 932 0010 0010     		.short	4096
 933 0012 00140140 		.4byte	1073812480
 934 0016 0008     		.short	2048
 935 0018 00400140 		.word	1073823744
 936 001c 000A     		.short	2560
 937 001e 004C0140 		.4byte	1073826816
 938 0022 0002     		.short	512
 939 0024 10500140 		.word	1073827856
 940 0028 1000     		.short	16
 941 002a 0000     		.align	2
 942              		.type	cfg_memcpy_list.5021, %object
 943              		.size	cfg_memcpy_list.5021, 10
 944              	cfg_memcpy_list.5021:
 945 002c 00500140 		.word	1073827840
 946 0030 980F0048 		.word	1207963544
 947 0034 1000     		.short	16
 948              		.text
 949              	.Letext0:
 950              		.file 2 "c:\\program files (x86)\\cypress\\psoc creator\\4.2\\psoc creator\\import\\gnu\\arm\\5.4.
 951              		.file 3 "Generated_Source\\PSoC5\\cytypes.h"