ARM GAS  C:\Users\dulan\AppData\Local\Temp\ccUumg8J.s 			page 1


   1              		.syntax unified
   2              		.cpu cortex-m3
   3              		.fpu softvfp
   4              		.eabi_attribute 20, 1
   5              		.eabi_attribute 21, 1
   6              		.eabi_attribute 23, 3
   7              		.eabi_attribute 24, 1
   8              		.eabi_attribute 25, 1
   9              		.eabi_attribute 26, 1
  10              		.eabi_attribute 30, 1
  11              		.eabi_attribute 34, 1
  12              		.eabi_attribute 18, 4
  13              		.thumb
  14              		.syntax unified
  15              		.file	"main.c"
  16              		.text
  17              	.Ltext0:
  18              		.cfi_sections	.debug_frame
  19              		.section	.text.isr_1_handler,"ax",%progbits
  20              		.align	2
  21              		.global	isr_1_handler
  22              		.thumb
  23              		.thumb_func
  24              		.type	isr_1_handler, %function
  25              	isr_1_handler:
  26              	.LFB64:
  27              		.file 1 "main.c"
   1:main.c        **** /* ========================================
   2:main.c        ****  *
   3:main.c        ****  * Copyright YOUR COMPANY, THE YEAR
   4:main.c        ****  * All Rights Reserved
   5:main.c        ****  * UNPUBLISHED, LICENSED SOFTWARE.
   6:main.c        ****  *
   7:main.c        ****  * CONFIDENTIAL AND PROPRIETARY INFORMATION
   8:main.c        ****  * WHICH IS THE PROPERTY OF your company.
   9:main.c        ****  *
  10:main.c        ****  * ========================================
  11:main.c        **** */
  12:main.c        **** /* ========================================
  13:main.c        ****  * Fully working code: 
  14:main.c        ****  * PWM      : 
  15:main.c        ****  * Encoder  : 
  16:main.c        ****  * ADC      :
  17:main.c        ****  * USB      : port displays speed and position.
  18:main.c        ****  * CMD: "PW xx"
  19:main.c        ****  * Copyright Univ of Auckland, 2016
  20:main.c        ****  * All Rights Reserved
  21:main.c        ****  * UNPUBLISHED, LICENSED SOFTWARE.
  22:main.c        ****  *
  23:main.c        ****  * CONFIDENTIAL AND PROPRIETARY INFORMATION
  24:main.c        ****  * WHICH IS THE PROPERTY OF Univ of Auckland.
  25:main.c        ****  *
  26:main.c        ****  * ========================================
  27:main.c        **** */
  28:main.c        **** 
  29:main.c        **** #include "program.h"
  30:main.c        **** 
ARM GAS  C:\Users\dulan\AppData\Local\Temp\ccUumg8J.s 			page 2


  31:main.c        **** //distance calculation paras
  32:main.c        **** int32 CPR = 228;  // Adjusted for 4x resolution(228/4)
  33:main.c        **** float wheelCircumference_cm = (M_PI*64.46)/10;// wheel circumference wheelDiameter_mm = 64.46)
  34:main.c        **** double timeInterval_s = 10.924; // Effective time interval( (timer period )2.731*4)
  35:main.c        **** int path_length;
  36:main.c        **** 
  37:main.c        **** 
  38:main.c        **** uint32 count = 0;
  39:main.c        **** bool isTurning=false;
  40:main.c        **** 
  41:main.c        **** uint8 comp0_sum;
  42:main.c        **** uint8 comp1_sum;
  43:main.c        **** uint8 comp2_sum;
  44:main.c        **** uint8 comp3_sum;
  45:main.c        **** 
  46:main.c        **** RobotState current_state = STOP;// intialse state
  47:main.c        **** 
  48:main.c        **** 
  49:main.c        **** 
  50:main.c        **** CY_ISR(isr_1_handler) {
  28              		.loc 1 50 0
  29              		.cfi_startproc
  30              		@ args = 0, pretend = 0, frame = 0
  31              		@ frame_needed = 0, uses_anonymous_args = 0
  32 0000 08B5     		push	{r3, lr}
  33              		.cfi_def_cfa_offset 8
  34              		.cfi_offset 3, -8
  35              		.cfi_offset 14, -4
  51:main.c        ****         //every 1ms 
  52:main.c        ****     
  53:main.c        ****     //sum up comp values every 1ms
  54:main.c        ****     comp0_sum+=Comp_0_GetCompare();
  36              		.loc 1 54 0
  37 0002 FFF7FEFF 		bl	Comp_0_GetCompare
  38              	.LVL0:
  39 0006 164A     		ldr	r2, .L4
  40 0008 1378     		ldrb	r3, [r2]	@ zero_extendqisi2
  41 000a 1844     		add	r0, r0, r3
  42 000c 1070     		strb	r0, [r2]
  55:main.c        ****     comp1_sum+=Comp_1_GetCompare();
  43              		.loc 1 55 0
  44 000e FFF7FEFF 		bl	Comp_1_GetCompare
  45              	.LVL1:
  46 0012 144A     		ldr	r2, .L4+4
  47 0014 1378     		ldrb	r3, [r2]	@ zero_extendqisi2
  48 0016 1844     		add	r0, r0, r3
  49 0018 1070     		strb	r0, [r2]
  56:main.c        ****     comp2_sum+=Comp_2_GetCompare();
  50              		.loc 1 56 0
  51 001a FFF7FEFF 		bl	Comp_2_GetCompare
  52              	.LVL2:
  53 001e 124A     		ldr	r2, .L4+8
  54 0020 1378     		ldrb	r3, [r2]	@ zero_extendqisi2
  55 0022 1844     		add	r0, r0, r3
  56 0024 1070     		strb	r0, [r2]
  57:main.c        ****     comp3_sum+=Comp_3_GetCompare();
  57              		.loc 1 57 0
ARM GAS  C:\Users\dulan\AppData\Local\Temp\ccUumg8J.s 			page 3


  58 0026 FFF7FEFF 		bl	Comp_3_GetCompare
  59              	.LVL3:
  60 002a 104A     		ldr	r2, .L4+12
  61 002c 1378     		ldrb	r3, [r2]	@ zero_extendqisi2
  62 002e 1844     		add	r0, r0, r3
  63 0030 1070     		strb	r0, [r2]
  58:main.c        ****       
  59:main.c        ****     if(count==8){
  64              		.loc 1 59 0
  65 0032 0F4B     		ldr	r3, .L4+16
  66 0034 1B68     		ldr	r3, [r3]
  67 0036 082B     		cmp	r3, #8
  68 0038 0AD1     		bne	.L2
  60:main.c        ****         //reset to check again every 8ms
  61:main.c        ****         comp0_sum=0;
  69              		.loc 1 61 0
  70 003a 0023     		movs	r3, #0
  71 003c 084A     		ldr	r2, .L4
  72 003e 1370     		strb	r3, [r2]
  62:main.c        ****         comp1_sum=0;
  73              		.loc 1 62 0
  74 0040 084A     		ldr	r2, .L4+4
  75 0042 1370     		strb	r3, [r2]
  63:main.c        ****         comp2_sum=0;
  76              		.loc 1 63 0
  77 0044 084A     		ldr	r2, .L4+8
  78 0046 1370     		strb	r3, [r2]
  64:main.c        ****         comp3_sum=0;
  79              		.loc 1 64 0
  80 0048 084A     		ldr	r2, .L4+12
  81 004a 1370     		strb	r3, [r2]
  65:main.c        ****         count=0;
  82              		.loc 1 65 0
  83 004c 084A     		ldr	r2, .L4+16
  84 004e 1360     		str	r3, [r2]
  85              	.L2:
  66:main.c        ****     }
  67:main.c        ****    
  68:main.c        ****     count++;
  86              		.loc 1 68 0
  87 0050 074A     		ldr	r2, .L4+16
  88 0052 1368     		ldr	r3, [r2]
  89 0054 0133     		adds	r3, r3, #1
  90 0056 1360     		str	r3, [r2]
  69:main.c        ****     Timer_1_ReadStatusRegister();
  91              		.loc 1 69 0
  92 0058 FFF7FEFF 		bl	Timer_1_ReadStatusRegister
  93              	.LVL4:
  94 005c 08BD     		pop	{r3, pc}
  95              	.L5:
  96 005e 00BF     		.align	2
  97              	.L4:
  98 0060 00000000 		.word	comp0_sum
  99 0064 00000000 		.word	comp1_sum
 100 0068 00000000 		.word	comp2_sum
 101 006c 00000000 		.word	comp3_sum
 102 0070 00000000 		.word	.LANCHOR0
ARM GAS  C:\Users\dulan\AppData\Local\Temp\ccUumg8J.s 			page 4


 103              		.cfi_endproc
 104              	.LFE64:
 105              		.size	isr_1_handler, .-isr_1_handler
 106              		.section	.text.stop,"ax",%progbits
 107              		.align	2
 108              		.global	stop
 109              		.thumb
 110              		.thumb_func
 111              		.type	stop, %function
 112              	stop:
 113              	.LFB65:
  70:main.c        **** }
  71:main.c        **** 
  72:main.c        **** 
  73:main.c        **** 
  74:main.c        **** void stop(){
 114              		.loc 1 74 0
 115              		.cfi_startproc
 116              		@ args = 0, pretend = 0, frame = 0
 117              		@ frame_needed = 0, uses_anonymous_args = 0
 118 0000 08B5     		push	{r3, lr}
 119              		.cfi_def_cfa_offset 8
 120              		.cfi_offset 3, -8
 121              		.cfi_offset 14, -4
  75:main.c        ****     PWM_1_WriteCompare(50);
 122              		.loc 1 75 0
 123 0002 3220     		movs	r0, #50
 124 0004 FFF7FEFF 		bl	PWM_1_WriteCompare
 125              	.LVL5:
  76:main.c        ****     PWM_2_WriteCompare(50);
 126              		.loc 1 76 0
 127 0008 3220     		movs	r0, #50
 128 000a FFF7FEFF 		bl	PWM_2_WriteCompare
 129              	.LVL6:
 130 000e 08BD     		pop	{r3, pc}
 131              		.cfi_endproc
 132              	.LFE65:
 133              		.size	stop, .-stop
 134              		.section	.text.turnLeft,"ax",%progbits
 135              		.align	2
 136              		.global	turnLeft
 137              		.thumb
 138              		.thumb_func
 139              		.type	turnLeft, %function
 140              	turnLeft:
 141              	.LFB66:
  77:main.c        **** }
  78:main.c        **** 
  79:main.c        **** void turnLeft(){
 142              		.loc 1 79 0
 143              		.cfi_startproc
 144              		@ args = 0, pretend = 0, frame = 0
 145              		@ frame_needed = 0, uses_anonymous_args = 0
 146 0000 08B5     		push	{r3, lr}
 147              		.cfi_def_cfa_offset 8
 148              		.cfi_offset 3, -8
 149              		.cfi_offset 14, -4
ARM GAS  C:\Users\dulan\AppData\Local\Temp\ccUumg8J.s 			page 5


  80:main.c        ****     QuadDec_M2_SetCounter(0);
 150              		.loc 1 80 0
 151 0002 0020     		movs	r0, #0
 152 0004 FFF7FEFF 		bl	QuadDec_M2_SetCounter
 153              	.LVL7:
  81:main.c        ****     PWM_1_WriteCompare(68);
 154              		.loc 1 81 0
 155 0008 4420     		movs	r0, #68
 156 000a FFF7FEFF 		bl	PWM_1_WriteCompare
 157              	.LVL8:
  82:main.c        ****     PWM_2_WriteCompare(33);
 158              		.loc 1 82 0
 159 000e 2120     		movs	r0, #33
 160 0010 FFF7FEFF 		bl	PWM_2_WriteCompare
 161              	.LVL9:
 162              	.L9:
  83:main.c        ****      while(abs(QuadDec_M2_GetCounter())<50){
 163              		.loc 1 83 0 discriminator 1
 164 0014 FFF7FEFF 		bl	QuadDec_M2_GetCounter
 165              	.LVL10:
 166 0018 0028     		cmp	r0, #0
 167 001a B8BF     		it	lt
 168 001c 4042     		rsblt	r0, r0, #0
 169 001e 3128     		cmp	r0, #49
 170 0020 F8DD     		ble	.L9
  84:main.c        ****         ;;
  85:main.c        ****     }
  86:main.c        ****     PWM_1_WriteCompare(50);
 171              		.loc 1 86 0
 172 0022 3220     		movs	r0, #50
 173 0024 FFF7FEFF 		bl	PWM_1_WriteCompare
 174              	.LVL11:
  87:main.c        ****     PWM_2_WriteCompare(50);
 175              		.loc 1 87 0
 176 0028 3220     		movs	r0, #50
 177 002a FFF7FEFF 		bl	PWM_2_WriteCompare
 178              	.LVL12:
 179 002e 08BD     		pop	{r3, pc}
 180              		.cfi_endproc
 181              	.LFE66:
 182              		.size	turnLeft, .-turnLeft
 183              		.section	.text.turnRight,"ax",%progbits
 184              		.align	2
 185              		.global	turnRight
 186              		.thumb
 187              		.thumb_func
 188              		.type	turnRight, %function
 189              	turnRight:
 190              	.LFB67:
  88:main.c        **** //    PWM_1_WriteCompare(68);
  89:main.c        **** //    PWM_2_WriteCompare(33);
  90:main.c        **** ////    CyDelay(350);
  91:main.c        **** //    while(Sout_L_Read()==0){//wait while left is on line
  92:main.c        **** //       ;;
  93:main.c        **** //    }
  94:main.c        **** //    while(!(Sout_M1_Read()==0 &&Sout_M1_Read()==0)){//wait while middle sensors off line
  95:main.c        **** //       ;;
ARM GAS  C:\Users\dulan\AppData\Local\Temp\ccUumg8J.s 			page 6


  96:main.c        **** //    }
  97:main.c        **** //    isTurning=false;
  98:main.c        **** //    PWM_1_WriteCompare(65);
  99:main.c        **** //    PWM_2_WriteCompare(66);
 100:main.c        **** 
 101:main.c        **** }
 102:main.c        **** 
 103:main.c        **** void turnRight(){
 191              		.loc 1 103 0
 192              		.cfi_startproc
 193              		@ args = 0, pretend = 0, frame = 0
 194              		@ frame_needed = 0, uses_anonymous_args = 0
 195 0000 08B5     		push	{r3, lr}
 196              		.cfi_def_cfa_offset 8
 197              		.cfi_offset 3, -8
 198              		.cfi_offset 14, -4
 104:main.c        ****     QuadDec_M1_SetCounter(0);
 199              		.loc 1 104 0
 200 0002 0020     		movs	r0, #0
 201 0004 FFF7FEFF 		bl	QuadDec_M1_SetCounter
 202              	.LVL13:
 105:main.c        ****     PWM_1_WriteCompare(30);
 203              		.loc 1 105 0
 204 0008 1E20     		movs	r0, #30
 205 000a FFF7FEFF 		bl	PWM_1_WriteCompare
 206              	.LVL14:
 106:main.c        ****     PWM_2_WriteCompare(68);
 207              		.loc 1 106 0
 208 000e 4420     		movs	r0, #68
 209 0010 FFF7FEFF 		bl	PWM_2_WriteCompare
 210              	.LVL15:
 211              	.L12:
 107:main.c        ****      while(abs(QuadDec_M1_GetCounter())<55){
 212              		.loc 1 107 0 discriminator 1
 213 0014 FFF7FEFF 		bl	QuadDec_M1_GetCounter
 214              	.LVL16:
 215 0018 0028     		cmp	r0, #0
 216 001a B8BF     		it	lt
 217 001c 4042     		rsblt	r0, r0, #0
 218 001e 3628     		cmp	r0, #54
 219 0020 F8DD     		ble	.L12
 108:main.c        ****         ;;
 109:main.c        ****     }
 110:main.c        ****     PWM_1_WriteCompare(50);
 220              		.loc 1 110 0
 221 0022 3220     		movs	r0, #50
 222 0024 FFF7FEFF 		bl	PWM_1_WriteCompare
 223              	.LVL17:
 111:main.c        ****     PWM_2_WriteCompare(50);
 224              		.loc 1 111 0
 225 0028 3220     		movs	r0, #50
 226 002a FFF7FEFF 		bl	PWM_2_WriteCompare
 227              	.LVL18:
 228 002e 08BD     		pop	{r3, pc}
 229              		.cfi_endproc
 230              	.LFE67:
 231              		.size	turnRight, .-turnRight
ARM GAS  C:\Users\dulan\AppData\Local\Temp\ccUumg8J.s 			page 7


 232              		.section	.text.reverse,"ax",%progbits
 233              		.align	2
 234              		.global	reverse
 235              		.thumb
 236              		.thumb_func
 237              		.type	reverse, %function
 238              	reverse:
 239              	.LFB68:
 112:main.c        **** //    PWM_1_WriteCompare(33);
 113:main.c        **** //    PWM_2_WriteCompare(68);
 114:main.c        **** //    while(Sout_R_Read()==0){//wait while right is on line
 115:main.c        **** //       ;;
 116:main.c        **** //    }
 117:main.c        **** //    while(!(Sout_M1_Read()==0 &&Sout_M1_Read()==0)){//wait while middle sensors off line
 118:main.c        **** //       ;;
 119:main.c        **** //    }
 120:main.c        **** //    isTurning=false;
 121:main.c        **** //    PWM_1_WriteCompare(65);
 122:main.c        **** //    PWM_2_WriteCompare(66);
 123:main.c        **** }
 124:main.c        **** 
 125:main.c        **** void reverse(){
 240              		.loc 1 125 0
 241              		.cfi_startproc
 242              		@ args = 0, pretend = 0, frame = 0
 243              		@ frame_needed = 0, uses_anonymous_args = 0
 244 0000 08B5     		push	{r3, lr}
 245              		.cfi_def_cfa_offset 8
 246              		.cfi_offset 3, -8
 247              		.cfi_offset 14, -4
 126:main.c        ****     PWM_1_WriteCompare(30);
 248              		.loc 1 126 0
 249 0002 1E20     		movs	r0, #30
 250 0004 FFF7FEFF 		bl	PWM_1_WriteCompare
 251              	.LVL19:
 127:main.c        ****     PWM_2_WriteCompare(30);
 252              		.loc 1 127 0
 253 0008 1E20     		movs	r0, #30
 254 000a FFF7FEFF 		bl	PWM_2_WriteCompare
 255              	.LVL20:
 256 000e 08BD     		pop	{r3, pc}
 257              		.cfi_endproc
 258              	.LFE68:
 259              		.size	reverse, .-reverse
 260              		.section	.text.turn_180,"ax",%progbits
 261              		.align	2
 262              		.global	turn_180
 263              		.thumb
 264              		.thumb_func
 265              		.type	turn_180, %function
 266              	turn_180:
 267              	.LFB69:
 128:main.c        **** }
 129:main.c        **** void turn_180(){
 268              		.loc 1 129 0
 269              		.cfi_startproc
 270              		@ args = 0, pretend = 0, frame = 0
ARM GAS  C:\Users\dulan\AppData\Local\Temp\ccUumg8J.s 			page 8


 271              		@ frame_needed = 0, uses_anonymous_args = 0
 272 0000 08B5     		push	{r3, lr}
 273              		.cfi_def_cfa_offset 8
 274              		.cfi_offset 3, -8
 275              		.cfi_offset 14, -4
 130:main.c        ****     QuadDec_M1_SetCounter(0);
 276              		.loc 1 130 0
 277 0002 0020     		movs	r0, #0
 278 0004 FFF7FEFF 		bl	QuadDec_M1_SetCounter
 279              	.LVL21:
 131:main.c        ****     PWM_1_WriteCompare(33);
 280              		.loc 1 131 0
 281 0008 2120     		movs	r0, #33
 282 000a FFF7FEFF 		bl	PWM_1_WriteCompare
 283              	.LVL22:
 132:main.c        ****     PWM_2_WriteCompare(68);
 284              		.loc 1 132 0
 285 000e 4420     		movs	r0, #68
 286 0010 FFF7FEFF 		bl	PWM_2_WriteCompare
 287              	.LVL23:
 288              	.L17:
 133:main.c        ****      while(abs(QuadDec_M1_GetCounter())<160){
 289              		.loc 1 133 0 discriminator 1
 290 0014 FFF7FEFF 		bl	QuadDec_M1_GetCounter
 291              	.LVL24:
 292 0018 0028     		cmp	r0, #0
 293 001a B8BF     		it	lt
 294 001c 4042     		rsblt	r0, r0, #0
 295 001e 9F28     		cmp	r0, #159
 296 0020 F8DD     		ble	.L17
 134:main.c        ****         ;;
 135:main.c        ****     }
 136:main.c        ****     PWM_1_WriteCompare(50);
 297              		.loc 1 136 0
 298 0022 3220     		movs	r0, #50
 299 0024 FFF7FEFF 		bl	PWM_1_WriteCompare
 300              	.LVL25:
 137:main.c        ****     PWM_2_WriteCompare(50);
 301              		.loc 1 137 0
 302 0028 3220     		movs	r0, #50
 303 002a FFF7FEFF 		bl	PWM_2_WriteCompare
 304              	.LVL26:
 138:main.c        ****     reverse();
 305              		.loc 1 138 0
 306 002e FFF7FEFF 		bl	reverse
 307              	.LVL27:
 139:main.c        ****     CyDelay(500);
 308              		.loc 1 139 0
 309 0032 4FF4FA70 		mov	r0, #500
 310 0036 FFF7FEFF 		bl	CyDelay
 311              	.LVL28:
 312 003a 08BD     		pop	{r3, pc}
 313              		.cfi_endproc
 314              	.LFE69:
 315              		.size	turn_180, .-turn_180
 316              		.section	.text.goStraight_cm,"ax",%progbits
 317              		.align	2
ARM GAS  C:\Users\dulan\AppData\Local\Temp\ccUumg8J.s 			page 9


 318              		.global	goStraight_cm
 319              		.thumb
 320              		.thumb_func
 321              		.type	goStraight_cm, %function
 322              	goStraight_cm:
 323              	.LFB70:
 140:main.c        **** }
 141:main.c        **** 
 142:main.c        **** void goStraight_cm(int distance){
 324              		.loc 1 142 0
 325              		.cfi_startproc
 326              		@ args = 0, pretend = 0, frame = 0
 327              		@ frame_needed = 0, uses_anonymous_args = 0
 328              	.LVL29:
 329 0000 10B5     		push	{r4, lr}
 330              		.cfi_def_cfa_offset 8
 331              		.cfi_offset 4, -8
 332              		.cfi_offset 14, -4
 333 0002 0446     		mov	r4, r0
 143:main.c        ****     
 144:main.c        ****     QuadDec_M1_SetCounter(0);
 334              		.loc 1 144 0
 335 0004 0020     		movs	r0, #0
 336              	.LVL30:
 337 0006 FFF7FEFF 		bl	QuadDec_M1_SetCounter
 338              	.LVL31:
 145:main.c        ****     
 146:main.c        ****     while(QuadDec_M1_GetCounter()<(distance*ENC_VALUE_PER_CM)){
 339              		.loc 1 146 0
 340 000a 24E0     		b	.L20
 341              	.L25:
 147:main.c        ****             //comp0==>middle left comp1==>middle right
 148:main.c        ****         if(comp0_sum>0 && comp1_sum==0){//s_ML out of line
 342              		.loc 1 148 0
 343 000c 174B     		ldr	r3, .L27
 344 000e 1B78     		ldrb	r3, [r3]	@ zero_extendqisi2
 345 0010 4BB1     		cbz	r3, .L21
 346              		.loc 1 148 0 is_stmt 0 discriminator 1
 347 0012 174A     		ldr	r2, .L27+4
 348 0014 1278     		ldrb	r2, [r2]	@ zero_extendqisi2
 349 0016 32B9     		cbnz	r2, .L21
 149:main.c        ****             PWM_2_WriteCompare(PWM_2_ReadCompare() +1);
 350              		.loc 1 149 0 is_stmt 1
 351 0018 FFF7FEFF 		bl	PWM_2_ReadCompare
 352              	.LVL32:
 353 001c 0130     		adds	r0, r0, #1
 354 001e C0B2     		uxtb	r0, r0
 355 0020 FFF7FEFF 		bl	PWM_2_WriteCompare
 356              	.LVL33:
 357 0024 17E0     		b	.L20
 358              	.L21:
 150:main.c        ****         }else if(comp0_sum==0 && comp1_sum>0){//s_MR out of line
 359              		.loc 1 150 0
 360 0026 4BB9     		cbnz	r3, .L23
 361              		.loc 1 150 0 is_stmt 0 discriminator 1
 362 0028 114A     		ldr	r2, .L27+4
 363 002a 1278     		ldrb	r2, [r2]	@ zero_extendqisi2
ARM GAS  C:\Users\dulan\AppData\Local\Temp\ccUumg8J.s 			page 10


 364 002c 32B1     		cbz	r2, .L23
 151:main.c        ****             PWM_1_WriteCompare(PWM_1_ReadCompare() +1);
 365              		.loc 1 151 0 is_stmt 1
 366 002e FFF7FEFF 		bl	PWM_1_ReadCompare
 367              	.LVL34:
 368 0032 0130     		adds	r0, r0, #1
 369 0034 C0B2     		uxtb	r0, r0
 370 0036 FFF7FEFF 		bl	PWM_1_WriteCompare
 371              	.LVL35:
 372 003a 0CE0     		b	.L20
 373              	.L23:
 152:main.c        ****             
 153:main.c        ****         }else if(comp1_sum==0 && comp0_sum==0){
 374              		.loc 1 153 0
 375 003c 0C4A     		ldr	r2, .L27+4
 376 003e 1278     		ldrb	r2, [r2]	@ zero_extendqisi2
 377 0040 3AB9     		cbnz	r2, .L24
 378              		.loc 1 153 0 is_stmt 0 discriminator 1
 379 0042 33B9     		cbnz	r3, .L24
 154:main.c        ****             PWM_1_WriteCompare(68);
 380              		.loc 1 154 0 is_stmt 1
 381 0044 4420     		movs	r0, #68
 382 0046 FFF7FEFF 		bl	PWM_1_WriteCompare
 383              	.LVL36:
 155:main.c        ****             PWM_2_WriteCompare(69);
 384              		.loc 1 155 0
 385 004a 4520     		movs	r0, #69
 386 004c FFF7FEFF 		bl	PWM_2_WriteCompare
 387              	.LVL37:
 388 0050 01E0     		b	.L20
 389              	.L24:
 156:main.c        ****         }else{
 157:main.c        ****             reverse();
 390              		.loc 1 157 0
 391 0052 FFF7FEFF 		bl	reverse
 392              	.LVL38:
 393              	.L20:
 146:main.c        ****             //comp0==>middle left comp1==>middle right
 394              		.loc 1 146 0
 395 0056 FFF7FEFF 		bl	QuadDec_M1_GetCounter
 396              	.LVL39:
 397 005a 04EB8403 		add	r3, r4, r4, lsl #2
 398 005e 04EB4303 		add	r3, r4, r3, lsl #1
 399 0062 9842     		cmp	r0, r3
 400 0064 D2DB     		blt	.L25
 158:main.c        ****         }
 159:main.c        ****     }
 160:main.c        ****     stop();
 401              		.loc 1 160 0
 402 0066 FFF7FEFF 		bl	stop
 403              	.LVL40:
 404 006a 10BD     		pop	{r4, pc}
 405              	.LVL41:
 406              	.L28:
 407              		.align	2
 408              	.L27:
 409 006c 00000000 		.word	comp0_sum
ARM GAS  C:\Users\dulan\AppData\Local\Temp\ccUumg8J.s 			page 11


 410 0070 00000000 		.word	comp1_sum
 411              		.cfi_endproc
 412              	.LFE70:
 413              		.size	goStraight_cm, .-goStraight_cm
 414              		.section	.text.changeDirection,"ax",%progbits
 415              		.align	2
 416              		.global	changeDirection
 417              		.thumb
 418              		.thumb_func
 419              		.type	changeDirection, %function
 420              	changeDirection:
 421              	.LFB71:
 161:main.c        ****     
 162:main.c        **** }
 163:main.c        **** 
 164:main.c        **** void changeDirection(RobotDirection startDirection, RobotDirection endDirection){
 422              		.loc 1 164 0
 423              		.cfi_startproc
 424              		@ args = 0, pretend = 0, frame = 0
 425              		@ frame_needed = 0, uses_anonymous_args = 0
 426              	.LVL42:
 427 0000 08B5     		push	{r3, lr}
 428              		.cfi_def_cfa_offset 8
 429              		.cfi_offset 3, -8
 430              		.cfi_offset 14, -4
 165:main.c        **** 
 166:main.c        ****         switch(startDirection){
 431              		.loc 1 166 0
 432 0002 0328     		cmp	r0, #3
 433 0004 3ED8     		bhi	.L29
 434 0006 DFE800F0 		tbb	[pc, r0]
 435              	.L32:
 436 000a 02       		.byte	(.L31-.L32)/2
 437 000b 21       		.byte	(.L33-.L32)/2
 438 000c 12       		.byte	(.L34-.L32)/2
 439 000d 2F       		.byte	(.L35-.L32)/2
 440              		.p2align 1
 441              	.L31:
 167:main.c        ****             case NORTH:
 168:main.c        ****                  switch(endDirection){
 442              		.loc 1 168 0
 443 000e 0229     		cmp	r1, #2
 444 0010 04D0     		beq	.L36
 445 0012 0329     		cmp	r1, #3
 446 0014 08D0     		beq	.L37
 447 0016 0129     		cmp	r1, #1
 448 0018 34D1     		bne	.L29
 449 001a 02E0     		b	.L38
 450              	.L36:
 169:main.c        ****                     case NORTH:
 170:main.c        ****                          
 171:main.c        ****                          break;
 172:main.c        ****                    
 173:main.c        ****                     case SOUTH:
 174:main.c        ****                          turn_180();
 451              		.loc 1 174 0
 452 001c FFF7FEFF 		bl	turn_180
ARM GAS  C:\Users\dulan\AppData\Local\Temp\ccUumg8J.s 			page 12


 453              	.LVL43:
 175:main.c        ****                          break;
 454              		.loc 1 175 0
 455 0020 08BD     		pop	{r3, pc}
 456              	.LVL44:
 457              	.L38:
 176:main.c        ****                 
 177:main.c        ****                     case EAST:
 178:main.c        ****                         turnRight();
 458              		.loc 1 178 0
 459 0022 FFF7FEFF 		bl	turnRight
 460              	.LVL45:
 179:main.c        ****                          break;
 461              		.loc 1 179 0
 462 0026 08BD     		pop	{r3, pc}
 463              	.LVL46:
 464              	.L37:
 180:main.c        ****                     
 181:main.c        ****                     case WEST:
 182:main.c        ****                         turnLeft();
 465              		.loc 1 182 0
 466 0028 FFF7FEFF 		bl	turnLeft
 467              	.LVL47:
 183:main.c        ****                          break;
 468              		.loc 1 183 0
 469 002c 08BD     		pop	{r3, pc}
 470              	.LVL48:
 471              	.L34:
 184:main.c        ****                     
 185:main.c        ****                  }
 186:main.c        ****             
 187:main.c        ****                  break;
 188:main.c        ****             
 189:main.c        ****             case SOUTH:
 190:main.c        ****                 switch(endDirection){
 472              		.loc 1 190 0
 473 002e 0129     		cmp	r1, #1
 474 0030 06D0     		beq	.L39
 475 0032 11B1     		cbz	r1, .L40
 476 0034 0329     		cmp	r1, #3
 477 0036 06D0     		beq	.L41
 478 0038 08BD     		pop	{r3, pc}
 479              	.L40:
 191:main.c        ****                     case NORTH:
 192:main.c        ****                          turn_180();
 480              		.loc 1 192 0
 481 003a FFF7FEFF 		bl	turn_180
 482              	.LVL49:
 193:main.c        ****                          break;
 483              		.loc 1 193 0
 484 003e 08BD     		pop	{r3, pc}
 485              	.LVL50:
 486              	.L39:
 194:main.c        ****                    
 195:main.c        ****                     case SOUTH:
 196:main.c        ****                          
 197:main.c        ****                          break;
ARM GAS  C:\Users\dulan\AppData\Local\Temp\ccUumg8J.s 			page 13


 198:main.c        ****                 
 199:main.c        ****                     case EAST:
 200:main.c        ****                          turnLeft();
 487              		.loc 1 200 0
 488 0040 FFF7FEFF 		bl	turnLeft
 489              	.LVL51:
 201:main.c        ****                          break;
 490              		.loc 1 201 0
 491 0044 08BD     		pop	{r3, pc}
 492              	.LVL52:
 493              	.L41:
 202:main.c        ****                     
 203:main.c        ****                     case WEST:
 204:main.c        ****                          turnRight();
 494              		.loc 1 204 0
 495 0046 FFF7FEFF 		bl	turnRight
 496              	.LVL53:
 205:main.c        ****                          break;
 497              		.loc 1 205 0
 498 004a 08BD     		pop	{r3, pc}
 499              	.LVL54:
 500              	.L33:
 206:main.c        ****                     
 207:main.c        ****                  }
 208:main.c        ****             
 209:main.c        ****                  break;
 210:main.c        ****             
 211:main.c        ****             case EAST:
 212:main.c        ****                 switch(endDirection){
 501              		.loc 1 212 0
 502 004c 0229     		cmp	r1, #2
 503 004e 05D0     		beq	.L42
 504 0050 0329     		cmp	r1, #3
 505 0052 06D0     		beq	.L43
 506 0054 B1B9     		cbnz	r1, .L29
 213:main.c        ****                     case NORTH:
 214:main.c        ****                          turnLeft();
 507              		.loc 1 214 0
 508 0056 FFF7FEFF 		bl	turnLeft
 509              	.LVL55:
 215:main.c        ****                          break;
 510              		.loc 1 215 0
 511 005a 08BD     		pop	{r3, pc}
 512              	.LVL56:
 513              	.L42:
 216:main.c        ****                    
 217:main.c        ****                     case SOUTH:
 218:main.c        ****                          turnRight();
 514              		.loc 1 218 0
 515 005c FFF7FEFF 		bl	turnRight
 516              	.LVL57:
 219:main.c        ****                          break;
 517              		.loc 1 219 0
 518 0060 08BD     		pop	{r3, pc}
 519              	.LVL58:
 520              	.L43:
 220:main.c        ****                 
ARM GAS  C:\Users\dulan\AppData\Local\Temp\ccUumg8J.s 			page 14


 221:main.c        ****                     case EAST:
 222:main.c        ****                         
 223:main.c        ****                          break;
 224:main.c        ****                     
 225:main.c        ****                     case WEST:
 226:main.c        ****                          turn_180();
 521              		.loc 1 226 0
 522 0062 FFF7FEFF 		bl	turn_180
 523              	.LVL59:
 227:main.c        ****                          break;
 524              		.loc 1 227 0
 525 0066 08BD     		pop	{r3, pc}
 526              	.LVL60:
 527              	.L35:
 228:main.c        ****                     
 229:main.c        ****                  }
 230:main.c        ****             
 231:main.c        ****                  break;
 232:main.c        ****             
 233:main.c        ****             case WEST:
 234:main.c        ****                 switch(endDirection){
 528              		.loc 1 234 0
 529 0068 0129     		cmp	r1, #1
 530 006a 09D0     		beq	.L45
 531 006c 11B1     		cbz	r1, .L46
 532 006e 0229     		cmp	r1, #2
 533 0070 03D0     		beq	.L47
 534 0072 08BD     		pop	{r3, pc}
 535              	.L46:
 235:main.c        ****                     case NORTH:
 236:main.c        ****                          turnRight();
 536              		.loc 1 236 0
 537 0074 FFF7FEFF 		bl	turnRight
 538              	.LVL61:
 237:main.c        ****                          break;
 539              		.loc 1 237 0
 540 0078 08BD     		pop	{r3, pc}
 541              	.LVL62:
 542              	.L47:
 238:main.c        ****                    
 239:main.c        ****                     case SOUTH:
 240:main.c        ****                          turnLeft();
 543              		.loc 1 240 0
 544 007a FFF7FEFF 		bl	turnLeft
 545              	.LVL63:
 241:main.c        ****                          break;
 546              		.loc 1 241 0
 547 007e 08BD     		pop	{r3, pc}
 548              	.LVL64:
 549              	.L45:
 242:main.c        ****                 
 243:main.c        ****                     case EAST:
 244:main.c        ****                          turn_180();
 550              		.loc 1 244 0
 551 0080 FFF7FEFF 		bl	turn_180
 552              	.LVL65:
 553              	.L29:
ARM GAS  C:\Users\dulan\AppData\Local\Temp\ccUumg8J.s 			page 15


 554 0084 08BD     		pop	{r3, pc}
 555              		.cfi_endproc
 556              	.LFE71:
 557              		.size	changeDirection, .-changeDirection
 558 0086 00BF     		.section	.text.goStraight,"ax",%progbits
 559              		.align	2
 560              		.global	goStraight
 561              		.thumb
 562              		.thumb_func
 563              		.type	goStraight, %function
 564              	goStraight:
 565              	.LFB72:
 245:main.c        ****                          break;
 246:main.c        ****                     
 247:main.c        ****                     case WEST:
 248:main.c        ****                     
 249:main.c        ****                          break;
 250:main.c        ****                     
 251:main.c        ****                  }
 252:main.c        ****             
 253:main.c        ****                  break;
 254:main.c        ****             
 255:main.c        ****         }
 256:main.c        ****     
 257:main.c        **** }
 258:main.c        **** 
 259:main.c        **** void goStraight(){
 566              		.loc 1 259 0
 567              		.cfi_startproc
 568              		@ args = 0, pretend = 0, frame = 0
 569              		@ frame_needed = 0, uses_anonymous_args = 0
 570 0000 08B5     		push	{r3, lr}
 571              		.cfi_def_cfa_offset 8
 572              		.cfi_offset 3, -8
 573              		.cfi_offset 14, -4
 260:main.c        ****     
 261:main.c        ****         //comp0==>middle left comp1==>middle right
 262:main.c        ****     if(comp0_sum>0 && comp1_sum==0){//s_ML out of line
 574              		.loc 1 262 0
 575 0002 134B     		ldr	r3, .L55
 576 0004 1B78     		ldrb	r3, [r3]	@ zero_extendqisi2
 577 0006 4BB1     		cbz	r3, .L50
 578              		.loc 1 262 0 is_stmt 0 discriminator 1
 579 0008 124A     		ldr	r2, .L55+4
 580 000a 1278     		ldrb	r2, [r2]	@ zero_extendqisi2
 581 000c 32B9     		cbnz	r2, .L50
 263:main.c        ****         PWM_2_WriteCompare(PWM_2_ReadCompare() +1);
 582              		.loc 1 263 0 is_stmt 1
 583 000e FFF7FEFF 		bl	PWM_2_ReadCompare
 584              	.LVL66:
 585 0012 0130     		adds	r0, r0, #1
 586 0014 C0B2     		uxtb	r0, r0
 587 0016 FFF7FEFF 		bl	PWM_2_WriteCompare
 588              	.LVL67:
 589 001a 08BD     		pop	{r3, pc}
 590              	.L50:
 264:main.c        ****     }else if(comp0_sum==0 && comp1_sum>0){//s_MR out of line
ARM GAS  C:\Users\dulan\AppData\Local\Temp\ccUumg8J.s 			page 16


 591              		.loc 1 264 0
 592 001c 4BB9     		cbnz	r3, .L52
 593              		.loc 1 264 0 is_stmt 0 discriminator 1
 594 001e 0D4A     		ldr	r2, .L55+4
 595 0020 1278     		ldrb	r2, [r2]	@ zero_extendqisi2
 596 0022 32B1     		cbz	r2, .L52
 265:main.c        ****         PWM_1_WriteCompare(PWM_1_ReadCompare() +1);
 597              		.loc 1 265 0 is_stmt 1
 598 0024 FFF7FEFF 		bl	PWM_1_ReadCompare
 599              	.LVL68:
 600 0028 0130     		adds	r0, r0, #1
 601 002a C0B2     		uxtb	r0, r0
 602 002c FFF7FEFF 		bl	PWM_1_WriteCompare
 603              	.LVL69:
 604 0030 08BD     		pop	{r3, pc}
 605              	.L52:
 266:main.c        ****         
 267:main.c        ****     }else if(comp1_sum==0 && comp0_sum==0){
 606              		.loc 1 267 0
 607 0032 084A     		ldr	r2, .L55+4
 608 0034 1278     		ldrb	r2, [r2]	@ zero_extendqisi2
 609 0036 3AB9     		cbnz	r2, .L53
 610              		.loc 1 267 0 is_stmt 0 discriminator 1
 611 0038 33B9     		cbnz	r3, .L53
 268:main.c        ****         PWM_1_WriteCompare(70);
 612              		.loc 1 268 0 is_stmt 1
 613 003a 4620     		movs	r0, #70
 614 003c FFF7FEFF 		bl	PWM_1_WriteCompare
 615              	.LVL70:
 269:main.c        ****         PWM_2_WriteCompare(71);
 616              		.loc 1 269 0
 617 0040 4720     		movs	r0, #71
 618 0042 FFF7FEFF 		bl	PWM_2_WriteCompare
 619              	.LVL71:
 620 0046 08BD     		pop	{r3, pc}
 621              	.L53:
 270:main.c        ****     }else{
 271:main.c        ****         reverse();
 622              		.loc 1 271 0
 623 0048 FFF7FEFF 		bl	reverse
 624              	.LVL72:
 625 004c 08BD     		pop	{r3, pc}
 626              	.L56:
 627 004e 00BF     		.align	2
 628              	.L55:
 629 0050 00000000 		.word	comp0_sum
 630 0054 00000000 		.word	comp1_sum
 631              		.cfi_endproc
 632              	.LFE72:
 633              		.size	goStraight, .-goStraight
 634              		.section	.text.main,"ax",%progbits
 635              		.align	2
 636              		.global	main
 637              		.thumb
 638              		.thumb_func
 639              		.type	main, %function
 640              	main:
ARM GAS  C:\Users\dulan\AppData\Local\Temp\ccUumg8J.s 			page 17


 641              	.LFB73:
 272:main.c        ****     }
 273:main.c        ****     
 274:main.c        ****     
 275:main.c        **** }
 276:main.c        **** 
 277:main.c        **** int main(void)
 278:main.c        **** {
 642              		.loc 1 278 0
 643              		.cfi_startproc
 644              		@ args = 0, pretend = 0, frame = 0
 645              		@ frame_needed = 0, uses_anonymous_args = 0
 646 0000 10B5     		push	{r4, lr}
 647              		.cfi_def_cfa_offset 8
 648              		.cfi_offset 4, -8
 649              		.cfi_offset 14, -4
 650 0002 82B0     		sub	sp, sp, #8
 651              		.cfi_def_cfa_offset 16
 279:main.c        ****     CyGlobalIntEnable; /* Enable global interrupts. */
 652              		.loc 1 279 0
 653              		.syntax unified
 654              	@ 279 "main.c" 1
 655 0004 62B6     		CPSIE   i
 656              	@ 0 "" 2
 280:main.c        **** 
 281:main.c        ****     /* Place your initialization/startup code here (e.g. MyInst_Start()) */
 282:main.c        ****     Timer_1_Start();
 657              		.loc 1 282 0
 658              		.thumb
 659              		.syntax unified
 660 0006 FFF7FEFF 		bl	Timer_1_Start
 661              	.LVL73:
 283:main.c        ****     
 284:main.c        ****     isr_1_StartEx(isr_1_handler);
 662              		.loc 1 284 0
 663 000a 8648     		ldr	r0, .L102
 664 000c FFF7FEFF 		bl	isr_1_StartEx
 665              	.LVL74:
 285:main.c        ****     
 286:main.c        ****     //start comparators
 287:main.c        ****     Comp_0_Start();
 666              		.loc 1 287 0
 667 0010 FFF7FEFF 		bl	Comp_0_Start
 668              	.LVL75:
 288:main.c        ****     Comp_1_Start();
 669              		.loc 1 288 0
 670 0014 FFF7FEFF 		bl	Comp_1_Start
 671              	.LVL76:
 289:main.c        ****     Comp_2_Start();
 672              		.loc 1 289 0
 673 0018 FFF7FEFF 		bl	Comp_2_Start
 674              	.LVL77:
 290:main.c        ****     Comp_3_Start();
 675              		.loc 1 290 0
 676 001c FFF7FEFF 		bl	Comp_3_Start
 677              	.LVL78:
 291:main.c        ****     
ARM GAS  C:\Users\dulan\AppData\Local\Temp\ccUumg8J.s 			page 18


 292:main.c        ****     /*Start PWM Clk*/
 293:main.c        ****     Clock_PWM_Start(); 
 678              		.loc 1 293 0
 679 0020 FFF7FEFF 		bl	Clock_PWM_Start
 680              	.LVL79:
 294:main.c        ****     //Start PWM
 295:main.c        ****     PWM_1_Start();
 681              		.loc 1 295 0
 682 0024 FFF7FEFF 		bl	PWM_1_Start
 683              	.LVL80:
 296:main.c        ****     PWM_2_Start();
 684              		.loc 1 296 0
 685 0028 FFF7FEFF 		bl	PWM_2_Start
 686              	.LVL81:
 297:main.c        ****      
 298:main.c        ****     // write comparision int for MC33926 duty cycle must me larger than 10% and less than 90%
 299:main.c        **** 
 300:main.c        ****     
 301:main.c        ****     PWM_1_WritePeriod(100);
 687              		.loc 1 301 0
 688 002c 6420     		movs	r0, #100
 689 002e FFF7FEFF 		bl	PWM_1_WritePeriod
 690              	.LVL82:
 302:main.c        ****     PWM_2_WritePeriod(100);
 691              		.loc 1 302 0
 692 0032 6420     		movs	r0, #100
 693 0034 FFF7FEFF 		bl	PWM_2_WritePeriod
 694              	.LVL83:
 303:main.c        ****     
 304:main.c        ****     PWM_1_WriteCompare(50);
 695              		.loc 1 304 0
 696 0038 3220     		movs	r0, #50
 697 003a FFF7FEFF 		bl	PWM_1_WriteCompare
 698              	.LVL84:
 305:main.c        ****     PWM_2_WriteCompare(50);
 699              		.loc 1 305 0
 700 003e 3220     		movs	r0, #50
 701 0040 FFF7FEFF 		bl	PWM_2_WriteCompare
 702              	.LVL85:
 306:main.c        ****     QuadDec_M1_Start();
 703              		.loc 1 306 0
 704 0044 FFF7FEFF 		bl	QuadDec_M1_Start
 705              	.LVL86:
 307:main.c        ****     QuadDec_M2_Start();
 706              		.loc 1 307 0
 707 0048 FFF7FEFF 		bl	QuadDec_M2_Start
 708              	.LVL87:
 308:main.c        **** 
 309:main.c        **** //
 310:main.c        **** //   dijkstra(food_list[0][1],food_list[0][0], food_list[1][1],food_list[1][0]);
 311:main.c        **** //   //takes in row,column
 312:main.c        **** //   getMovementArray(food_list[0][1],food_list[0][0], food_list[1][1],food_list[1][0],startDirecti
 313:main.c        ****         // Find the shortest path from (startX, startY) to (targetX, targetY)
 314:main.c        ****    dijkstra(9,7, 3, 5);
 709              		.loc 1 314 0
 710 004c 0523     		movs	r3, #5
 711 004e 0322     		movs	r2, #3
ARM GAS  C:\Users\dulan\AppData\Local\Temp\ccUumg8J.s 			page 19


 712 0050 0721     		movs	r1, #7
 713 0052 0920     		movs	r0, #9
 714 0054 FFF7FEFF 		bl	dijkstra
 715              	.LVL88:
 315:main.c        ****    //takes in row,column
 316:main.c        ****    getMovementArray(9,7, 3, 5,EAST);
 716              		.loc 1 316 0
 717 0058 0123     		movs	r3, #1
 718 005a 0093     		str	r3, [sp]
 719 005c 0523     		movs	r3, #5
 720 005e 0322     		movs	r2, #3
 721 0060 0721     		movs	r1, #7
 722 0062 0920     		movs	r0, #9
 723 0064 FFF7FEFF 		bl	getMovementArray
 724              	.LVL89:
 725              	.LBB2:
 317:main.c        ****     
 318:main.c        ****     //this loops through all the movement required in the path
 319:main.c        ****     //movement contains distance for going straight and a turn
 320:main.c        ****     for(int i=0; i<40;i++){//length should be how many movements there should be
 726              		.loc 1 320 0
 727 0068 0024     		movs	r4, #0
 728 006a 37E0     		b	.L58
 729              	.LVL90:
 730              	.L69:
 321:main.c        ****         if(i!=0){
 731              		.loc 1 321 0
 732 006c 34B1     		cbz	r4, .L59
 322:main.c        ****             goStraight_cm(movementArray[i].distance-5);//if not the first movement remove 5 cm as t
 733              		.loc 1 322 0
 734 006e 6E4B     		ldr	r3, .L102+4
 735 0070 53F83400 		ldr	r0, [r3, r4, lsl #3]
 736 0074 0538     		subs	r0, r0, #5
 737 0076 FFF7FEFF 		bl	goStraight_cm
 738              	.LVL91:
 739 007a 04E0     		b	.L60
 740              	.L59:
 323:main.c        ****         }else{
 324:main.c        ****             goStraight_cm(movementArray[i].distance);
 741              		.loc 1 324 0
 742 007c 6A4B     		ldr	r3, .L102+4
 743 007e 53F83400 		ldr	r0, [r3, r4, lsl #3]
 744 0082 FFF7FEFF 		bl	goStraight_cm
 745              	.LVL92:
 746              	.L60:
 325:main.c        ****         }
 326:main.c        ****         if(movementArray[i].turnDirection=='R'){
 747              		.loc 1 326 0
 748 0086 684B     		ldr	r3, .L102+4
 749 0088 03EBC403 		add	r3, r3, r4, lsl #3
 750 008c 1B79     		ldrb	r3, [r3, #4]	@ zero_extendqisi2
 751 008e 522B     		cmp	r3, #82
 752 0090 0CD1     		bne	.L95
 753 0092 01E0     		b	.L61
 754              	.L63:
 327:main.c        ****            while(Sout_R_Read()!=0){
 328:main.c        ****              goStraight();
ARM GAS  C:\Users\dulan\AppData\Local\Temp\ccUumg8J.s 			page 20


 755              		.loc 1 328 0
 756 0094 FFF7FEFF 		bl	goStraight
 757              	.LVL93:
 758              	.L61:
 327:main.c        ****            while(Sout_R_Read()!=0){
 759              		.loc 1 327 0
 760 0098 FFF7FEFF 		bl	Sout_R_Read
 761              	.LVL94:
 762 009c 0028     		cmp	r0, #0
 763 009e F9D1     		bne	.L63
 329:main.c        ****            }
 330:main.c        ****            if(Sout_R_Read()==0){
 764              		.loc 1 330 0
 765 00a0 FFF7FEFF 		bl	Sout_R_Read
 766              	.LVL95:
 767 00a4 C8B9     		cbnz	r0, .L64
 331:main.c        ****               turnRight();
 768              		.loc 1 331 0
 769 00a6 FFF7FEFF 		bl	turnRight
 770              	.LVL96:
 771 00aa 16E0     		b	.L64
 772              	.L95:
 332:main.c        ****            }
 333:main.c        ****         }else if(movementArray[i].turnDirection=='L'){
 773              		.loc 1 333 0
 774 00ac 4C2B     		cmp	r3, #76
 775 00ae 0CD1     		bne	.L96
 776 00b0 01E0     		b	.L65
 777              	.L67:
 334:main.c        ****            while(Sout_L_Read()!=0){
 335:main.c        ****              goStraight();
 778              		.loc 1 335 0
 779 00b2 FFF7FEFF 		bl	goStraight
 780              	.LVL97:
 781              	.L65:
 334:main.c        ****            while(Sout_L_Read()!=0){
 782              		.loc 1 334 0
 783 00b6 FFF7FEFF 		bl	Sout_L_Read
 784              	.LVL98:
 785 00ba 0028     		cmp	r0, #0
 786 00bc F9D1     		bne	.L67
 336:main.c        ****            }
 337:main.c        ****            if(Sout_L_Read()==0){
 787              		.loc 1 337 0
 788 00be FFF7FEFF 		bl	Sout_L_Read
 789              	.LVL99:
 790 00c2 50B9     		cbnz	r0, .L64
 338:main.c        ****               turnLeft();
 791              		.loc 1 338 0
 792 00c4 FFF7FEFF 		bl	turnLeft
 793              	.LVL100:
 794 00c8 07E0     		b	.L64
 795              	.L96:
 339:main.c        ****            }
 340:main.c        ****         }else if(movementArray[i].turnDirection=='E'){
 796              		.loc 1 340 0
 797 00ca 452B     		cmp	r3, #69
ARM GAS  C:\Users\dulan\AppData\Local\Temp\ccUumg8J.s 			page 21


 798 00cc 05D1     		bne	.L64
 341:main.c        ****             goStraight_cm(3);
 799              		.loc 1 341 0
 800 00ce 0320     		movs	r0, #3
 801 00d0 FFF7FEFF 		bl	goStraight_cm
 802              	.LVL101:
 342:main.c        ****             stop();
 803              		.loc 1 342 0
 804 00d4 FFF7FEFF 		bl	stop
 805              	.LVL102:
 343:main.c        ****             break;
 806              		.loc 1 343 0
 807 00d8 02E0     		b	.L68
 808              	.L64:
 320:main.c        ****         if(i!=0){
 809              		.loc 1 320 0 discriminator 2
 810 00da 0134     		adds	r4, r4, #1
 811              	.LVL103:
 812              	.L58:
 320:main.c        ****         if(i!=0){
 813              		.loc 1 320 0 is_stmt 0 discriminator 1
 814 00dc 272C     		cmp	r4, #39
 815 00de C5DD     		ble	.L69
 816              	.L68:
 817              	.LBE2:
 344:main.c        ****         }
 345:main.c        ****     }
 346:main.c        **** 
 347:main.c        ****     stop();
 818              		.loc 1 347 0 is_stmt 1
 819 00e0 FFF7FEFF 		bl	stop
 820              	.LVL104:
 348:main.c        ****     
 349:main.c        **** //   changeDirection(SOUTH,EAST);
 350:main.c        ****     
 351:main.c        ****     changeDirection(getCurrentDirection(),SOUTH);
 821              		.loc 1 351 0
 822 00e4 FFF7FEFF 		bl	getCurrentDirection
 823              	.LVL105:
 824 00e8 0221     		movs	r1, #2
 825 00ea FFF7FEFF 		bl	changeDirection
 826              	.LVL106:
 352:main.c        **** 
 353:main.c        **** //    
 354:main.c        **** //   dijkstra(food_list[1][1],food_list[1][0], food_list[2][1],food_list[2][0]);
 355:main.c        **** //   //takes in row,column
 356:main.c        **** //   getMovementArray(food_list[1][1],food_list[1][0], food_list[2][1],food_list[2][0],startDirecti
 357:main.c        **** //         Find the shortest path from (startX, startY) to (targetX, targetY)
 358:main.c        ****      dijkstra(3,5, 3, 1);
 827              		.loc 1 358 0
 828 00ee 0123     		movs	r3, #1
 829 00f0 0322     		movs	r2, #3
 830 00f2 0521     		movs	r1, #5
 831 00f4 1046     		mov	r0, r2
 832 00f6 FFF7FEFF 		bl	dijkstra
 833              	.LVL107:
 359:main.c        ****      //takes in row,column
ARM GAS  C:\Users\dulan\AppData\Local\Temp\ccUumg8J.s 			page 22


 360:main.c        ****      getMovementArray(3,5, 3, 1,SOUTH);
 834              		.loc 1 360 0
 835 00fa 0223     		movs	r3, #2
 836 00fc 0093     		str	r3, [sp]
 837 00fe 0123     		movs	r3, #1
 838 0100 0322     		movs	r2, #3
 839 0102 0521     		movs	r1, #5
 840 0104 1046     		mov	r0, r2
 841 0106 FFF7FEFF 		bl	getMovementArray
 842              	.LVL108:
 843              	.LBB3:
 361:main.c        ****     
 362:main.c        ****     //this loops through all the movement required in the path
 363:main.c        ****     //movement contains distance for going straight and a turn
 364:main.c        ****      for(int i=0; i<40;i++){//length should be how many movements there should be
 844              		.loc 1 364 0
 845 010a 0024     		movs	r4, #0
 846              	.LVL109:
 847 010c 37E0     		b	.L70
 848              	.LVL110:
 849              	.L81:
 365:main.c        ****         if(i!=0){
 850              		.loc 1 365 0
 851 010e 34B1     		cbz	r4, .L71
 366:main.c        ****             goStraight_cm(movementArray[i].distance-7);//if not the first movement remove 5 cm as t
 852              		.loc 1 366 0
 853 0110 454B     		ldr	r3, .L102+4
 854 0112 53F83400 		ldr	r0, [r3, r4, lsl #3]
 855 0116 0738     		subs	r0, r0, #7
 856 0118 FFF7FEFF 		bl	goStraight_cm
 857              	.LVL111:
 858 011c 04E0     		b	.L72
 859              	.L71:
 367:main.c        ****         }else{
 368:main.c        ****             goStraight_cm(movementArray[i].distance);
 860              		.loc 1 368 0
 861 011e 424B     		ldr	r3, .L102+4
 862 0120 53F83400 		ldr	r0, [r3, r4, lsl #3]
 863 0124 FFF7FEFF 		bl	goStraight_cm
 864              	.LVL112:
 865              	.L72:
 369:main.c        ****         }
 370:main.c        ****         if(movementArray[i].turnDirection=='R'){
 866              		.loc 1 370 0
 867 0128 3F4B     		ldr	r3, .L102+4
 868 012a 03EBC403 		add	r3, r3, r4, lsl #3
 869 012e 1B79     		ldrb	r3, [r3, #4]	@ zero_extendqisi2
 870 0130 522B     		cmp	r3, #82
 871 0132 0CD1     		bne	.L97
 872 0134 01E0     		b	.L73
 873              	.L75:
 371:main.c        ****            while(Sout_R_Read()!=0){
 372:main.c        ****              goStraight();
 874              		.loc 1 372 0
 875 0136 FFF7FEFF 		bl	goStraight
 876              	.LVL113:
 877              	.L73:
ARM GAS  C:\Users\dulan\AppData\Local\Temp\ccUumg8J.s 			page 23


 371:main.c        ****            while(Sout_R_Read()!=0){
 878              		.loc 1 371 0
 879 013a FFF7FEFF 		bl	Sout_R_Read
 880              	.LVL114:
 881 013e 0028     		cmp	r0, #0
 882 0140 F9D1     		bne	.L75
 373:main.c        ****            }
 374:main.c        ****            if(Sout_R_Read()==0){
 883              		.loc 1 374 0
 884 0142 FFF7FEFF 		bl	Sout_R_Read
 885              	.LVL115:
 886 0146 C8B9     		cbnz	r0, .L76
 375:main.c        ****               turnRight();
 887              		.loc 1 375 0
 888 0148 FFF7FEFF 		bl	turnRight
 889              	.LVL116:
 890 014c 16E0     		b	.L76
 891              	.L97:
 376:main.c        ****            }
 377:main.c        ****         }else if(movementArray[i].turnDirection=='L'){
 892              		.loc 1 377 0
 893 014e 4C2B     		cmp	r3, #76
 894 0150 0CD1     		bne	.L98
 895 0152 01E0     		b	.L77
 896              	.L79:
 378:main.c        ****            while(Sout_L_Read()!=0){
 379:main.c        ****              goStraight();
 897              		.loc 1 379 0
 898 0154 FFF7FEFF 		bl	goStraight
 899              	.LVL117:
 900              	.L77:
 378:main.c        ****            while(Sout_L_Read()!=0){
 901              		.loc 1 378 0
 902 0158 FFF7FEFF 		bl	Sout_L_Read
 903              	.LVL118:
 904 015c 0028     		cmp	r0, #0
 905 015e F9D1     		bne	.L79
 380:main.c        ****            }
 381:main.c        ****            if(Sout_L_Read()==0){
 906              		.loc 1 381 0
 907 0160 FFF7FEFF 		bl	Sout_L_Read
 908              	.LVL119:
 909 0164 50B9     		cbnz	r0, .L76
 382:main.c        ****               turnLeft();
 910              		.loc 1 382 0
 911 0166 FFF7FEFF 		bl	turnLeft
 912              	.LVL120:
 913 016a 07E0     		b	.L76
 914              	.L98:
 383:main.c        ****            }
 384:main.c        ****         }else if(movementArray[i].turnDirection=='E'){
 915              		.loc 1 384 0
 916 016c 452B     		cmp	r3, #69
 917 016e 05D1     		bne	.L76
 385:main.c        ****             goStraight_cm(3);
 918              		.loc 1 385 0
 919 0170 0320     		movs	r0, #3
ARM GAS  C:\Users\dulan\AppData\Local\Temp\ccUumg8J.s 			page 24


 920 0172 FFF7FEFF 		bl	goStraight_cm
 921              	.LVL121:
 386:main.c        ****             stop();
 922              		.loc 1 386 0
 923 0176 FFF7FEFF 		bl	stop
 924              	.LVL122:
 387:main.c        ****             break;
 925              		.loc 1 387 0
 926 017a 02E0     		b	.L80
 927              	.L76:
 364:main.c        ****         if(i!=0){
 928              		.loc 1 364 0 discriminator 2
 929 017c 0134     		adds	r4, r4, #1
 930              	.LVL123:
 931              	.L70:
 364:main.c        ****         if(i!=0){
 932              		.loc 1 364 0 is_stmt 0 discriminator 1
 933 017e 272C     		cmp	r4, #39
 934 0180 C5DD     		ble	.L81
 935              	.L80:
 936              	.LBE3:
 388:main.c        ****         }
 389:main.c        ****     }
 390:main.c        ****     
 391:main.c        ****     changeDirection(getCurrentDirection(),EAST);
 937              		.loc 1 391 0 is_stmt 1
 938 0182 FFF7FEFF 		bl	getCurrentDirection
 939              	.LVL124:
 940 0186 0121     		movs	r1, #1
 941 0188 FFF7FEFF 		bl	changeDirection
 942              	.LVL125:
 392:main.c        **** 
 393:main.c        ****       dijkstra(3,1, 7, 11);
 943              		.loc 1 393 0
 944 018c 0B23     		movs	r3, #11
 945 018e 0722     		movs	r2, #7
 946 0190 0121     		movs	r1, #1
 947 0192 0320     		movs	r0, #3
 948 0194 FFF7FEFF 		bl	dijkstra
 949              	.LVL126:
 394:main.c        ****      //takes in row,column
 395:main.c        ****      getMovementArray(3,1, 7, 11,EAST);
 950              		.loc 1 395 0
 951 0198 0121     		movs	r1, #1
 952 019a 0091     		str	r1, [sp]
 953 019c 0B23     		movs	r3, #11
 954 019e 0722     		movs	r2, #7
 955 01a0 0320     		movs	r0, #3
 956 01a2 FFF7FEFF 		bl	getMovementArray
 957              	.LVL127:
 958              	.LBB4:
 396:main.c        ****     
 397:main.c        ****     //this loops through all the movement required in the path
 398:main.c        ****     //movement contains distance for going straight and a turn
 399:main.c        ****      for(int i=0; i<40;i++){//length should be how many movements there should be
 959              		.loc 1 399 0
 960 01a6 0024     		movs	r4, #0
ARM GAS  C:\Users\dulan\AppData\Local\Temp\ccUumg8J.s 			page 25


 961              	.LVL128:
 962 01a8 37E0     		b	.L82
 963              	.LVL129:
 964              	.L93:
 400:main.c        ****         if(i!=0){
 965              		.loc 1 400 0
 966 01aa 34B1     		cbz	r4, .L83
 401:main.c        ****             goStraight_cm(movementArray[i].distance-7);//if not the first movement remove 5 cm as t
 967              		.loc 1 401 0
 968 01ac 1E4B     		ldr	r3, .L102+4
 969 01ae 53F83400 		ldr	r0, [r3, r4, lsl #3]
 970 01b2 0738     		subs	r0, r0, #7
 971 01b4 FFF7FEFF 		bl	goStraight_cm
 972              	.LVL130:
 973 01b8 04E0     		b	.L84
 974              	.L83:
 402:main.c        ****         }else{
 403:main.c        ****             goStraight_cm(movementArray[i].distance);
 975              		.loc 1 403 0
 976 01ba 1B4B     		ldr	r3, .L102+4
 977 01bc 53F83400 		ldr	r0, [r3, r4, lsl #3]
 978 01c0 FFF7FEFF 		bl	goStraight_cm
 979              	.LVL131:
 980              	.L84:
 404:main.c        ****         }
 405:main.c        ****         if(movementArray[i].turnDirection=='R'){
 981              		.loc 1 405 0
 982 01c4 184B     		ldr	r3, .L102+4
 983 01c6 03EBC403 		add	r3, r3, r4, lsl #3
 984 01ca 1B79     		ldrb	r3, [r3, #4]	@ zero_extendqisi2
 985 01cc 522B     		cmp	r3, #82
 986 01ce 0CD1     		bne	.L99
 987 01d0 01E0     		b	.L85
 988              	.L87:
 406:main.c        ****            while(Sout_R_Read()!=0){
 407:main.c        ****              goStraight();
 989              		.loc 1 407 0
 990 01d2 FFF7FEFF 		bl	goStraight
 991              	.LVL132:
 992              	.L85:
 406:main.c        ****            while(Sout_R_Read()!=0){
 993              		.loc 1 406 0
 994 01d6 FFF7FEFF 		bl	Sout_R_Read
 995              	.LVL133:
 996 01da 0028     		cmp	r0, #0
 997 01dc F9D1     		bne	.L87
 408:main.c        ****            }
 409:main.c        ****            if(Sout_R_Read()==0){
 998              		.loc 1 409 0
 999 01de FFF7FEFF 		bl	Sout_R_Read
 1000              	.LVL134:
 1001 01e2 C8B9     		cbnz	r0, .L88
 410:main.c        ****               turnRight();
 1002              		.loc 1 410 0
 1003 01e4 FFF7FEFF 		bl	turnRight
 1004              	.LVL135:
 1005 01e8 16E0     		b	.L88
ARM GAS  C:\Users\dulan\AppData\Local\Temp\ccUumg8J.s 			page 26


 1006              	.L99:
 411:main.c        ****            }
 412:main.c        ****         }else if(movementArray[i].turnDirection=='L'){
 1007              		.loc 1 412 0
 1008 01ea 4C2B     		cmp	r3, #76
 1009 01ec 0CD1     		bne	.L100
 1010 01ee 01E0     		b	.L89
 1011              	.L91:
 413:main.c        ****            while(Sout_L_Read()!=0){
 414:main.c        ****              goStraight();
 1012              		.loc 1 414 0
 1013 01f0 FFF7FEFF 		bl	goStraight
 1014              	.LVL136:
 1015              	.L89:
 413:main.c        ****            while(Sout_L_Read()!=0){
 1016              		.loc 1 413 0
 1017 01f4 FFF7FEFF 		bl	Sout_L_Read
 1018              	.LVL137:
 1019 01f8 0028     		cmp	r0, #0
 1020 01fa F9D1     		bne	.L91
 415:main.c        ****            }
 416:main.c        ****            if(Sout_L_Read()==0){
 1021              		.loc 1 416 0
 1022 01fc FFF7FEFF 		bl	Sout_L_Read
 1023              	.LVL138:
 1024 0200 50B9     		cbnz	r0, .L88
 417:main.c        ****               turnLeft();
 1025              		.loc 1 417 0
 1026 0202 FFF7FEFF 		bl	turnLeft
 1027              	.LVL139:
 1028 0206 07E0     		b	.L88
 1029              	.L100:
 418:main.c        ****            }
 419:main.c        ****         }else if(movementArray[i].turnDirection=='E'){
 1030              		.loc 1 419 0
 1031 0208 452B     		cmp	r3, #69
 1032 020a 05D1     		bne	.L88
 420:main.c        ****             goStraight_cm(3);
 1033              		.loc 1 420 0
 1034 020c 0320     		movs	r0, #3
 1035 020e FFF7FEFF 		bl	goStraight_cm
 1036              	.LVL140:
 421:main.c        ****             stop();
 1037              		.loc 1 421 0
 1038 0212 FFF7FEFF 		bl	stop
 1039              	.LVL141:
 422:main.c        ****             break;
 1040              		.loc 1 422 0
 1041 0216 02E0     		b	.L92
 1042              	.L88:
 399:main.c        ****         if(i!=0){
 1043              		.loc 1 399 0 discriminator 2
 1044 0218 0134     		adds	r4, r4, #1
 1045              	.LVL142:
 1046              	.L82:
 399:main.c        ****         if(i!=0){
 1047              		.loc 1 399 0 is_stmt 0 discriminator 1
ARM GAS  C:\Users\dulan\AppData\Local\Temp\ccUumg8J.s 			page 27


 1048 021a 272C     		cmp	r4, #39
 1049 021c C5DD     		ble	.L93
 1050              	.L92:
 1051              	.LBE4:
 423:main.c        ****         }
 424:main.c        ****     }
 425:main.c        **** 
 426:main.c        **** 
 427:main.c        **** 
 428:main.c        ****     stop();
 1052              		.loc 1 428 0 is_stmt 1
 1053 021e FFF7FEFF 		bl	stop
 1054              	.LVL143:
 1055              	.L94:
 1056 0222 FEE7     		b	.L94
 1057              	.L103:
 1058              		.align	2
 1059              	.L102:
 1060 0224 00000000 		.word	isr_1_handler
 1061 0228 00000000 		.word	movementArray
 1062              		.cfi_endproc
 1063              	.LFE73:
 1064              		.size	main, .-main
 1065              		.global	current_state
 1066              		.comm	comp3_sum,1,1
 1067              		.comm	comp2_sum,1,1
 1068              		.comm	comp1_sum,1,1
 1069              		.comm	comp0_sum,1,1
 1070              		.global	isTurning
 1071              		.global	count
 1072              		.comm	path_length,4,4
 1073              		.global	timeInterval_s
 1074              		.global	wheelCircumference_cm
 1075              		.global	CPR
 1076              		.data
 1077              		.align	3
 1078              		.type	current_state, %object
 1079              		.size	current_state, 1
 1080              	current_state:
 1081 0000 03       		.byte	3
 1082 0001 00000000 		.space	7
 1082      000000
 1083              		.type	timeInterval_s, %object
 1084              		.size	timeInterval_s, 8
 1085              	timeInterval_s:
 1086 0008 0C022B87 		.word	-2027224564
 1087 000c 16D92540 		.word	1076222230
 1088              		.type	wheelCircumference_cm, %object
 1089              		.size	wheelCircumference_cm, 4
 1090              	wheelCircumference_cm:
 1091 0010 7201A241 		.word	1101136242
 1092              		.type	CPR, %object
 1093              		.size	CPR, 4
 1094              	CPR:
 1095 0014 E4000000 		.word	228
 1096              		.bss
 1097              		.align	2
ARM GAS  C:\Users\dulan\AppData\Local\Temp\ccUumg8J.s 			page 28


 1098              		.set	.LANCHOR0,. + 0
 1099              		.type	count, %object
 1100              		.size	count, 4
 1101              	count:
 1102 0000 00000000 		.space	4
 1103              		.type	isTurning, %object
 1104              		.size	isTurning, 1
 1105              	isTurning:
 1106 0004 00       		.space	1
 1107              		.text
 1108              	.Letext0:
 1109              		.file 2 "c:\\program files (x86)\\cypress\\psoc creator\\4.4\\psoc creator\\import\\gnu\\arm\\5.4.
 1110              		.file 3 "c:\\program files (x86)\\cypress\\psoc creator\\4.4\\psoc creator\\import\\gnu\\arm\\5.4.
 1111              		.file 4 "Generated_Source\\PSoC5/cytypes.h"
 1112              		.file 5 "program.h"
 1113              		.file 6 "Generated_Source\\PSoC5/core_cm3.h"
 1114              		.file 7 "Generated_Source\\PSoC5/Comp_0.h"
 1115              		.file 8 "Generated_Source\\PSoC5/Comp_1.h"
 1116              		.file 9 "Generated_Source\\PSoC5/Comp_2.h"
 1117              		.file 10 "Generated_Source\\PSoC5/Comp_3.h"
 1118              		.file 11 "Generated_Source\\PSoC5/Timer_1.h"
 1119              		.file 12 "Generated_Source\\PSoC5/PWM_1.h"
 1120              		.file 13 "Generated_Source\\PSoC5/PWM_2.h"
 1121              		.file 14 "Generated_Source\\PSoC5/QuadDec_M2.h"
 1122              		.file 15 "Generated_Source\\PSoC5/QuadDec_M1.h"
 1123              		.file 16 "Generated_Source\\PSoC5/CyLib.h"
 1124              		.file 17 "Generated_Source\\PSoC5/Sout_R.h"
 1125              		.file 18 "Generated_Source\\PSoC5/Sout_L.h"
 1126              		.file 19 "Generated_Source\\PSoC5/isr_1.h"
 1127              		.file 20 "Generated_Source\\PSoC5/Clock_PWM.h"