ARM GAS  C:\Users\dulan\AppData\Local\Temp\cc0WAahS.s 			page 1


   1              		.syntax unified
   2              		.cpu cortex-m3
   3              		.fpu softvfp
   4              		.eabi_attribute 20, 1
   5              		.eabi_attribute 21, 1
   6              		.eabi_attribute 23, 3
   7              		.eabi_attribute 24, 1
   8              		.eabi_attribute 25, 1
   9              		.eabi_attribute 26, 1
  10              		.eabi_attribute 30, 1
  11              		.eabi_attribute 34, 1
  12              		.eabi_attribute 18, 4
  13              		.thumb
  14              		.syntax unified
  15              		.file	"main.c"
  16              		.text
  17              	.Ltext0:
  18              		.cfi_sections	.debug_frame
  19              		.section	.text.isr_1_handler,"ax",%progbits
  20              		.align	2
  21              		.global	isr_1_handler
  22              		.thumb
  23              		.thumb_func
  24              		.type	isr_1_handler, %function
  25              	isr_1_handler:
  26              	.LFB64:
  27              		.file 1 "main.c"
   1:main.c        **** /* ========================================
   2:main.c        ****  *
   3:main.c        ****  * Copyright YOUR COMPANY, THE YEAR
   4:main.c        ****  * All Rights Reserved
   5:main.c        ****  * UNPUBLISHED, LICENSED SOFTWARE.
   6:main.c        ****  *
   7:main.c        ****  * CONFIDENTIAL AND PROPRIETARY INFORMATION
   8:main.c        ****  * WHICH IS THE PROPERTY OF your company.
   9:main.c        ****  *
  10:main.c        ****  * ========================================
  11:main.c        **** */
  12:main.c        **** /* ========================================
  13:main.c        ****  * Fully working code: 
  14:main.c        ****  * PWM      : 
  15:main.c        ****  * Encoder  : 
  16:main.c        ****  * ADC      :
  17:main.c        ****  * USB      : port displays speed and position.
  18:main.c        ****  * CMD: "PW xx"
  19:main.c        ****  * Copyright Univ of Auckland, 2016
  20:main.c        ****  * All Rights Reserved
  21:main.c        ****  * UNPUBLISHED, LICENSED SOFTWARE.
  22:main.c        ****  *
  23:main.c        ****  * CONFIDENTIAL AND PROPRIETARY INFORMATION
  24:main.c        ****  * WHICH IS THE PROPERTY OF Univ of Auckland.
  25:main.c        ****  *
  26:main.c        ****  * ========================================
  27:main.c        **** */
  28:main.c        **** 
  29:main.c        **** #include "program.h"
  30:main.c        **** 
ARM GAS  C:\Users\dulan\AppData\Local\Temp\cc0WAahS.s 			page 2


  31:main.c        **** //distance calculation paras
  32:main.c        **** int32 CPR = 228;  // Adjusted for 4x resolution(228/4)
  33:main.c        **** float wheelCircumference_cm = (M_PI*64.46)/10;// wheel circumference wheelDiameter_mm = 64.46)
  34:main.c        **** double timeInterval_s = 10.924; // Effective time interval( (timer period )2.731*4)
  35:main.c        **** int path_length;
  36:main.c        **** 
  37:main.c        **** 
  38:main.c        **** uint32 count = 0;
  39:main.c        **** bool isTurning=false;
  40:main.c        **** 
  41:main.c        **** uint8 comp0_sum;
  42:main.c        **** uint8 comp1_sum;
  43:main.c        **** uint8 comp2_sum;
  44:main.c        **** uint8 comp3_sum;
  45:main.c        **** 
  46:main.c        **** 
  47:main.c        **** int food_list[6][2]= {
  48:main.c        **** {6,5},
  49:main.c        **** {3,15},
  50:main.c        **** {9,17},
  51:main.c        **** {1,3},
  52:main.c        **** {7,15},
  53:main.c        **** {13,9}
  54:main.c        **** };
  55:main.c        **** 
  56:main.c        **** //////need to change for different points
  57:main.c        **** RobotDirection startDirectionArray[5]={
  58:main.c        ****     SOUTH,
  59:main.c        ****     WEST,
  60:main.c        ****     WEST,
  61:main.c        ****     EAST,
  62:main.c        ****     EAST
  63:main.c        ****     
  64:main.c        **** };
  65:main.c        **** 
  66:main.c        **** RobotState current_state = STOP;// intialse state
  67:main.c        **** 
  68:main.c        **** 
  69:main.c        **** 
  70:main.c        **** CY_ISR(isr_1_handler) {
  28              		.loc 1 70 0
  29              		.cfi_startproc
  30              		@ args = 0, pretend = 0, frame = 0
  31              		@ frame_needed = 0, uses_anonymous_args = 0
  32 0000 08B5     		push	{r3, lr}
  33              		.cfi_def_cfa_offset 8
  34              		.cfi_offset 3, -8
  35              		.cfi_offset 14, -4
  71:main.c        ****         //every 1ms 
  72:main.c        ****     
  73:main.c        ****     //sum up comp values every 1ms
  74:main.c        ****     comp0_sum+=Comp_0_GetCompare();
  36              		.loc 1 74 0
  37 0002 FFF7FEFF 		bl	Comp_0_GetCompare
  38              	.LVL0:
  39 0006 164A     		ldr	r2, .L4
  40 0008 1378     		ldrb	r3, [r2]	@ zero_extendqisi2
ARM GAS  C:\Users\dulan\AppData\Local\Temp\cc0WAahS.s 			page 3


  41 000a 1844     		add	r0, r0, r3
  42 000c 1070     		strb	r0, [r2]
  75:main.c        ****     comp1_sum+=Comp_1_GetCompare();
  43              		.loc 1 75 0
  44 000e FFF7FEFF 		bl	Comp_1_GetCompare
  45              	.LVL1:
  46 0012 144A     		ldr	r2, .L4+4
  47 0014 1378     		ldrb	r3, [r2]	@ zero_extendqisi2
  48 0016 1844     		add	r0, r0, r3
  49 0018 1070     		strb	r0, [r2]
  76:main.c        ****     comp2_sum+=Comp_2_GetCompare();
  50              		.loc 1 76 0
  51 001a FFF7FEFF 		bl	Comp_2_GetCompare
  52              	.LVL2:
  53 001e 124A     		ldr	r2, .L4+8
  54 0020 1378     		ldrb	r3, [r2]	@ zero_extendqisi2
  55 0022 1844     		add	r0, r0, r3
  56 0024 1070     		strb	r0, [r2]
  77:main.c        ****     comp3_sum+=Comp_3_GetCompare();
  57              		.loc 1 77 0
  58 0026 FFF7FEFF 		bl	Comp_3_GetCompare
  59              	.LVL3:
  60 002a 104A     		ldr	r2, .L4+12
  61 002c 1378     		ldrb	r3, [r2]	@ zero_extendqisi2
  62 002e 1844     		add	r0, r0, r3
  63 0030 1070     		strb	r0, [r2]
  78:main.c        ****       
  79:main.c        ****     if(count==8){
  64              		.loc 1 79 0
  65 0032 0F4B     		ldr	r3, .L4+16
  66 0034 1B68     		ldr	r3, [r3]
  67 0036 082B     		cmp	r3, #8
  68 0038 0AD1     		bne	.L2
  80:main.c        ****         //reset to check again every 8ms
  81:main.c        ****         comp0_sum=0;
  69              		.loc 1 81 0
  70 003a 0023     		movs	r3, #0
  71 003c 084A     		ldr	r2, .L4
  72 003e 1370     		strb	r3, [r2]
  82:main.c        ****         comp1_sum=0;
  73              		.loc 1 82 0
  74 0040 084A     		ldr	r2, .L4+4
  75 0042 1370     		strb	r3, [r2]
  83:main.c        ****         comp2_sum=0;
  76              		.loc 1 83 0
  77 0044 084A     		ldr	r2, .L4+8
  78 0046 1370     		strb	r3, [r2]
  84:main.c        ****         comp3_sum=0;
  79              		.loc 1 84 0
  80 0048 084A     		ldr	r2, .L4+12
  81 004a 1370     		strb	r3, [r2]
  85:main.c        ****         count=0;
  82              		.loc 1 85 0
  83 004c 084A     		ldr	r2, .L4+16
  84 004e 1360     		str	r3, [r2]
  85              	.L2:
  86:main.c        ****     }
ARM GAS  C:\Users\dulan\AppData\Local\Temp\cc0WAahS.s 			page 4


  87:main.c        ****    
  88:main.c        ****     count++;
  86              		.loc 1 88 0
  87 0050 074A     		ldr	r2, .L4+16
  88 0052 1368     		ldr	r3, [r2]
  89 0054 0133     		adds	r3, r3, #1
  90 0056 1360     		str	r3, [r2]
  89:main.c        ****     Timer_1_ReadStatusRegister();
  91              		.loc 1 89 0
  92 0058 FFF7FEFF 		bl	Timer_1_ReadStatusRegister
  93              	.LVL4:
  94 005c 08BD     		pop	{r3, pc}
  95              	.L5:
  96 005e 00BF     		.align	2
  97              	.L4:
  98 0060 00000000 		.word	comp0_sum
  99 0064 00000000 		.word	comp1_sum
 100 0068 00000000 		.word	comp2_sum
 101 006c 00000000 		.word	comp3_sum
 102 0070 00000000 		.word	.LANCHOR0
 103              		.cfi_endproc
 104              	.LFE64:
 105              		.size	isr_1_handler, .-isr_1_handler
 106              		.section	.text.stop,"ax",%progbits
 107              		.align	2
 108              		.global	stop
 109              		.thumb
 110              		.thumb_func
 111              		.type	stop, %function
 112              	stop:
 113              	.LFB65:
  90:main.c        **** }
  91:main.c        **** 
  92:main.c        **** void stop(){
 114              		.loc 1 92 0
 115              		.cfi_startproc
 116              		@ args = 0, pretend = 0, frame = 0
 117              		@ frame_needed = 0, uses_anonymous_args = 0
 118 0000 08B5     		push	{r3, lr}
 119              		.cfi_def_cfa_offset 8
 120              		.cfi_offset 3, -8
 121              		.cfi_offset 14, -4
  93:main.c        ****     PWM_1_WriteCompare(50);
 122              		.loc 1 93 0
 123 0002 3220     		movs	r0, #50
 124 0004 FFF7FEFF 		bl	PWM_1_WriteCompare
 125              	.LVL5:
  94:main.c        ****     PWM_2_WriteCompare(50);
 126              		.loc 1 94 0
 127 0008 3220     		movs	r0, #50
 128 000a FFF7FEFF 		bl	PWM_2_WriteCompare
 129              	.LVL6:
 130 000e 08BD     		pop	{r3, pc}
 131              		.cfi_endproc
 132              	.LFE65:
 133              		.size	stop, .-stop
 134              		.section	.text.turnLeft,"ax",%progbits
ARM GAS  C:\Users\dulan\AppData\Local\Temp\cc0WAahS.s 			page 5


 135              		.align	2
 136              		.global	turnLeft
 137              		.thumb
 138              		.thumb_func
 139              		.type	turnLeft, %function
 140              	turnLeft:
 141              	.LFB66:
  95:main.c        **** }
  96:main.c        **** 
  97:main.c        **** void turnLeft(){
 142              		.loc 1 97 0
 143              		.cfi_startproc
 144              		@ args = 0, pretend = 0, frame = 0
 145              		@ frame_needed = 0, uses_anonymous_args = 0
 146 0000 08B5     		push	{r3, lr}
 147              		.cfi_def_cfa_offset 8
 148              		.cfi_offset 3, -8
 149              		.cfi_offset 14, -4
  98:main.c        ****     QuadDec_M2_SetCounter(0);
 150              		.loc 1 98 0
 151 0002 0020     		movs	r0, #0
 152 0004 FFF7FEFF 		bl	QuadDec_M2_SetCounter
 153              	.LVL7:
  99:main.c        ****     PWM_1_WriteCompare(70);
 154              		.loc 1 99 0
 155 0008 4620     		movs	r0, #70
 156 000a FFF7FEFF 		bl	PWM_1_WriteCompare
 157              	.LVL8:
 100:main.c        ****     PWM_2_WriteCompare(31);
 158              		.loc 1 100 0
 159 000e 1F20     		movs	r0, #31
 160 0010 FFF7FEFF 		bl	PWM_2_WriteCompare
 161              	.LVL9:
 162              	.L9:
 101:main.c        ****      while(abs(QuadDec_M2_GetCounter())<50){
 163              		.loc 1 101 0 discriminator 1
 164 0014 FFF7FEFF 		bl	QuadDec_M2_GetCounter
 165              	.LVL10:
 166 0018 0028     		cmp	r0, #0
 167 001a B8BF     		it	lt
 168 001c 4042     		rsblt	r0, r0, #0
 169 001e 3128     		cmp	r0, #49
 170 0020 F8DD     		ble	.L9
 102:main.c        ****         ;;
 103:main.c        ****     }
 104:main.c        ****     PWM_1_WriteCompare(50);
 171              		.loc 1 104 0
 172 0022 3220     		movs	r0, #50
 173 0024 FFF7FEFF 		bl	PWM_1_WriteCompare
 174              	.LVL11:
 105:main.c        ****     PWM_2_WriteCompare(50);
 175              		.loc 1 105 0
 176 0028 3220     		movs	r0, #50
 177 002a FFF7FEFF 		bl	PWM_2_WriteCompare
 178              	.LVL12:
 179 002e 08BD     		pop	{r3, pc}
 180              		.cfi_endproc
ARM GAS  C:\Users\dulan\AppData\Local\Temp\cc0WAahS.s 			page 6


 181              	.LFE66:
 182              		.size	turnLeft, .-turnLeft
 183              		.section	.text.turnRight,"ax",%progbits
 184              		.align	2
 185              		.global	turnRight
 186              		.thumb
 187              		.thumb_func
 188              		.type	turnRight, %function
 189              	turnRight:
 190              	.LFB67:
 106:main.c        **** //    PWM_1_WriteCompare(68);
 107:main.c        **** //    PWM_2_WriteCompare(33);
 108:main.c        **** ////    CyDelay(350);
 109:main.c        **** //    while(Sout_L_Read()==0){//wait while left is on line
 110:main.c        **** //       ;;
 111:main.c        **** //    }
 112:main.c        **** //    while(!(Sout_M1_Read()==0 &&Sout_M1_Read()==0)){//wait while middle sensors off line
 113:main.c        **** //       ;;
 114:main.c        **** //    }
 115:main.c        **** //    isTurning=false;
 116:main.c        **** //    PWM_1_WriteCompare(65);
 117:main.c        **** //    PWM_2_WriteCompare(66);
 118:main.c        **** 
 119:main.c        **** }
 120:main.c        **** 
 121:main.c        **** void turnRight(){
 191              		.loc 1 121 0
 192              		.cfi_startproc
 193              		@ args = 0, pretend = 0, frame = 0
 194              		@ frame_needed = 0, uses_anonymous_args = 0
 195 0000 08B5     		push	{r3, lr}
 196              		.cfi_def_cfa_offset 8
 197              		.cfi_offset 3, -8
 198              		.cfi_offset 14, -4
 122:main.c        ****     QuadDec_M1_SetCounter(0);
 199              		.loc 1 122 0
 200 0002 0020     		movs	r0, #0
 201 0004 FFF7FEFF 		bl	QuadDec_M1_SetCounter
 202              	.LVL13:
 123:main.c        ****     PWM_1_WriteCompare(30);
 203              		.loc 1 123 0
 204 0008 1E20     		movs	r0, #30
 205 000a FFF7FEFF 		bl	PWM_1_WriteCompare
 206              	.LVL14:
 124:main.c        ****     PWM_2_WriteCompare(69);
 207              		.loc 1 124 0
 208 000e 4520     		movs	r0, #69
 209 0010 FFF7FEFF 		bl	PWM_2_WriteCompare
 210              	.LVL15:
 211              	.L12:
 125:main.c        ****      while(abs(QuadDec_M1_GetCounter())<55){
 212              		.loc 1 125 0 discriminator 1
 213 0014 FFF7FEFF 		bl	QuadDec_M1_GetCounter
 214              	.LVL16:
 215 0018 0028     		cmp	r0, #0
 216 001a B8BF     		it	lt
 217 001c 4042     		rsblt	r0, r0, #0
ARM GAS  C:\Users\dulan\AppData\Local\Temp\cc0WAahS.s 			page 7


 218 001e 3628     		cmp	r0, #54
 219 0020 F8DD     		ble	.L12
 126:main.c        ****         ;;
 127:main.c        ****     }
 128:main.c        ****     PWM_1_WriteCompare(50);
 220              		.loc 1 128 0
 221 0022 3220     		movs	r0, #50
 222 0024 FFF7FEFF 		bl	PWM_1_WriteCompare
 223              	.LVL17:
 129:main.c        ****     PWM_2_WriteCompare(50);
 224              		.loc 1 129 0
 225 0028 3220     		movs	r0, #50
 226 002a FFF7FEFF 		bl	PWM_2_WriteCompare
 227              	.LVL18:
 228 002e 08BD     		pop	{r3, pc}
 229              		.cfi_endproc
 230              	.LFE67:
 231              		.size	turnRight, .-turnRight
 232              		.section	.text.reverse,"ax",%progbits
 233              		.align	2
 234              		.global	reverse
 235              		.thumb
 236              		.thumb_func
 237              		.type	reverse, %function
 238              	reverse:
 239              	.LFB68:
 130:main.c        **** //    PWM_1_WriteCompare(33);
 131:main.c        **** //    PWM_2_WriteCompare(68);
 132:main.c        **** //    while(Sout_R_Read()==0){//wait while right is on line
 133:main.c        **** //       ;;
 134:main.c        **** //    }
 135:main.c        **** //    while(!(Sout_M1_Read()==0 &&Sout_M1_Read()==0)){//wait while middle sensors off line
 136:main.c        **** //       ;;
 137:main.c        **** //    }
 138:main.c        **** //    isTurning=false;
 139:main.c        **** //    PWM_1_WriteCompare(65);
 140:main.c        **** //    PWM_2_WriteCompare(66);
 141:main.c        **** }
 142:main.c        **** 
 143:main.c        **** void reverse(){
 240              		.loc 1 143 0
 241              		.cfi_startproc
 242              		@ args = 0, pretend = 0, frame = 0
 243              		@ frame_needed = 0, uses_anonymous_args = 0
 244 0000 08B5     		push	{r3, lr}
 245              		.cfi_def_cfa_offset 8
 246              		.cfi_offset 3, -8
 247              		.cfi_offset 14, -4
 144:main.c        ****     PWM_1_WriteCompare(30);
 248              		.loc 1 144 0
 249 0002 1E20     		movs	r0, #30
 250 0004 FFF7FEFF 		bl	PWM_1_WriteCompare
 251              	.LVL19:
 145:main.c        ****     PWM_2_WriteCompare(30);
 252              		.loc 1 145 0
 253 0008 1E20     		movs	r0, #30
 254 000a FFF7FEFF 		bl	PWM_2_WriteCompare
ARM GAS  C:\Users\dulan\AppData\Local\Temp\cc0WAahS.s 			page 8


 255              	.LVL20:
 256 000e 08BD     		pop	{r3, pc}
 257              		.cfi_endproc
 258              	.LFE68:
 259              		.size	reverse, .-reverse
 260              		.section	.text.turn_180,"ax",%progbits
 261              		.align	2
 262              		.global	turn_180
 263              		.thumb
 264              		.thumb_func
 265              		.type	turn_180, %function
 266              	turn_180:
 267              	.LFB69:
 146:main.c        **** }
 147:main.c        **** 
 148:main.c        **** void turn_180(){
 268              		.loc 1 148 0
 269              		.cfi_startproc
 270              		@ args = 0, pretend = 0, frame = 0
 271              		@ frame_needed = 0, uses_anonymous_args = 0
 272 0000 08B5     		push	{r3, lr}
 273              		.cfi_def_cfa_offset 8
 274              		.cfi_offset 3, -8
 275              		.cfi_offset 14, -4
 149:main.c        ****     QuadDec_M1_SetCounter(0);
 276              		.loc 1 149 0
 277 0002 0020     		movs	r0, #0
 278 0004 FFF7FEFF 		bl	QuadDec_M1_SetCounter
 279              	.LVL21:
 150:main.c        ****     PWM_1_WriteCompare(30);
 280              		.loc 1 150 0
 281 0008 1E20     		movs	r0, #30
 282 000a FFF7FEFF 		bl	PWM_1_WriteCompare
 283              	.LVL22:
 151:main.c        ****     PWM_2_WriteCompare(71);
 284              		.loc 1 151 0
 285 000e 4720     		movs	r0, #71
 286 0010 FFF7FEFF 		bl	PWM_2_WriteCompare
 287              	.LVL23:
 288              	.L17:
 152:main.c        ****      while(abs(QuadDec_M1_GetCounter())<170){
 289              		.loc 1 152 0 discriminator 1
 290 0014 FFF7FEFF 		bl	QuadDec_M1_GetCounter
 291              	.LVL24:
 292 0018 0028     		cmp	r0, #0
 293 001a B8BF     		it	lt
 294 001c 4042     		rsblt	r0, r0, #0
 295 001e A928     		cmp	r0, #169
 296 0020 F8DD     		ble	.L17
 153:main.c        ****         ;;
 154:main.c        ****     }
 155:main.c        ****     PWM_1_WriteCompare(50);
 297              		.loc 1 155 0
 298 0022 3220     		movs	r0, #50
 299 0024 FFF7FEFF 		bl	PWM_1_WriteCompare
 300              	.LVL25:
 156:main.c        ****     PWM_2_WriteCompare(50);
ARM GAS  C:\Users\dulan\AppData\Local\Temp\cc0WAahS.s 			page 9


 301              		.loc 1 156 0
 302 0028 3220     		movs	r0, #50
 303 002a FFF7FEFF 		bl	PWM_2_WriteCompare
 304              	.LVL26:
 157:main.c        ****     QuadDec_M2_SetCounter(0);
 305              		.loc 1 157 0
 306 002e 0020     		movs	r0, #0
 307 0030 FFF7FEFF 		bl	QuadDec_M2_SetCounter
 308              	.LVL27:
 158:main.c        ****     reverse();
 309              		.loc 1 158 0
 310 0034 FFF7FEFF 		bl	reverse
 311              	.LVL28:
 312              	.L18:
 159:main.c        ****     while(abs(QuadDec_M2_GetCounter())<75){
 313              		.loc 1 159 0 discriminator 1
 314 0038 FFF7FEFF 		bl	QuadDec_M2_GetCounter
 315              	.LVL29:
 316 003c 0028     		cmp	r0, #0
 317 003e B8BF     		it	lt
 318 0040 4042     		rsblt	r0, r0, #0
 319 0042 4A28     		cmp	r0, #74
 320 0044 F8DD     		ble	.L18
 160:main.c        ****         ;;
 161:main.c        ****     }
 162:main.c        ****     stop();
 321              		.loc 1 162 0
 322 0046 FFF7FEFF 		bl	stop
 323              	.LVL30:
 324 004a 08BD     		pop	{r3, pc}
 325              		.cfi_endproc
 326              	.LFE69:
 327              		.size	turn_180, .-turn_180
 328              		.section	.text.goStraight_cm,"ax",%progbits
 329              		.align	2
 330              		.global	goStraight_cm
 331              		.thumb
 332              		.thumb_func
 333              		.type	goStraight_cm, %function
 334              	goStraight_cm:
 335              	.LFB70:
 163:main.c        ****     
 164:main.c        ****     
 165:main.c        **** }
 166:main.c        **** 
 167:main.c        **** void goStraight_cm(int distance){
 336              		.loc 1 167 0
 337              		.cfi_startproc
 338              		@ args = 0, pretend = 0, frame = 0
 339              		@ frame_needed = 0, uses_anonymous_args = 0
 340              	.LVL31:
 341 0000 10B5     		push	{r4, lr}
 342              		.cfi_def_cfa_offset 8
 343              		.cfi_offset 4, -8
 344              		.cfi_offset 14, -4
 345 0002 0446     		mov	r4, r0
 168:main.c        ****     
ARM GAS  C:\Users\dulan\AppData\Local\Temp\cc0WAahS.s 			page 10


 169:main.c        ****     QuadDec_M1_SetCounter(0);
 346              		.loc 1 169 0
 347 0004 0020     		movs	r0, #0
 348              	.LVL32:
 349 0006 FFF7FEFF 		bl	QuadDec_M1_SetCounter
 350              	.LVL33:
 170:main.c        ****     
 171:main.c        ****     while(QuadDec_M1_GetCounter()<(distance*ENC_VALUE_PER_CM)){
 351              		.loc 1 171 0
 352 000a 24E0     		b	.L21
 353              	.L26:
 172:main.c        ****             //comp0==>middle left comp1==>middle right
 173:main.c        ****         if(comp0_sum>0 && comp1_sum==0){//s_ML out of line
 354              		.loc 1 173 0
 355 000c 174B     		ldr	r3, .L28
 356 000e 1B78     		ldrb	r3, [r3]	@ zero_extendqisi2
 357 0010 4BB1     		cbz	r3, .L22
 358              		.loc 1 173 0 is_stmt 0 discriminator 1
 359 0012 174A     		ldr	r2, .L28+4
 360 0014 1278     		ldrb	r2, [r2]	@ zero_extendqisi2
 361 0016 32B9     		cbnz	r2, .L22
 174:main.c        ****             PWM_2_WriteCompare(PWM_2_ReadCompare() +1);
 362              		.loc 1 174 0 is_stmt 1
 363 0018 FFF7FEFF 		bl	PWM_2_ReadCompare
 364              	.LVL34:
 365 001c 0130     		adds	r0, r0, #1
 366 001e C0B2     		uxtb	r0, r0
 367 0020 FFF7FEFF 		bl	PWM_2_WriteCompare
 368              	.LVL35:
 369 0024 17E0     		b	.L21
 370              	.L22:
 175:main.c        ****         }else if(comp0_sum==0 && comp1_sum>0){//s_MR out of line
 371              		.loc 1 175 0
 372 0026 4BB9     		cbnz	r3, .L24
 373              		.loc 1 175 0 is_stmt 0 discriminator 1
 374 0028 114A     		ldr	r2, .L28+4
 375 002a 1278     		ldrb	r2, [r2]	@ zero_extendqisi2
 376 002c 32B1     		cbz	r2, .L24
 176:main.c        ****             PWM_1_WriteCompare(PWM_1_ReadCompare() +1);
 377              		.loc 1 176 0 is_stmt 1
 378 002e FFF7FEFF 		bl	PWM_1_ReadCompare
 379              	.LVL36:
 380 0032 0130     		adds	r0, r0, #1
 381 0034 C0B2     		uxtb	r0, r0
 382 0036 FFF7FEFF 		bl	PWM_1_WriteCompare
 383              	.LVL37:
 384 003a 0CE0     		b	.L21
 385              	.L24:
 177:main.c        ****             
 178:main.c        ****         }else if(comp1_sum==0 && comp0_sum==0){
 386              		.loc 1 178 0
 387 003c 0C4A     		ldr	r2, .L28+4
 388 003e 1278     		ldrb	r2, [r2]	@ zero_extendqisi2
 389 0040 3AB9     		cbnz	r2, .L25
 390              		.loc 1 178 0 is_stmt 0 discriminator 1
 391 0042 33B9     		cbnz	r3, .L25
 179:main.c        ****             PWM_1_WriteCompare(68);
ARM GAS  C:\Users\dulan\AppData\Local\Temp\cc0WAahS.s 			page 11


 392              		.loc 1 179 0 is_stmt 1
 393 0044 4420     		movs	r0, #68
 394 0046 FFF7FEFF 		bl	PWM_1_WriteCompare
 395              	.LVL38:
 180:main.c        ****             PWM_2_WriteCompare(69);
 396              		.loc 1 180 0
 397 004a 4520     		movs	r0, #69
 398 004c FFF7FEFF 		bl	PWM_2_WriteCompare
 399              	.LVL39:
 400 0050 01E0     		b	.L21
 401              	.L25:
 181:main.c        ****         }else{
 182:main.c        ****             reverse();
 402              		.loc 1 182 0
 403 0052 FFF7FEFF 		bl	reverse
 404              	.LVL40:
 405              	.L21:
 171:main.c        ****             //comp0==>middle left comp1==>middle right
 406              		.loc 1 171 0
 407 0056 FFF7FEFF 		bl	QuadDec_M1_GetCounter
 408              	.LVL41:
 409 005a 04EB8403 		add	r3, r4, r4, lsl #2
 410 005e 04EB4303 		add	r3, r4, r3, lsl #1
 411 0062 9842     		cmp	r0, r3
 412 0064 D2DB     		blt	.L26
 183:main.c        ****         }
 184:main.c        ****     }
 185:main.c        ****     stop();
 413              		.loc 1 185 0
 414 0066 FFF7FEFF 		bl	stop
 415              	.LVL42:
 416 006a 10BD     		pop	{r4, pc}
 417              	.LVL43:
 418              	.L29:
 419              		.align	2
 420              	.L28:
 421 006c 00000000 		.word	comp0_sum
 422 0070 00000000 		.word	comp1_sum
 423              		.cfi_endproc
 424              	.LFE70:
 425              		.size	goStraight_cm, .-goStraight_cm
 426              		.section	.text.changeDirection,"ax",%progbits
 427              		.align	2
 428              		.global	changeDirection
 429              		.thumb
 430              		.thumb_func
 431              		.type	changeDirection, %function
 432              	changeDirection:
 433              	.LFB71:
 186:main.c        ****     
 187:main.c        **** }
 188:main.c        **** 
 189:main.c        **** void changeDirection(RobotDirection startDirection, RobotDirection endDirection){
 434              		.loc 1 189 0
 435              		.cfi_startproc
 436              		@ args = 0, pretend = 0, frame = 0
 437              		@ frame_needed = 0, uses_anonymous_args = 0
ARM GAS  C:\Users\dulan\AppData\Local\Temp\cc0WAahS.s 			page 12


 438              	.LVL44:
 439 0000 08B5     		push	{r3, lr}
 440              		.cfi_def_cfa_offset 8
 441              		.cfi_offset 3, -8
 442              		.cfi_offset 14, -4
 190:main.c        **** 
 191:main.c        ****         switch(startDirection){
 443              		.loc 1 191 0
 444 0002 0328     		cmp	r0, #3
 445 0004 3ED8     		bhi	.L30
 446 0006 DFE800F0 		tbb	[pc, r0]
 447              	.L33:
 448 000a 02       		.byte	(.L32-.L33)/2
 449 000b 21       		.byte	(.L34-.L33)/2
 450 000c 12       		.byte	(.L35-.L33)/2
 451 000d 2F       		.byte	(.L36-.L33)/2
 452              		.p2align 1
 453              	.L32:
 192:main.c        ****             case NORTH:
 193:main.c        ****                  switch(endDirection){
 454              		.loc 1 193 0
 455 000e 0229     		cmp	r1, #2
 456 0010 04D0     		beq	.L37
 457 0012 0329     		cmp	r1, #3
 458 0014 08D0     		beq	.L38
 459 0016 0129     		cmp	r1, #1
 460 0018 34D1     		bne	.L30
 461 001a 02E0     		b	.L39
 462              	.L37:
 194:main.c        ****                     case NORTH:
 195:main.c        ****                          
 196:main.c        ****                          break;
 197:main.c        ****                    
 198:main.c        ****                     case SOUTH:
 199:main.c        ****                          turn_180();
 463              		.loc 1 199 0
 464 001c FFF7FEFF 		bl	turn_180
 465              	.LVL45:
 200:main.c        ****                          break;
 466              		.loc 1 200 0
 467 0020 08BD     		pop	{r3, pc}
 468              	.LVL46:
 469              	.L39:
 201:main.c        ****                 
 202:main.c        ****                     case EAST:
 203:main.c        ****                         turnRight();
 470              		.loc 1 203 0
 471 0022 FFF7FEFF 		bl	turnRight
 472              	.LVL47:
 204:main.c        ****                         
 205:main.c        ****                          break;
 473              		.loc 1 205 0
 474 0026 08BD     		pop	{r3, pc}
 475              	.LVL48:
 476              	.L38:
 206:main.c        ****                     
 207:main.c        ****                     case WEST:
ARM GAS  C:\Users\dulan\AppData\Local\Temp\cc0WAahS.s 			page 13


 208:main.c        ****                         turnLeft();
 477              		.loc 1 208 0
 478 0028 FFF7FEFF 		bl	turnLeft
 479              	.LVL49:
 209:main.c        ****                          break;
 480              		.loc 1 209 0
 481 002c 08BD     		pop	{r3, pc}
 482              	.LVL50:
 483              	.L35:
 210:main.c        ****                     
 211:main.c        ****                  }
 212:main.c        ****             
 213:main.c        ****                  break;
 214:main.c        ****             
 215:main.c        ****             case SOUTH:
 216:main.c        ****                 switch(endDirection){
 484              		.loc 1 216 0
 485 002e 0129     		cmp	r1, #1
 486 0030 06D0     		beq	.L40
 487 0032 11B1     		cbz	r1, .L41
 488 0034 0329     		cmp	r1, #3
 489 0036 06D0     		beq	.L42
 490 0038 08BD     		pop	{r3, pc}
 491              	.L41:
 217:main.c        ****                     case NORTH:
 218:main.c        ****                          turn_180();
 492              		.loc 1 218 0
 493 003a FFF7FEFF 		bl	turn_180
 494              	.LVL51:
 219:main.c        ****                         
 220:main.c        ****                          break;
 495              		.loc 1 220 0
 496 003e 08BD     		pop	{r3, pc}
 497              	.LVL52:
 498              	.L40:
 221:main.c        ****                    
 222:main.c        ****                     case SOUTH:
 223:main.c        ****                          
 224:main.c        ****                          break;
 225:main.c        ****                 
 226:main.c        ****                     case EAST:
 227:main.c        ****                          turnLeft();
 499              		.loc 1 227 0
 500 0040 FFF7FEFF 		bl	turnLeft
 501              	.LVL53:
 228:main.c        ****                          break;
 502              		.loc 1 228 0
 503 0044 08BD     		pop	{r3, pc}
 504              	.LVL54:
 505              	.L42:
 229:main.c        ****                     
 230:main.c        ****                     case WEST:
 231:main.c        ****                          turnRight();
 506              		.loc 1 231 0
 507 0046 FFF7FEFF 		bl	turnRight
 508              	.LVL55:
 232:main.c        ****                          break;
ARM GAS  C:\Users\dulan\AppData\Local\Temp\cc0WAahS.s 			page 14


 509              		.loc 1 232 0
 510 004a 08BD     		pop	{r3, pc}
 511              	.LVL56:
 512              	.L34:
 233:main.c        ****                     
 234:main.c        ****                  }
 235:main.c        ****             
 236:main.c        ****                  break;
 237:main.c        ****             
 238:main.c        ****             case EAST:
 239:main.c        ****                 switch(endDirection){
 513              		.loc 1 239 0
 514 004c 0229     		cmp	r1, #2
 515 004e 05D0     		beq	.L43
 516 0050 0329     		cmp	r1, #3
 517 0052 06D0     		beq	.L44
 518 0054 B1B9     		cbnz	r1, .L30
 240:main.c        ****                     case NORTH:
 241:main.c        ****                          turnLeft();
 519              		.loc 1 241 0
 520 0056 FFF7FEFF 		bl	turnLeft
 521              	.LVL57:
 242:main.c        ****                          break;
 522              		.loc 1 242 0
 523 005a 08BD     		pop	{r3, pc}
 524              	.LVL58:
 525              	.L43:
 243:main.c        ****                    
 244:main.c        ****                     case SOUTH:
 245:main.c        ****                          turnRight();
 526              		.loc 1 245 0
 527 005c FFF7FEFF 		bl	turnRight
 528              	.LVL59:
 246:main.c        ****                          break;
 529              		.loc 1 246 0
 530 0060 08BD     		pop	{r3, pc}
 531              	.LVL60:
 532              	.L44:
 247:main.c        ****                 
 248:main.c        ****                     case EAST:
 249:main.c        ****                         
 250:main.c        ****                          break;
 251:main.c        ****                     
 252:main.c        ****                     case WEST:
 253:main.c        ****                          turn_180();
 533              		.loc 1 253 0
 534 0062 FFF7FEFF 		bl	turn_180
 535              	.LVL61:
 254:main.c        ****                          break;
 536              		.loc 1 254 0
 537 0066 08BD     		pop	{r3, pc}
 538              	.LVL62:
 539              	.L36:
 255:main.c        ****                     
 256:main.c        ****                  }
 257:main.c        ****             
 258:main.c        ****                  break;
ARM GAS  C:\Users\dulan\AppData\Local\Temp\cc0WAahS.s 			page 15


 259:main.c        ****             
 260:main.c        ****             case WEST:
 261:main.c        ****                 switch(endDirection){
 540              		.loc 1 261 0
 541 0068 0129     		cmp	r1, #1
 542 006a 09D0     		beq	.L46
 543 006c 11B1     		cbz	r1, .L47
 544 006e 0229     		cmp	r1, #2
 545 0070 03D0     		beq	.L48
 546 0072 08BD     		pop	{r3, pc}
 547              	.L47:
 262:main.c        ****                     case NORTH:
 263:main.c        ****                          turnRight();
 548              		.loc 1 263 0
 549 0074 FFF7FEFF 		bl	turnRight
 550              	.LVL63:
 264:main.c        ****                          break;
 551              		.loc 1 264 0
 552 0078 08BD     		pop	{r3, pc}
 553              	.LVL64:
 554              	.L48:
 265:main.c        ****                    
 266:main.c        ****                     case SOUTH:
 267:main.c        ****                          turnLeft();
 555              		.loc 1 267 0
 556 007a FFF7FEFF 		bl	turnLeft
 557              	.LVL65:
 268:main.c        ****                          break;
 558              		.loc 1 268 0
 559 007e 08BD     		pop	{r3, pc}
 560              	.LVL66:
 561              	.L46:
 269:main.c        ****                 
 270:main.c        ****                     case EAST:
 271:main.c        ****                          turn_180();
 562              		.loc 1 271 0
 563 0080 FFF7FEFF 		bl	turn_180
 564              	.LVL67:
 565              	.L30:
 566 0084 08BD     		pop	{r3, pc}
 567              		.cfi_endproc
 568              	.LFE71:
 569              		.size	changeDirection, .-changeDirection
 570 0086 00BF     		.section	.text.goStraight,"ax",%progbits
 571              		.align	2
 572              		.global	goStraight
 573              		.thumb
 574              		.thumb_func
 575              		.type	goStraight, %function
 576              	goStraight:
 577              	.LFB72:
 272:main.c        ****                          break;
 273:main.c        ****                     
 274:main.c        ****                     case WEST:
 275:main.c        ****                     
 276:main.c        ****                          break;
 277:main.c        ****                     
ARM GAS  C:\Users\dulan\AppData\Local\Temp\cc0WAahS.s 			page 16


 278:main.c        ****                  }
 279:main.c        ****             
 280:main.c        ****                  break;
 281:main.c        ****             
 282:main.c        ****         }
 283:main.c        ****     
 284:main.c        **** }
 285:main.c        **** 
 286:main.c        **** void goStraight(){
 578              		.loc 1 286 0
 579              		.cfi_startproc
 580              		@ args = 0, pretend = 0, frame = 0
 581              		@ frame_needed = 0, uses_anonymous_args = 0
 582 0000 08B5     		push	{r3, lr}
 583              		.cfi_def_cfa_offset 8
 584              		.cfi_offset 3, -8
 585              		.cfi_offset 14, -4
 287:main.c        ****     
 288:main.c        ****         //comp0==>middle left comp1==>middle right
 289:main.c        ****     if(comp0_sum>0 && comp1_sum==0){//s_ML out of line
 586              		.loc 1 289 0
 587 0002 134B     		ldr	r3, .L56
 588 0004 1B78     		ldrb	r3, [r3]	@ zero_extendqisi2
 589 0006 4BB1     		cbz	r3, .L51
 590              		.loc 1 289 0 is_stmt 0 discriminator 1
 591 0008 124A     		ldr	r2, .L56+4
 592 000a 1278     		ldrb	r2, [r2]	@ zero_extendqisi2
 593 000c 32B9     		cbnz	r2, .L51
 290:main.c        ****         PWM_2_WriteCompare(PWM_2_ReadCompare() +1);
 594              		.loc 1 290 0 is_stmt 1
 595 000e FFF7FEFF 		bl	PWM_2_ReadCompare
 596              	.LVL68:
 597 0012 0130     		adds	r0, r0, #1
 598 0014 C0B2     		uxtb	r0, r0
 599 0016 FFF7FEFF 		bl	PWM_2_WriteCompare
 600              	.LVL69:
 601 001a 08BD     		pop	{r3, pc}
 602              	.L51:
 291:main.c        ****     }else if(comp0_sum==0 && comp1_sum>0){//s_MR out of line
 603              		.loc 1 291 0
 604 001c 4BB9     		cbnz	r3, .L53
 605              		.loc 1 291 0 is_stmt 0 discriminator 1
 606 001e 0D4A     		ldr	r2, .L56+4
 607 0020 1278     		ldrb	r2, [r2]	@ zero_extendqisi2
 608 0022 32B1     		cbz	r2, .L53
 292:main.c        ****         PWM_1_WriteCompare(PWM_1_ReadCompare() +1);
 609              		.loc 1 292 0 is_stmt 1
 610 0024 FFF7FEFF 		bl	PWM_1_ReadCompare
 611              	.LVL70:
 612 0028 0130     		adds	r0, r0, #1
 613 002a C0B2     		uxtb	r0, r0
 614 002c FFF7FEFF 		bl	PWM_1_WriteCompare
 615              	.LVL71:
 616 0030 08BD     		pop	{r3, pc}
 617              	.L53:
 293:main.c        ****         
 294:main.c        ****     }else if(comp1_sum==0 && comp0_sum==0){
ARM GAS  C:\Users\dulan\AppData\Local\Temp\cc0WAahS.s 			page 17


 618              		.loc 1 294 0
 619 0032 084A     		ldr	r2, .L56+4
 620 0034 1278     		ldrb	r2, [r2]	@ zero_extendqisi2
 621 0036 3AB9     		cbnz	r2, .L54
 622              		.loc 1 294 0 is_stmt 0 discriminator 1
 623 0038 33B9     		cbnz	r3, .L54
 295:main.c        ****         PWM_1_WriteCompare(70);
 624              		.loc 1 295 0 is_stmt 1
 625 003a 4620     		movs	r0, #70
 626 003c FFF7FEFF 		bl	PWM_1_WriteCompare
 627              	.LVL72:
 296:main.c        ****         PWM_2_WriteCompare(71);
 628              		.loc 1 296 0
 629 0040 4720     		movs	r0, #71
 630 0042 FFF7FEFF 		bl	PWM_2_WriteCompare
 631              	.LVL73:
 632 0046 08BD     		pop	{r3, pc}
 633              	.L54:
 297:main.c        ****     }else{
 298:main.c        ****         reverse();
 634              		.loc 1 298 0
 635 0048 FFF7FEFF 		bl	reverse
 636              	.LVL74:
 637 004c 08BD     		pop	{r3, pc}
 638              	.L57:
 639 004e 00BF     		.align	2
 640              	.L56:
 641 0050 00000000 		.word	comp0_sum
 642 0054 00000000 		.word	comp1_sum
 643              		.cfi_endproc
 644              	.LFE72:
 645              		.size	goStraight, .-goStraight
 646              		.section	.text.main,"ax",%progbits
 647              		.align	2
 648              		.global	main
 649              		.thumb
 650              		.thumb_func
 651              		.type	main, %function
 652              	main:
 653              	.LFB73:
 299:main.c        ****     }
 300:main.c        ****     
 301:main.c        ****     
 302:main.c        **** }
 303:main.c        **** 
 304:main.c        **** int main(void)
 305:main.c        **** {
 654              		.loc 1 305 0
 655              		.cfi_startproc
 656              		@ args = 0, pretend = 0, frame = 0
 657              		@ frame_needed = 0, uses_anonymous_args = 0
 658 0000 2DE9F041 		push	{r4, r5, r6, r7, r8, lr}
 659              		.cfi_def_cfa_offset 24
 660              		.cfi_offset 4, -24
 661              		.cfi_offset 5, -20
 662              		.cfi_offset 6, -16
 663              		.cfi_offset 7, -12
ARM GAS  C:\Users\dulan\AppData\Local\Temp\cc0WAahS.s 			page 18


 664              		.cfi_offset 8, -8
 665              		.cfi_offset 14, -4
 666 0004 82B0     		sub	sp, sp, #8
 667              		.cfi_def_cfa_offset 32
 306:main.c        ****     CyGlobalIntEnable; /* Enable global interrupts. */
 668              		.loc 1 306 0
 669              		.syntax unified
 670              	@ 306 "main.c" 1
 671 0006 62B6     		CPSIE   i
 672              	@ 0 "" 2
 307:main.c        **** 
 308:main.c        ****     /* Place your initialization/startup code here (e.g. MyInst_Start()) */
 309:main.c        ****     Timer_1_Start();
 673              		.loc 1 309 0
 674              		.thumb
 675              		.syntax unified
 676 0008 FFF7FEFF 		bl	Timer_1_Start
 677              	.LVL75:
 310:main.c        **** //    
 311:main.c        ****     LED_1_Write(1);
 678              		.loc 1 311 0
 679 000c 0120     		movs	r0, #1
 680 000e FFF7FEFF 		bl	LED_1_Write
 681              	.LVL76:
 312:main.c        ****     LED_2_Write(1);
 682              		.loc 1 312 0
 683 0012 0120     		movs	r0, #1
 684 0014 FFF7FEFF 		bl	LED_2_Write
 685              	.LVL77:
 313:main.c        ****     LED_3_Write(1);
 686              		.loc 1 313 0
 687 0018 0120     		movs	r0, #1
 688 001a FFF7FEFF 		bl	LED_3_Write
 689              	.LVL78:
 314:main.c        ****     
 315:main.c        ****     isr_1_StartEx(isr_1_handler);
 690              		.loc 1 315 0
 691 001e 4048     		ldr	r0, .L76
 692 0020 FFF7FEFF 		bl	isr_1_StartEx
 693              	.LVL79:
 316:main.c        ****     
 317:main.c        ****     //start comparators
 318:main.c        ****     Comp_0_Start();
 694              		.loc 1 318 0
 695 0024 FFF7FEFF 		bl	Comp_0_Start
 696              	.LVL80:
 319:main.c        ****     Comp_1_Start();
 697              		.loc 1 319 0
 698 0028 FFF7FEFF 		bl	Comp_1_Start
 699              	.LVL81:
 320:main.c        ****     Comp_2_Start();
 700              		.loc 1 320 0
 701 002c FFF7FEFF 		bl	Comp_2_Start
 702              	.LVL82:
 321:main.c        ****     Comp_3_Start();
 703              		.loc 1 321 0
 704 0030 FFF7FEFF 		bl	Comp_3_Start
ARM GAS  C:\Users\dulan\AppData\Local\Temp\cc0WAahS.s 			page 19


 705              	.LVL83:
 322:main.c        ****     
 323:main.c        ****     /*Start PWM Clk*/
 324:main.c        ****     Clock_PWM_Start(); 
 706              		.loc 1 324 0
 707 0034 FFF7FEFF 		bl	Clock_PWM_Start
 708              	.LVL84:
 325:main.c        ****     //Start PWM
 326:main.c        ****     PWM_1_Start();
 709              		.loc 1 326 0
 710 0038 FFF7FEFF 		bl	PWM_1_Start
 711              	.LVL85:
 327:main.c        ****     PWM_2_Start();
 712              		.loc 1 327 0
 713 003c FFF7FEFF 		bl	PWM_2_Start
 714              	.LVL86:
 328:main.c        ****      
 329:main.c        ****     // write comparision int for MC33926 duty cycle must me larger than 10% and less than 90%
 330:main.c        **** 
 331:main.c        ****     
 332:main.c        ****     PWM_1_WritePeriod(100);
 715              		.loc 1 332 0
 716 0040 6420     		movs	r0, #100
 717 0042 FFF7FEFF 		bl	PWM_1_WritePeriod
 718              	.LVL87:
 333:main.c        ****     PWM_2_WritePeriod(100);
 719              		.loc 1 333 0
 720 0046 6420     		movs	r0, #100
 721 0048 FFF7FEFF 		bl	PWM_2_WritePeriod
 722              	.LVL88:
 334:main.c        ****     
 335:main.c        ****     PWM_1_WriteCompare(50);
 723              		.loc 1 335 0
 724 004c 3220     		movs	r0, #50
 725 004e FFF7FEFF 		bl	PWM_1_WriteCompare
 726              	.LVL89:
 336:main.c        ****     PWM_2_WriteCompare(50);
 727              		.loc 1 336 0
 728 0052 3220     		movs	r0, #50
 729 0054 FFF7FEFF 		bl	PWM_2_WriteCompare
 730              	.LVL90:
 337:main.c        ****     QuadDec_M1_Start();
 731              		.loc 1 337 0
 732 0058 FFF7FEFF 		bl	QuadDec_M1_Start
 733              	.LVL91:
 338:main.c        ****     QuadDec_M2_Start();
 734              		.loc 1 338 0
 735 005c FFF7FEFF 		bl	QuadDec_M2_Start
 736              	.LVL92:
 737              	.LBB2:
 339:main.c        **** 
 340:main.c        ****     for(int i=0;i<5;i++){
 738              		.loc 1 340 0
 739 0060 0026     		movs	r6, #0
 740 0062 59E0     		b	.L59
 741              	.LVL93:
 742              	.L71:
ARM GAS  C:\Users\dulan\AppData\Local\Temp\cc0WAahS.s 			page 20


 341:main.c        ****        //find path coordinates
 342:main.c        ****        dijkstra(food_list[i][0],food_list[i][1], food_list[i+1][0],food_list[i+1][1]);
 743              		.loc 1 342 0
 744 0064 771C     		adds	r7, r6, #1
 745 0066 2F4C     		ldr	r4, .L76+4
 746 0068 04EBC708 		add	r8, r4, r7, lsl #3
 747 006c 04EBC605 		add	r5, r4, r6, lsl #3
 748 0070 D8F80430 		ldr	r3, [r8, #4]
 749 0074 54F83720 		ldr	r2, [r4, r7, lsl #3]
 750 0078 6968     		ldr	r1, [r5, #4]
 751 007a 54F83600 		ldr	r0, [r4, r6, lsl #3]
 752 007e FFF7FEFF 		bl	dijkstra
 753              	.LVL94:
 343:main.c        ****        //takes in row,column, gets the movement array
 344:main.c        ****        getMovementArray(food_list[i][0],food_list[i][1], food_list[i+1][0],food_list[i+1][1],startD
 754              		.loc 1 344 0
 755 0082 D8F80430 		ldr	r3, [r8, #4]
 756 0086 54F83720 		ldr	r2, [r4, r7, lsl #3]
 757 008a 6968     		ldr	r1, [r5, #4]
 758 008c 54F83600 		ldr	r0, [r4, r6, lsl #3]
 759 0090 3444     		add	r4, r4, r6
 760 0092 94F83040 		ldrb	r4, [r4, #48]	@ zero_extendqisi2
 761 0096 0094     		str	r4, [sp]
 762 0098 FFF7FEFF 		bl	getMovementArray
 763              	.LVL95:
 764              	.LBB3:
 345:main.c        ****       
 346:main.c        ****        
 347:main.c        **** 
 348:main.c        ****         
 349:main.c        ****         //this loops through all the movement required in the path
 350:main.c        ****         //movement contains distance for going straight and a turn
 351:main.c        ****         for(int i=0; i<25;i++){//length should be how many movements there should be
 765              		.loc 1 351 0
 766 009c 0024     		movs	r4, #0
 767 009e 2CE0     		b	.L60
 768              	.LVL96:
 769              	.L69:
 352:main.c        ****            // if(i!=0){
 353:main.c        ****                 goStraight_cm(movementArray[i].distance-6);//if not the first movement remove 5 cm 
 770              		.loc 1 353 0
 771 00a0 214D     		ldr	r5, .L76+8
 772 00a2 55F83400 		ldr	r0, [r5, r4, lsl #3]
 773 00a6 0638     		subs	r0, r0, #6
 774 00a8 FFF7FEFF 		bl	goStraight_cm
 775              	.LVL97:
 354:main.c        ****            // }else{
 355:main.c        ****            //     goStraight_cm(movementArray[i].distance);
 356:main.c        ****            // }
 357:main.c        ****             
 358:main.c        ****             if(movementArray[i].turnDirection=='R'){
 776              		.loc 1 358 0
 777 00ac 05EBC405 		add	r5, r5, r4, lsl #3
 778 00b0 2B79     		ldrb	r3, [r5, #4]	@ zero_extendqisi2
 779 00b2 522B     		cmp	r3, #82
 780 00b4 0CD1     		bne	.L73
 781 00b6 01E0     		b	.L61
ARM GAS  C:\Users\dulan\AppData\Local\Temp\cc0WAahS.s 			page 21


 782              	.L63:
 359:main.c        ****                while(Sout_R_Read()!=0){
 360:main.c        ****                  goStraight();
 783              		.loc 1 360 0
 784 00b8 FFF7FEFF 		bl	goStraight
 785              	.LVL98:
 786              	.L61:
 359:main.c        ****                while(Sout_R_Read()!=0){
 787              		.loc 1 359 0
 788 00bc FFF7FEFF 		bl	Sout_R_Read
 789              	.LVL99:
 790 00c0 0028     		cmp	r0, #0
 791 00c2 F9D1     		bne	.L63
 361:main.c        ****                }
 362:main.c        ****                if(Sout_R_Read()==0){
 792              		.loc 1 362 0
 793 00c4 FFF7FEFF 		bl	Sout_R_Read
 794              	.LVL100:
 795 00c8 B0B9     		cbnz	r0, .L64
 363:main.c        ****                   turnRight();
 796              		.loc 1 363 0
 797 00ca FFF7FEFF 		bl	turnRight
 798              	.LVL101:
 799 00ce 13E0     		b	.L64
 800              	.L73:
 364:main.c        ****                }
 365:main.c        ****             }else if(movementArray[i].turnDirection=='L'){
 801              		.loc 1 365 0
 802 00d0 4C2B     		cmp	r3, #76
 803 00d2 0CD1     		bne	.L74
 804 00d4 01E0     		b	.L65
 805              	.L67:
 366:main.c        ****                while(Sout_L_Read()!=0){
 367:main.c        ****                  goStraight();
 806              		.loc 1 367 0
 807 00d6 FFF7FEFF 		bl	goStraight
 808              	.LVL102:
 809              	.L65:
 366:main.c        ****                while(Sout_L_Read()!=0){
 810              		.loc 1 366 0
 811 00da FFF7FEFF 		bl	Sout_L_Read
 812              	.LVL103:
 813 00de 0028     		cmp	r0, #0
 814 00e0 F9D1     		bne	.L67
 368:main.c        ****                }
 369:main.c        ****                if(Sout_L_Read()==0){
 815              		.loc 1 369 0
 816 00e2 FFF7FEFF 		bl	Sout_L_Read
 817              	.LVL104:
 818 00e6 38B9     		cbnz	r0, .L64
 370:main.c        ****                   turnLeft();
 819              		.loc 1 370 0
 820 00e8 FFF7FEFF 		bl	turnLeft
 821              	.LVL105:
 822 00ec 04E0     		b	.L64
 823              	.L74:
 371:main.c        ****                }
ARM GAS  C:\Users\dulan\AppData\Local\Temp\cc0WAahS.s 			page 22


 372:main.c        ****             }else if(movementArray[i].turnDirection=='E'){
 824              		.loc 1 372 0
 825 00ee 452B     		cmp	r3, #69
 826 00f0 02D1     		bne	.L64
 373:main.c        ****                 //goStraight_cm(3);
 374:main.c        ****                 stop();
 827              		.loc 1 374 0
 828 00f2 FFF7FEFF 		bl	stop
 829              	.LVL106:
 375:main.c        ****                 break;
 830              		.loc 1 375 0
 831 00f6 02E0     		b	.L68
 832              	.L64:
 351:main.c        ****            // if(i!=0){
 833              		.loc 1 351 0 discriminator 2
 834 00f8 0134     		adds	r4, r4, #1
 835              	.LVL107:
 836              	.L60:
 351:main.c        ****            // if(i!=0){
 837              		.loc 1 351 0 is_stmt 0 discriminator 1
 838 00fa 182C     		cmp	r4, #24
 839 00fc D0DD     		ble	.L69
 840              	.L68:
 841              	.LBE3:
 376:main.c        ****             }
 377:main.c        ****         }
 378:main.c        **** 
 379:main.c        ****         stop();
 842              		.loc 1 379 0 is_stmt 1
 843 00fe FFF7FEFF 		bl	stop
 844              	.LVL108:
 380:main.c        ****         
 381:main.c        ****         if(i!=4){//if last point no need to change direction
 845              		.loc 1 381 0
 846 0102 042E     		cmp	r6, #4
 847 0104 07D0     		beq	.L70
 382:main.c        ****              changeDirection(getCurrentDirection(),startDirectionArray[i+1]);
 848              		.loc 1 382 0
 849 0106 FFF7FEFF 		bl	getCurrentDirection
 850              	.LVL109:
 851 010a 064B     		ldr	r3, .L76+4
 852 010c 3B44     		add	r3, r3, r7
 853 010e 93F83010 		ldrb	r1, [r3, #48]	@ zero_extendqisi2
 854 0112 FFF7FEFF 		bl	changeDirection
 855              	.LVL110:
 856              	.L70:
 857              	.LBB4:
 351:main.c        ****            // if(i!=0){
 858              		.loc 1 351 0 discriminator 1
 859 0116 3E46     		mov	r6, r7
 860              	.LVL111:
 861              	.L59:
 862              	.LBE4:
 340:main.c        ****        //find path coordinates
 863              		.loc 1 340 0 discriminator 1
 864 0118 042E     		cmp	r6, #4
 865 011a A3DD     		ble	.L71
ARM GAS  C:\Users\dulan\AppData\Local\Temp\cc0WAahS.s 			page 23


 866              	.L72:
 867 011c FEE7     		b	.L72
 868              	.L77:
 869 011e 00BF     		.align	2
 870              	.L76:
 871 0120 00000000 		.word	isr_1_handler
 872 0124 00000000 		.word	.LANCHOR1
 873 0128 00000000 		.word	movementArray
 874              	.LBE2:
 875              		.cfi_endproc
 876              	.LFE73:
 877              		.size	main, .-main
 878              		.global	current_state
 879              		.global	startDirectionArray
 880              		.global	food_list
 881              		.comm	comp3_sum,1,1
 882              		.comm	comp2_sum,1,1
 883              		.comm	comp1_sum,1,1
 884              		.comm	comp0_sum,1,1
 885              		.global	isTurning
 886              		.global	count
 887              		.comm	path_length,4,4
 888              		.global	timeInterval_s
 889              		.global	wheelCircumference_cm
 890              		.global	CPR
 891              		.data
 892              		.align	3
 893              		.set	.LANCHOR1,. + 0
 894              		.type	food_list, %object
 895              		.size	food_list, 48
 896              	food_list:
 897 0000 06000000 		.word	6
 898 0004 05000000 		.word	5
 899 0008 03000000 		.word	3
 900 000c 0F000000 		.word	15
 901 0010 09000000 		.word	9
 902 0014 11000000 		.word	17
 903 0018 01000000 		.word	1
 904 001c 03000000 		.word	3
 905 0020 07000000 		.word	7
 906 0024 0F000000 		.word	15
 907 0028 0D000000 		.word	13
 908 002c 09000000 		.word	9
 909              		.type	startDirectionArray, %object
 910              		.size	startDirectionArray, 5
 911              	startDirectionArray:
 912 0030 02       		.byte	2
 913 0031 03       		.byte	3
 914 0032 03       		.byte	3
 915 0033 01       		.byte	1
 916 0034 01       		.byte	1
 917              		.type	current_state, %object
 918              		.size	current_state, 1
 919              	current_state:
 920 0035 03       		.byte	3
 921 0036 0000     		.space	2
 922              		.type	timeInterval_s, %object
ARM GAS  C:\Users\dulan\AppData\Local\Temp\cc0WAahS.s 			page 24


 923              		.size	timeInterval_s, 8
 924              	timeInterval_s:
 925 0038 0C022B87 		.word	-2027224564
 926 003c 16D92540 		.word	1076222230
 927              		.type	wheelCircumference_cm, %object
 928              		.size	wheelCircumference_cm, 4
 929              	wheelCircumference_cm:
 930 0040 7201A241 		.word	1101136242
 931              		.type	CPR, %object
 932              		.size	CPR, 4
 933              	CPR:
 934 0044 E4000000 		.word	228
 935              		.bss
 936              		.align	2
 937              		.set	.LANCHOR0,. + 0
 938              		.type	count, %object
 939              		.size	count, 4
 940              	count:
 941 0000 00000000 		.space	4
 942              		.type	isTurning, %object
 943              		.size	isTurning, 1
 944              	isTurning:
 945 0004 00       		.space	1
 946              		.text
 947              	.Letext0:
 948              		.file 2 "c:\\program files (x86)\\cypress\\psoc creator\\4.4\\psoc creator\\import\\gnu\\arm\\5.4.
 949              		.file 3 "c:\\program files (x86)\\cypress\\psoc creator\\4.4\\psoc creator\\import\\gnu\\arm\\5.4.
 950              		.file 4 "Generated_Source\\PSoC5/cytypes.h"
 951              		.file 5 "program.h"
 952              		.file 6 "Generated_Source\\PSoC5/core_cm3.h"
 953              		.file 7 "Generated_Source\\PSoC5/Comp_0.h"
 954              		.file 8 "Generated_Source\\PSoC5/Comp_1.h"
 955              		.file 9 "Generated_Source\\PSoC5/Comp_2.h"
 956              		.file 10 "Generated_Source\\PSoC5/Comp_3.h"
 957              		.file 11 "Generated_Source\\PSoC5/Timer_1.h"
 958              		.file 12 "Generated_Source\\PSoC5/PWM_1.h"
 959              		.file 13 "Generated_Source\\PSoC5/PWM_2.h"
 960              		.file 14 "Generated_Source\\PSoC5/QuadDec_M2.h"
 961              		.file 15 "Generated_Source\\PSoC5/QuadDec_M1.h"
 962              		.file 16 "Generated_Source\\PSoC5/Sout_R.h"
 963              		.file 17 "Generated_Source\\PSoC5/Sout_L.h"
 964              		.file 18 "Generated_Source\\PSoC5/LED_1.h"
 965              		.file 19 "Generated_Source\\PSoC5/LED_2.h"
 966              		.file 20 "Generated_Source\\PSoC5/LED_3.h"
 967              		.file 21 "Generated_Source\\PSoC5/isr_1.h"
 968              		.file 22 "Generated_Source\\PSoC5/Clock_PWM.h"