ARM GAS  C:\Users\dulan\AppData\Local\Temp\ccL60aIT.s 			page 1


   1              		.syntax unified
   2              		.cpu cortex-m3
   3              		.fpu softvfp
   4              		.eabi_attribute 20, 1
   5              		.eabi_attribute 21, 1
   6              		.eabi_attribute 23, 3
   7              		.eabi_attribute 24, 1
   8              		.eabi_attribute 25, 1
   9              		.eabi_attribute 26, 1
  10              		.eabi_attribute 30, 1
  11              		.eabi_attribute 34, 1
  12              		.eabi_attribute 18, 4
  13              		.thumb
  14              		.syntax unified
  15              		.file	"main.c"
  16              		.text
  17              	.Ltext0:
  18              		.cfi_sections	.debug_frame
  19              		.section	.text.isr_1_handler,"ax",%progbits
  20              		.align	2
  21              		.global	isr_1_handler
  22              		.thumb
  23              		.thumb_func
  24              		.type	isr_1_handler, %function
  25              	isr_1_handler:
  26              	.LFB64:
  27              		.file 1 "main.c"
   1:main.c        **** /* ========================================
   2:main.c        ****  *
   3:main.c        ****  * Copyright YOUR COMPANY, THE YEAR
   4:main.c        ****  * All Rights Reserved
   5:main.c        ****  * UNPUBLISHED, LICENSED SOFTWARE.
   6:main.c        ****  *
   7:main.c        ****  * CONFIDENTIAL AND PROPRIETARY INFORMATION
   8:main.c        ****  * WHICH IS THE PROPERTY OF your company.
   9:main.c        ****  *
  10:main.c        ****  * ========================================
  11:main.c        **** */
  12:main.c        **** /* ========================================
  13:main.c        ****  * Fully working code: 
  14:main.c        ****  * PWM      : 
  15:main.c        ****  * Encoder  : 
  16:main.c        ****  * ADC      :
  17:main.c        ****  * USB      : port displays speed and position.
  18:main.c        ****  * CMD: "PW xx"
  19:main.c        ****  * Copyright Univ of Auckland, 2016
  20:main.c        ****  * All Rights Reserved
  21:main.c        ****  * UNPUBLISHED, LICENSED SOFTWARE.
  22:main.c        ****  *
  23:main.c        ****  * CONFIDENTIAL AND PROPRIETARY INFORMATION
  24:main.c        ****  * WHICH IS THE PROPERTY OF Univ of Auckland.
  25:main.c        ****  *
  26:main.c        ****  * ========================================
  27:main.c        **** */
  28:main.c        **** //WORKS 90% of the time
  29:main.c        **** #include <stdio.h>
  30:main.c        **** #include <string.h>
ARM GAS  C:\Users\dulan\AppData\Local\Temp\ccL60aIT.s 			page 2


  31:main.c        **** #include <stdlib.h>
  32:main.c        **** #include <project.h>
  33:main.c        **** #include <stdbool.h>
  34:main.c        **** #include <math.h>
  35:main.c        **** #include <cytypes.h> 
  36:main.c        **** #include "Astar.h"
  37:main.c        **** 
  38:main.c        **** //distance calculation paras
  39:main.c        **** int32 CPR = 228;  // Adjusted for 4x resolution(228/4)
  40:main.c        **** float wheelCircumference_cm = (M_PI*64.46)/10;// wheel circumference wheelDiameter_mm = 64.46)
  41:main.c        **** double timeInterval_s = 10.924;  // Effective time interval( (timer period )2.731*4)
  42:main.c        **** int path_length;
  43:main.c        **** int counter=1;
  44:main.c        **** 
  45:main.c        **** //define wheel speeds
  46:main.c        **** #define PWM_PERIOD 100
  47:main.c        **** #define PWM_STRAIGHT_L 131
  48:main.c        **** #define PWM_STRAIGHT_R 130
  49:main.c        **** #define PWM_STOP 100
  50:main.c        **** #define ENC_VALUE_PER_CM 11.3
  51:main.c        **** 
  52:main.c        **** int path_coordinates[MAX_PATH_LENGTH][2];
  53:main.c        **** // Define directions
  54:main.c        **** typedef enum {
  55:main.c        ****     S,N,E,W
  56:main.c        **** } Direction;
  57:main.c        **** 
  58:main.c        **** // Define states for the state machine
  59:main.c        **** typedef enum {
  60:main.c        ****     GO_STRAIGHT,
  61:main.c        ****     TURN_LEFT,
  62:main.c        ****     TURN_RIGHT,
  63:main.c        ****     STOP
  64:main.c        **** } RobotState;
  65:main.c        **** 
  66:main.c        **** RobotState current_state = STOP;// intialse state
  67:main.c        **** 
  68:main.c        **** uint32 count = 0;
  69:main.c        **** bool isTurning=false;
  70:main.c        **** 
  71:main.c        **** uint8 comp0_sum;
  72:main.c        **** uint8 comp1_sum;
  73:main.c        **** uint8 comp2_sum;
  74:main.c        **** uint8 comp3_sum;
  75:main.c        **** 
  76:main.c        **** CY_ISR(isr_1_handler) {
  28              		.loc 1 76 0
  29              		.cfi_startproc
  30              		@ args = 0, pretend = 0, frame = 0
  31              		@ frame_needed = 0, uses_anonymous_args = 0
  32 0000 08B5     		push	{r3, lr}
  33              		.cfi_def_cfa_offset 8
  34              		.cfi_offset 3, -8
  35              		.cfi_offset 14, -4
  77:main.c        ****         //every 1ms 
  78:main.c        ****     
  79:main.c        ****     //sum up comp values every 1ms
ARM GAS  C:\Users\dulan\AppData\Local\Temp\ccL60aIT.s 			page 3


  80:main.c        ****     comp0_sum+=Comp_0_GetCompare();
  36              		.loc 1 80 0
  37 0002 FFF7FEFF 		bl	Comp_0_GetCompare
  38              	.LVL0:
  39 0006 164A     		ldr	r2, .L4
  40 0008 1378     		ldrb	r3, [r2]	@ zero_extendqisi2
  41 000a 1844     		add	r0, r0, r3
  42 000c 1070     		strb	r0, [r2]
  81:main.c        ****     comp1_sum+=Comp_1_GetCompare();
  43              		.loc 1 81 0
  44 000e FFF7FEFF 		bl	Comp_1_GetCompare
  45              	.LVL1:
  46 0012 144A     		ldr	r2, .L4+4
  47 0014 1378     		ldrb	r3, [r2]	@ zero_extendqisi2
  48 0016 1844     		add	r0, r0, r3
  49 0018 1070     		strb	r0, [r2]
  82:main.c        ****     comp2_sum+=Comp_2_GetCompare();
  50              		.loc 1 82 0
  51 001a FFF7FEFF 		bl	Comp_2_GetCompare
  52              	.LVL2:
  53 001e 124A     		ldr	r2, .L4+8
  54 0020 1378     		ldrb	r3, [r2]	@ zero_extendqisi2
  55 0022 1844     		add	r0, r0, r3
  56 0024 1070     		strb	r0, [r2]
  83:main.c        ****     comp3_sum+=Comp_3_GetCompare();
  57              		.loc 1 83 0
  58 0026 FFF7FEFF 		bl	Comp_3_GetCompare
  59              	.LVL3:
  60 002a 104A     		ldr	r2, .L4+12
  61 002c 1378     		ldrb	r3, [r2]	@ zero_extendqisi2
  62 002e 1844     		add	r0, r0, r3
  63 0030 1070     		strb	r0, [r2]
  84:main.c        ****       
  85:main.c        ****     if(count==8){
  64              		.loc 1 85 0
  65 0032 0F4B     		ldr	r3, .L4+16
  66 0034 1B68     		ldr	r3, [r3]
  67 0036 082B     		cmp	r3, #8
  68 0038 0AD1     		bne	.L2
  86:main.c        ****         //reset to check again every 8ms
  87:main.c        ****         comp0_sum=0;
  69              		.loc 1 87 0
  70 003a 0023     		movs	r3, #0
  71 003c 084A     		ldr	r2, .L4
  72 003e 1370     		strb	r3, [r2]
  88:main.c        ****         comp1_sum=0;
  73              		.loc 1 88 0
  74 0040 084A     		ldr	r2, .L4+4
  75 0042 1370     		strb	r3, [r2]
  89:main.c        ****         comp2_sum=0;
  76              		.loc 1 89 0
  77 0044 084A     		ldr	r2, .L4+8
  78 0046 1370     		strb	r3, [r2]
  90:main.c        ****         comp3_sum=0;
  79              		.loc 1 90 0
  80 0048 084A     		ldr	r2, .L4+12
  81 004a 1370     		strb	r3, [r2]
ARM GAS  C:\Users\dulan\AppData\Local\Temp\ccL60aIT.s 			page 4


  91:main.c        ****         count=0;
  82              		.loc 1 91 0
  83 004c 084A     		ldr	r2, .L4+16
  84 004e 1360     		str	r3, [r2]
  85              	.L2:
  92:main.c        ****     }
  93:main.c        ****    
  94:main.c        ****     count++;
  86              		.loc 1 94 0
  87 0050 074A     		ldr	r2, .L4+16
  88 0052 1368     		ldr	r3, [r2]
  89 0054 0133     		adds	r3, r3, #1
  90 0056 1360     		str	r3, [r2]
  95:main.c        ****     Timer_1_ReadStatusRegister();
  91              		.loc 1 95 0
  92 0058 FFF7FEFF 		bl	Timer_1_ReadStatusRegister
  93              	.LVL4:
  94 005c 08BD     		pop	{r3, pc}
  95              	.L5:
  96 005e 00BF     		.align	2
  97              	.L4:
  98 0060 00000000 		.word	comp0_sum
  99 0064 00000000 		.word	comp1_sum
 100 0068 00000000 		.word	comp2_sum
 101 006c 00000000 		.word	comp3_sum
 102 0070 00000000 		.word	.LANCHOR0
 103              		.cfi_endproc
 104              	.LFE64:
 105              		.size	isr_1_handler, .-isr_1_handler
 106              		.section	.text.stop,"ax",%progbits
 107              		.align	2
 108              		.global	stop
 109              		.thumb
 110              		.thumb_func
 111              		.type	stop, %function
 112              	stop:
 113              	.LFB65:
  96:main.c        **** }
  97:main.c        **** 
  98:main.c        **** void stop(){
 114              		.loc 1 98 0
 115              		.cfi_startproc
 116              		@ args = 0, pretend = 0, frame = 0
 117              		@ frame_needed = 0, uses_anonymous_args = 0
 118 0000 08B5     		push	{r3, lr}
 119              		.cfi_def_cfa_offset 8
 120              		.cfi_offset 3, -8
 121              		.cfi_offset 14, -4
  99:main.c        ****     PWM_1_WriteCompare(50);
 122              		.loc 1 99 0
 123 0002 3220     		movs	r0, #50
 124 0004 FFF7FEFF 		bl	PWM_1_WriteCompare
 125              	.LVL5:
 100:main.c        ****     PWM_2_WriteCompare(50);
 126              		.loc 1 100 0
 127 0008 3220     		movs	r0, #50
 128 000a FFF7FEFF 		bl	PWM_2_WriteCompare
ARM GAS  C:\Users\dulan\AppData\Local\Temp\ccL60aIT.s 			page 5


 129              	.LVL6:
 130 000e 08BD     		pop	{r3, pc}
 131              		.cfi_endproc
 132              	.LFE65:
 133              		.size	stop, .-stop
 134              		.section	.text.turnLeft,"ax",%progbits
 135              		.align	2
 136              		.global	turnLeft
 137              		.thumb
 138              		.thumb_func
 139              		.type	turnLeft, %function
 140              	turnLeft:
 141              	.LFB66:
 101:main.c        **** }
 102:main.c        **** 
 103:main.c        **** void turnLeft(){
 142              		.loc 1 103 0
 143              		.cfi_startproc
 144              		@ args = 0, pretend = 0, frame = 0
 145              		@ frame_needed = 0, uses_anonymous_args = 0
 146 0000 08B5     		push	{r3, lr}
 147              		.cfi_def_cfa_offset 8
 148              		.cfi_offset 3, -8
 149              		.cfi_offset 14, -4
 104:main.c        ****     PWM_1_WriteCompare(68);
 150              		.loc 1 104 0
 151 0002 4420     		movs	r0, #68
 152 0004 FFF7FEFF 		bl	PWM_1_WriteCompare
 153              	.LVL7:
 105:main.c        ****     PWM_2_WriteCompare(33);
 154              		.loc 1 105 0
 155 0008 2120     		movs	r0, #33
 156 000a FFF7FEFF 		bl	PWM_2_WriteCompare
 157              	.LVL8:
 158              	.L9:
 106:main.c        **** //    CyDelay(350);
 107:main.c        ****     while(Sout_L_Read()==0){//wait while left is on line
 159              		.loc 1 107 0 discriminator 1
 160 000e FFF7FEFF 		bl	Sout_L_Read
 161              	.LVL9:
 162 0012 0028     		cmp	r0, #0
 163 0014 FBD0     		beq	.L9
 164              	.L10:
 108:main.c        ****        ;;
 109:main.c        ****     }
 110:main.c        ****     while(!(Sout_M1_Read()==0 &&Sout_M1_Read()==0)){//wait while middle sensors off line
 165              		.loc 1 110 0 discriminator 3
 166 0016 FFF7FEFF 		bl	Sout_M1_Read
 167              	.LVL10:
 168 001a 0028     		cmp	r0, #0
 169 001c FBD1     		bne	.L10
 170              		.loc 1 110 0 is_stmt 0 discriminator 2
 171 001e FFF7FEFF 		bl	Sout_M1_Read
 172              	.LVL11:
 173 0022 0028     		cmp	r0, #0
 174 0024 F7D1     		bne	.L10
 111:main.c        ****        ;;
ARM GAS  C:\Users\dulan\AppData\Local\Temp\ccL60aIT.s 			page 6


 112:main.c        ****     }
 113:main.c        ****     isTurning=false;
 175              		.loc 1 113 0 is_stmt 1
 176 0026 0022     		movs	r2, #0
 177 0028 044B     		ldr	r3, .L13
 178 002a 1A71     		strb	r2, [r3, #4]
 114:main.c        ****     PWM_1_WriteCompare(65);
 179              		.loc 1 114 0
 180 002c 4120     		movs	r0, #65
 181 002e FFF7FEFF 		bl	PWM_1_WriteCompare
 182              	.LVL12:
 115:main.c        ****     PWM_2_WriteCompare(66);
 183              		.loc 1 115 0
 184 0032 4220     		movs	r0, #66
 185 0034 FFF7FEFF 		bl	PWM_2_WriteCompare
 186              	.LVL13:
 187 0038 08BD     		pop	{r3, pc}
 188              	.L14:
 189 003a 00BF     		.align	2
 190              	.L13:
 191 003c 00000000 		.word	.LANCHOR0
 192              		.cfi_endproc
 193              	.LFE66:
 194              		.size	turnLeft, .-turnLeft
 195              		.section	.text.turnRight,"ax",%progbits
 196              		.align	2
 197              		.global	turnRight
 198              		.thumb
 199              		.thumb_func
 200              		.type	turnRight, %function
 201              	turnRight:
 202              	.LFB67:
 116:main.c        **** 
 117:main.c        **** }
 118:main.c        **** 
 119:main.c        **** void turnRight(){
 203              		.loc 1 119 0
 204              		.cfi_startproc
 205              		@ args = 0, pretend = 0, frame = 0
 206              		@ frame_needed = 0, uses_anonymous_args = 0
 207 0000 08B5     		push	{r3, lr}
 208              		.cfi_def_cfa_offset 8
 209              		.cfi_offset 3, -8
 210              		.cfi_offset 14, -4
 120:main.c        ****     PWM_1_WriteCompare(33);
 211              		.loc 1 120 0
 212 0002 2120     		movs	r0, #33
 213 0004 FFF7FEFF 		bl	PWM_1_WriteCompare
 214              	.LVL14:
 121:main.c        ****     PWM_2_WriteCompare(68);
 215              		.loc 1 121 0
 216 0008 4420     		movs	r0, #68
 217 000a FFF7FEFF 		bl	PWM_2_WriteCompare
 218              	.LVL15:
 219              	.L16:
 122:main.c        ****     while(Sout_R_Read()==0){//wait while right is on line
 220              		.loc 1 122 0 discriminator 1
ARM GAS  C:\Users\dulan\AppData\Local\Temp\ccL60aIT.s 			page 7


 221 000e FFF7FEFF 		bl	Sout_R_Read
 222              	.LVL16:
 223 0012 0028     		cmp	r0, #0
 224 0014 FBD0     		beq	.L16
 225              	.L17:
 123:main.c        ****        ;;
 124:main.c        ****     }
 125:main.c        ****     while(!(Sout_M1_Read()==0 &&Sout_M1_Read()==0)){//wait while middle sensors off line
 226              		.loc 1 125 0 discriminator 3
 227 0016 FFF7FEFF 		bl	Sout_M1_Read
 228              	.LVL17:
 229 001a 0028     		cmp	r0, #0
 230 001c FBD1     		bne	.L17
 231              		.loc 1 125 0 is_stmt 0 discriminator 2
 232 001e FFF7FEFF 		bl	Sout_M1_Read
 233              	.LVL18:
 234 0022 0028     		cmp	r0, #0
 235 0024 F7D1     		bne	.L17
 126:main.c        ****        ;;
 127:main.c        ****     }
 128:main.c        ****     isTurning=false;
 236              		.loc 1 128 0 is_stmt 1
 237 0026 0022     		movs	r2, #0
 238 0028 044B     		ldr	r3, .L20
 239 002a 1A71     		strb	r2, [r3, #4]
 129:main.c        ****     PWM_1_WriteCompare(65);
 240              		.loc 1 129 0
 241 002c 4120     		movs	r0, #65
 242 002e FFF7FEFF 		bl	PWM_1_WriteCompare
 243              	.LVL19:
 130:main.c        ****     PWM_2_WriteCompare(66);
 244              		.loc 1 130 0
 245 0032 4220     		movs	r0, #66
 246 0034 FFF7FEFF 		bl	PWM_2_WriteCompare
 247              	.LVL20:
 248 0038 08BD     		pop	{r3, pc}
 249              	.L21:
 250 003a 00BF     		.align	2
 251              	.L20:
 252 003c 00000000 		.word	.LANCHOR0
 253              		.cfi_endproc
 254              	.LFE67:
 255              		.size	turnRight, .-turnRight
 256              		.section	.text.reverse,"ax",%progbits
 257              		.align	2
 258              		.global	reverse
 259              		.thumb
 260              		.thumb_func
 261              		.type	reverse, %function
 262              	reverse:
 263              	.LFB68:
 131:main.c        **** }
 132:main.c        **** 
 133:main.c        **** 
 134:main.c        **** void reverse(){
 264              		.loc 1 134 0
 265              		.cfi_startproc
ARM GAS  C:\Users\dulan\AppData\Local\Temp\ccL60aIT.s 			page 8


 266              		@ args = 0, pretend = 0, frame = 0
 267              		@ frame_needed = 0, uses_anonymous_args = 0
 268 0000 08B5     		push	{r3, lr}
 269              		.cfi_def_cfa_offset 8
 270              		.cfi_offset 3, -8
 271              		.cfi_offset 14, -4
 135:main.c        ****     PWM_1_WriteCompare(30);
 272              		.loc 1 135 0
 273 0002 1E20     		movs	r0, #30
 274 0004 FFF7FEFF 		bl	PWM_1_WriteCompare
 275              	.LVL21:
 136:main.c        ****     PWM_2_WriteCompare(30);
 276              		.loc 1 136 0
 277 0008 1E20     		movs	r0, #30
 278 000a FFF7FEFF 		bl	PWM_2_WriteCompare
 279              	.LVL22:
 280 000e 08BD     		pop	{r3, pc}
 281              		.cfi_endproc
 282              	.LFE68:
 283              		.size	reverse, .-reverse
 284              		.global	__aeabi_i2d
 285              		.global	__aeabi_dmul
 286              		.global	__aeabi_dcmplt
 287              		.section	.text.goStraight_cm,"ax",%progbits
 288              		.align	2
 289              		.global	goStraight_cm
 290              		.thumb
 291              		.thumb_func
 292              		.type	goStraight_cm, %function
 293              	goStraight_cm:
 294              	.LFB69:
 137:main.c        **** }
 138:main.c        **** 
 139:main.c        **** void goStraight_cm(int distance){
 295              		.loc 1 139 0
 296              		.cfi_startproc
 297              		@ args = 0, pretend = 0, frame = 0
 298              		@ frame_needed = 0, uses_anonymous_args = 0
 299              	.LVL23:
 300 0000 70B5     		push	{r4, r5, r6, lr}
 301              		.cfi_def_cfa_offset 16
 302              		.cfi_offset 4, -16
 303              		.cfi_offset 5, -12
 304              		.cfi_offset 6, -8
 305              		.cfi_offset 14, -4
 306 0002 0646     		mov	r6, r0
 140:main.c        ****     
 141:main.c        ****     QuadDec_M1_SetCounter(0);
 307              		.loc 1 141 0
 308 0004 0020     		movs	r0, #0
 309              	.LVL24:
 310 0006 FFF7FEFF 		bl	QuadDec_M1_SetCounter
 311              	.LVL25:
 142:main.c        ****     
 143:main.c        ****     while(QuadDec_M1_GetCounter()<(distance*ENC_VALUE_PER_CM)){
 312              		.loc 1 143 0
 313 000a 24E0     		b	.L25
ARM GAS  C:\Users\dulan\AppData\Local\Temp\ccL60aIT.s 			page 9


 314              	.L30:
 144:main.c        ****             //comp0==>middle left comp1==>middle right
 145:main.c        ****         if(comp0_sum>0 && comp1_sum==0){//s_ML out of line
 315              		.loc 1 145 0
 316 000c 204B     		ldr	r3, .L32+8
 317 000e 1B78     		ldrb	r3, [r3]	@ zero_extendqisi2
 318 0010 4BB1     		cbz	r3, .L26
 319              		.loc 1 145 0 is_stmt 0 discriminator 1
 320 0012 204A     		ldr	r2, .L32+12
 321 0014 1278     		ldrb	r2, [r2]	@ zero_extendqisi2
 322 0016 32B9     		cbnz	r2, .L26
 146:main.c        ****             PWM_2_WriteCompare(PWM_2_ReadCompare() +1);
 323              		.loc 1 146 0 is_stmt 1
 324 0018 FFF7FEFF 		bl	PWM_2_ReadCompare
 325              	.LVL26:
 326 001c 0130     		adds	r0, r0, #1
 327 001e C0B2     		uxtb	r0, r0
 328 0020 FFF7FEFF 		bl	PWM_2_WriteCompare
 329              	.LVL27:
 330 0024 17E0     		b	.L25
 331              	.L26:
 147:main.c        ****         }else if(comp0_sum==0 && comp1_sum>0){//s_MR out of line
 332              		.loc 1 147 0
 333 0026 4BB9     		cbnz	r3, .L28
 334              		.loc 1 147 0 is_stmt 0 discriminator 1
 335 0028 1A4A     		ldr	r2, .L32+12
 336 002a 1278     		ldrb	r2, [r2]	@ zero_extendqisi2
 337 002c 32B1     		cbz	r2, .L28
 148:main.c        ****             PWM_1_WriteCompare(PWM_1_ReadCompare() +1);
 338              		.loc 1 148 0 is_stmt 1
 339 002e FFF7FEFF 		bl	PWM_1_ReadCompare
 340              	.LVL28:
 341 0032 0130     		adds	r0, r0, #1
 342 0034 C0B2     		uxtb	r0, r0
 343 0036 FFF7FEFF 		bl	PWM_1_WriteCompare
 344              	.LVL29:
 345 003a 0CE0     		b	.L25
 346              	.L28:
 149:main.c        ****             
 150:main.c        ****         }else if(comp1_sum==0 && comp0_sum==0){
 347              		.loc 1 150 0
 348 003c 154A     		ldr	r2, .L32+12
 349 003e 1278     		ldrb	r2, [r2]	@ zero_extendqisi2
 350 0040 3AB9     		cbnz	r2, .L29
 351              		.loc 1 150 0 is_stmt 0 discriminator 1
 352 0042 33B9     		cbnz	r3, .L29
 151:main.c        ****             PWM_1_WriteCompare(65);
 353              		.loc 1 151 0 is_stmt 1
 354 0044 4120     		movs	r0, #65
 355 0046 FFF7FEFF 		bl	PWM_1_WriteCompare
 356              	.LVL30:
 152:main.c        ****             PWM_2_WriteCompare(66);
 357              		.loc 1 152 0
 358 004a 4220     		movs	r0, #66
 359 004c FFF7FEFF 		bl	PWM_2_WriteCompare
 360              	.LVL31:
 361 0050 01E0     		b	.L25
ARM GAS  C:\Users\dulan\AppData\Local\Temp\ccL60aIT.s 			page 10


 362              	.L29:
 153:main.c        ****         }else{
 154:main.c        ****             reverse();
 363              		.loc 1 154 0
 364 0052 FFF7FEFF 		bl	reverse
 365              	.LVL32:
 366              	.L25:
 143:main.c        ****             //comp0==>middle left comp1==>middle right
 367              		.loc 1 143 0
 368 0056 FFF7FEFF 		bl	QuadDec_M1_GetCounter
 369              	.LVL33:
 370 005a FFF7FEFF 		bl	__aeabi_i2d
 371              	.LVL34:
 372 005e 0446     		mov	r4, r0
 373 0060 0D46     		mov	r5, r1
 374 0062 3046     		mov	r0, r6
 375 0064 FFF7FEFF 		bl	__aeabi_i2d
 376              	.LVL35:
 377 0068 07A3     		adr	r3, .L32
 378 006a D3E90023 		ldrd	r2, [r3]
 379 006e FFF7FEFF 		bl	__aeabi_dmul
 380              	.LVL36:
 381 0072 0246     		mov	r2, r0
 382 0074 0B46     		mov	r3, r1
 383 0076 2046     		mov	r0, r4
 384 0078 2946     		mov	r1, r5
 385 007a FFF7FEFF 		bl	__aeabi_dcmplt
 386              	.LVL37:
 387 007e 0028     		cmp	r0, #0
 388 0080 C4D1     		bne	.L30
 155:main.c        ****         }
 156:main.c        ****     }
 157:main.c        ****     stop();
 389              		.loc 1 157 0
 390 0082 FFF7FEFF 		bl	stop
 391              	.LVL38:
 392 0086 70BD     		pop	{r4, r5, r6, pc}
 393              	.LVL39:
 394              	.L33:
 395              		.align	3
 396              	.L32:
 397 0088 9A999999 		.word	-1717986918
 398 008c 99992640 		.word	1076271513
 399 0090 00000000 		.word	comp0_sum
 400 0094 00000000 		.word	comp1_sum
 401              		.cfi_endproc
 402              	.LFE69:
 403              		.size	goStraight_cm, .-goStraight_cm
 404              		.section	.text.goStraight,"ax",%progbits
 405              		.align	2
 406              		.global	goStraight
 407              		.thumb
 408              		.thumb_func
 409              		.type	goStraight, %function
 410              	goStraight:
 411              	.LFB70:
 158:main.c        ****     
ARM GAS  C:\Users\dulan\AppData\Local\Temp\ccL60aIT.s 			page 11


 159:main.c        **** }
 160:main.c        **** 
 161:main.c        **** void goStraight(){
 412              		.loc 1 161 0
 413              		.cfi_startproc
 414              		@ args = 0, pretend = 0, frame = 0
 415              		@ frame_needed = 0, uses_anonymous_args = 0
 416 0000 08B5     		push	{r3, lr}
 417              		.cfi_def_cfa_offset 8
 418              		.cfi_offset 3, -8
 419              		.cfi_offset 14, -4
 162:main.c        ****     
 163:main.c        ****         //comp0==>middle left comp1==>middle right
 164:main.c        ****     if(comp0_sum>0 && comp1_sum==0){//s_ML out of line
 420              		.loc 1 164 0
 421 0002 134B     		ldr	r3, .L40
 422 0004 1B78     		ldrb	r3, [r3]	@ zero_extendqisi2
 423 0006 4BB1     		cbz	r3, .L35
 424              		.loc 1 164 0 is_stmt 0 discriminator 1
 425 0008 124A     		ldr	r2, .L40+4
 426 000a 1278     		ldrb	r2, [r2]	@ zero_extendqisi2
 427 000c 32B9     		cbnz	r2, .L35
 165:main.c        ****         PWM_2_WriteCompare(PWM_2_ReadCompare() +1);
 428              		.loc 1 165 0 is_stmt 1
 429 000e FFF7FEFF 		bl	PWM_2_ReadCompare
 430              	.LVL40:
 431 0012 0130     		adds	r0, r0, #1
 432 0014 C0B2     		uxtb	r0, r0
 433 0016 FFF7FEFF 		bl	PWM_2_WriteCompare
 434              	.LVL41:
 435 001a 08BD     		pop	{r3, pc}
 436              	.L35:
 166:main.c        ****     }else if(comp0_sum==0 && comp1_sum>0){//s_MR out of line
 437              		.loc 1 166 0
 438 001c 4BB9     		cbnz	r3, .L37
 439              		.loc 1 166 0 is_stmt 0 discriminator 1
 440 001e 0D4A     		ldr	r2, .L40+4
 441 0020 1278     		ldrb	r2, [r2]	@ zero_extendqisi2
 442 0022 32B1     		cbz	r2, .L37
 167:main.c        ****         PWM_1_WriteCompare(PWM_1_ReadCompare() +1);
 443              		.loc 1 167 0 is_stmt 1
 444 0024 FFF7FEFF 		bl	PWM_1_ReadCompare
 445              	.LVL42:
 446 0028 0130     		adds	r0, r0, #1
 447 002a C0B2     		uxtb	r0, r0
 448 002c FFF7FEFF 		bl	PWM_1_WriteCompare
 449              	.LVL43:
 450 0030 08BD     		pop	{r3, pc}
 451              	.L37:
 168:main.c        ****         
 169:main.c        ****     }else if(comp1_sum==0 && comp0_sum==0){
 452              		.loc 1 169 0
 453 0032 084A     		ldr	r2, .L40+4
 454 0034 1278     		ldrb	r2, [r2]	@ zero_extendqisi2
 455 0036 3AB9     		cbnz	r2, .L38
 456              		.loc 1 169 0 is_stmt 0 discriminator 1
 457 0038 33B9     		cbnz	r3, .L38
ARM GAS  C:\Users\dulan\AppData\Local\Temp\ccL60aIT.s 			page 12


 170:main.c        ****         PWM_1_WriteCompare(68);
 458              		.loc 1 170 0 is_stmt 1
 459 003a 4420     		movs	r0, #68
 460 003c FFF7FEFF 		bl	PWM_1_WriteCompare
 461              	.LVL44:
 171:main.c        ****         PWM_2_WriteCompare(69);
 462              		.loc 1 171 0
 463 0040 4520     		movs	r0, #69
 464 0042 FFF7FEFF 		bl	PWM_2_WriteCompare
 465              	.LVL45:
 466 0046 08BD     		pop	{r3, pc}
 467              	.L38:
 172:main.c        ****     }else{
 173:main.c        ****         reverse();
 468              		.loc 1 173 0
 469 0048 FFF7FEFF 		bl	reverse
 470              	.LVL46:
 471 004c 08BD     		pop	{r3, pc}
 472              	.L41:
 473 004e 00BF     		.align	2
 474              	.L40:
 475 0050 00000000 		.word	comp0_sum
 476 0054 00000000 		.word	comp1_sum
 477              		.cfi_endproc
 478              	.LFE70:
 479              		.size	goStraight, .-goStraight
 480              		.section	.text.followPath,"ax",%progbits
 481              		.align	2
 482              		.global	followPath
 483              		.thumb
 484              		.thumb_func
 485              		.type	followPath, %function
 486              	followPath:
 487              	.LFB71:
 174:main.c        ****     }
 175:main.c        ****     
 176:main.c        ****     
 177:main.c        **** }
 178:main.c        **** 
 179:main.c        **** void followPath(int startX,int startY, int stopX, int stopY){
 488              		.loc 1 179 0
 489              		.cfi_startproc
 490              		@ args = 0, pretend = 0, frame = 0
 491              		@ frame_needed = 0, uses_anonymous_args = 0
 492              		@ link register save eliminated.
 493              	.LVL47:
 494              	.LBB2:
 180:main.c        ****     int currentX,currentY,nextX,nextY,dy,dx;
 181:main.c        ****     currentX=startX;
 182:main.c        ****     currentY=startY;
 183:main.c        ****     
 184:main.c        ****     for(int i=0; i<path_length;i++){
 495              		.loc 1 184 0
 496 0000 0023     		movs	r3, #0
 497              	.LVL48:
 498 0002 00E0     		b	.L43
 499              	.LVL49:
ARM GAS  C:\Users\dulan\AppData\Local\Temp\ccL60aIT.s 			page 13


 500              	.L44:
 501              		.loc 1 184 0 is_stmt 0 discriminator 3
 502 0004 0133     		adds	r3, r3, #1
 503              	.LVL50:
 504              	.L43:
 505              		.loc 1 184 0 discriminator 1
 506 0006 024A     		ldr	r2, .L45
 507 0008 1268     		ldr	r2, [r2]
 508 000a 9342     		cmp	r3, r2
 509 000c FADB     		blt	.L44
 510              	.LBE2:
 185:main.c        ****         nextX=path_coordinates[i][0];
 186:main.c        ****         nextY=path_coordinates[i][1];
 187:main.c        ****         
 188:main.c        ****         dx=nextX-currentX;
 189:main.c        ****         dy=nextY-currentY;
 190:main.c        ****         stopX=path_coordinates[i][0];
 191:main.c        ****         stopY=path_coordinates[i][1];
 192:main.c        ****         
 193:main.c        ****     }
 194:main.c        ****     
 195:main.c        **** }
 511              		.loc 1 195 0 is_stmt 1
 512 000e 7047     		bx	lr
 513              	.L46:
 514              		.align	2
 515              	.L45:
 516 0010 00000000 		.word	path_length
 517              		.cfi_endproc
 518              	.LFE71:
 519              		.size	followPath, .-followPath
 520              		.section	.text.main,"ax",%progbits
 521              		.align	2
 522              		.global	main
 523              		.thumb
 524              		.thumb_func
 525              		.type	main, %function
 526              	main:
 527              	.LFB72:
 196:main.c        **** 
 197:main.c        **** 
 198:main.c        **** 
 199:main.c        **** 
 200:main.c        **** int main(void)
 201:main.c        **** {
 528              		.loc 1 201 0
 529              		.cfi_startproc
 530              		@ Volatile: function does not return.
 531              		@ args = 0, pretend = 0, frame = 0
 532              		@ frame_needed = 0, uses_anonymous_args = 0
 533 0000 08B5     		push	{r3, lr}
 534              		.cfi_def_cfa_offset 8
 535              		.cfi_offset 3, -8
 536              		.cfi_offset 14, -4
 202:main.c        ****     CyGlobalIntEnable; /* Enable global interrupts. */
 537              		.loc 1 202 0
 538              		.syntax unified
ARM GAS  C:\Users\dulan\AppData\Local\Temp\ccL60aIT.s 			page 14


 539              	@ 202 "main.c" 1
 540 0002 62B6     		CPSIE   i
 541              	@ 0 "" 2
 203:main.c        **** 
 204:main.c        ****     /* Place your initialization/startup code here (e.g. MyInst_Start()) */
 205:main.c        ****     Timer_1_Start();
 542              		.loc 1 205 0
 543              		.thumb
 544              		.syntax unified
 545 0004 FFF7FEFF 		bl	Timer_1_Start
 546              	.LVL51:
 206:main.c        ****     
 207:main.c        ****     isr_1_StartEx(isr_1_handler);
 547              		.loc 1 207 0
 548 0008 2048     		ldr	r0, .L54
 549 000a FFF7FEFF 		bl	isr_1_StartEx
 550              	.LVL52:
 208:main.c        ****     
 209:main.c        ****     //start comparators
 210:main.c        ****     Comp_0_Start();
 551              		.loc 1 210 0
 552 000e FFF7FEFF 		bl	Comp_0_Start
 553              	.LVL53:
 211:main.c        ****     Comp_1_Start();
 554              		.loc 1 211 0
 555 0012 FFF7FEFF 		bl	Comp_1_Start
 556              	.LVL54:
 212:main.c        ****     Comp_2_Start();
 557              		.loc 1 212 0
 558 0016 FFF7FEFF 		bl	Comp_2_Start
 559              	.LVL55:
 213:main.c        ****     Comp_3_Start();
 560              		.loc 1 213 0
 561 001a FFF7FEFF 		bl	Comp_3_Start
 562              	.LVL56:
 214:main.c        ****     
 215:main.c        ****     /*Start PWM Clk*/
 216:main.c        ****     Clock_PWM_Start(); 
 563              		.loc 1 216 0
 564 001e FFF7FEFF 		bl	Clock_PWM_Start
 565              	.LVL57:
 217:main.c        ****     //Start PWM
 218:main.c        ****     PWM_1_Start();
 566              		.loc 1 218 0
 567 0022 FFF7FEFF 		bl	PWM_1_Start
 568              	.LVL58:
 219:main.c        ****     PWM_2_Start();
 569              		.loc 1 219 0
 570 0026 FFF7FEFF 		bl	PWM_2_Start
 571              	.LVL59:
 220:main.c        ****      
 221:main.c        ****     // write comparision int for MC33926 duty cycle must me larger than 10% and less than 90%
 222:main.c        **** 
 223:main.c        ****     
 224:main.c        ****     PWM_1_WritePeriod(100);
 572              		.loc 1 224 0
 573 002a 6420     		movs	r0, #100
ARM GAS  C:\Users\dulan\AppData\Local\Temp\ccL60aIT.s 			page 15


 574 002c FFF7FEFF 		bl	PWM_1_WritePeriod
 575              	.LVL60:
 225:main.c        ****     PWM_2_WritePeriod(100);
 576              		.loc 1 225 0
 577 0030 6420     		movs	r0, #100
 578 0032 FFF7FEFF 		bl	PWM_2_WritePeriod
 579              	.LVL61:
 226:main.c        ****     
 227:main.c        ****     PWM_1_WriteCompare(50);
 580              		.loc 1 227 0
 581 0036 3220     		movs	r0, #50
 582 0038 FFF7FEFF 		bl	PWM_1_WriteCompare
 583              	.LVL62:
 228:main.c        ****     PWM_2_WriteCompare(50);
 584              		.loc 1 228 0
 585 003c 3220     		movs	r0, #50
 586 003e FFF7FEFF 		bl	PWM_2_WriteCompare
 587              	.LVL63:
 229:main.c        ****     QuadDec_M1_Start();
 588              		.loc 1 229 0
 589 0042 FFF7FEFF 		bl	QuadDec_M1_Start
 590              	.LVL64:
 230:main.c        ****     QuadDec_M2_Start();
 591              		.loc 1 230 0
 592 0046 FFF7FEFF 		bl	QuadDec_M2_Start
 593              	.LVL65:
 231:main.c        ****     
 232:main.c        ****     
 233:main.c        **** //**********************************calculate path    
 234:main.c        **** //    int startX = 0, startY = 0;
 235:main.c        **** //    int targetX = 4, targetY = 4;
 236:main.c        **** //
 237:main.c        **** //    Node* endNode = AStar(startX, startY, targetX, targetY);
 238:main.c        **** //
 239:main.c        **** //    // Print the path
 240:main.c        **** //    printPath(endNode);
 241:main.c        **** //**************************************************    
 242:main.c        ****     QuadDec_M1_SetCounter(0);
 594              		.loc 1 242 0
 595 004a 0020     		movs	r0, #0
 596 004c FFF7FEFF 		bl	QuadDec_M1_SetCounter
 597              	.LVL66:
 243:main.c        ****     goStraight_cm(35);
 598              		.loc 1 243 0
 599 0050 2320     		movs	r0, #35
 600 0052 FFF7FEFF 		bl	goStraight_cm
 601              	.LVL67:
 244:main.c        ****     while(Sout_R_Read()!=0) {//wait for right sensor
 602              		.loc 1 244 0
 603 0056 01E0     		b	.L48
 604              	.L49:
 245:main.c        ****        goStraight();
 605              		.loc 1 245 0
 606 0058 FFF7FEFF 		bl	goStraight
 607              	.LVL68:
 608              	.L48:
 244:main.c        ****     while(Sout_R_Read()!=0) {//wait for right sensor
ARM GAS  C:\Users\dulan\AppData\Local\Temp\ccL60aIT.s 			page 16


 609              		.loc 1 244 0
 610 005c FFF7FEFF 		bl	Sout_R_Read
 611              	.LVL69:
 612 0060 0028     		cmp	r0, #0
 613 0062 F9D1     		bne	.L49
 246:main.c        ****     }
 247:main.c        ****     turnRight();
 614              		.loc 1 247 0
 615 0064 FFF7FEFF 		bl	turnRight
 616              	.LVL70:
 248:main.c        ****     goStraight_cm(26);
 617              		.loc 1 248 0
 618 0068 1A20     		movs	r0, #26
 619 006a FFF7FEFF 		bl	goStraight_cm
 620              	.LVL71:
 249:main.c        ****     while(Sout_L_Read()!=0) {//wait for right sensor
 621              		.loc 1 249 0
 622 006e 01E0     		b	.L50
 623              	.L51:
 250:main.c        ****        goStraight();
 624              		.loc 1 250 0
 625 0070 FFF7FEFF 		bl	goStraight
 626              	.LVL72:
 627              	.L50:
 249:main.c        ****     while(Sout_L_Read()!=0) {//wait for right sensor
 628              		.loc 1 249 0
 629 0074 FFF7FEFF 		bl	Sout_L_Read
 630              	.LVL73:
 631 0078 0028     		cmp	r0, #0
 632 007a F9D1     		bne	.L51
 251:main.c        ****     }
 252:main.c        ****     turnLeft();
 633              		.loc 1 252 0
 634 007c FFF7FEFF 		bl	turnLeft
 635              	.LVL74:
 253:main.c        ****     goStraight_cm(10);
 636              		.loc 1 253 0
 637 0080 0A20     		movs	r0, #10
 638 0082 FFF7FEFF 		bl	goStraight_cm
 639              	.LVL75:
 254:main.c        ****     stop();
 640              		.loc 1 254 0
 641 0086 FFF7FEFF 		bl	stop
 642              	.LVL76:
 643              	.L52:
 644 008a FEE7     		b	.L52
 645              	.L55:
 646              		.align	2
 647              	.L54:
 648 008c 00000000 		.word	isr_1_handler
 649              		.cfi_endproc
 650              	.LFE72:
 651              		.size	main, .-main
 652              		.comm	comp3_sum,1,1
 653              		.comm	comp2_sum,1,1
 654              		.comm	comp1_sum,1,1
 655              		.comm	comp0_sum,1,1
ARM GAS  C:\Users\dulan\AppData\Local\Temp\ccL60aIT.s 			page 17


 656              		.global	isTurning
 657              		.global	count
 658              		.global	current_state
 659              		.comm	path_coordinates,200,4
 660              		.global	counter
 661              		.comm	path_length,4,4
 662              		.global	timeInterval_s
 663              		.global	wheelCircumference_cm
 664              		.global	CPR
 665              		.data
 666              		.align	3
 667              		.type	current_state, %object
 668              		.size	current_state, 1
 669              	current_state:
 670 0000 03       		.byte	3
 671 0001 000000   		.space	3
 672              		.type	counter, %object
 673              		.size	counter, 4
 674              	counter:
 675 0004 01000000 		.word	1
 676              		.type	timeInterval_s, %object
 677              		.size	timeInterval_s, 8
 678              	timeInterval_s:
 679 0008 0C022B87 		.word	-2027224564
 680 000c 16D92540 		.word	1076222230
 681              		.type	wheelCircumference_cm, %object
 682              		.size	wheelCircumference_cm, 4
 683              	wheelCircumference_cm:
 684 0010 7201A241 		.word	1101136242
 685              		.type	CPR, %object
 686              		.size	CPR, 4
 687              	CPR:
 688 0014 E4000000 		.word	228
 689              		.bss
 690              		.align	2
 691              		.set	.LANCHOR0,. + 0
 692              		.type	count, %object
 693              		.size	count, 4
 694              	count:
 695 0000 00000000 		.space	4
 696              		.type	isTurning, %object
 697              		.size	isTurning, 1
 698              	isTurning:
 699 0004 00       		.space	1
 700              		.text
 701              	.Letext0:
 702              		.file 2 "c:\\program files (x86)\\cypress\\psoc creator\\4.4\\psoc creator\\import\\gnu\\arm\\5.4.
 703              		.file 3 "c:\\program files (x86)\\cypress\\psoc creator\\4.4\\psoc creator\\import\\gnu\\arm\\5.4.
 704              		.file 4 "Generated_Source\\PSoC5/cytypes.h"
 705              		.file 5 "Generated_Source\\PSoC5/core_cm3.h"
 706              		.file 6 "Generated_Source\\PSoC5/Comp_0.h"
 707              		.file 7 "Generated_Source\\PSoC5/Comp_1.h"
 708              		.file 8 "Generated_Source\\PSoC5/Comp_2.h"
 709              		.file 9 "Generated_Source\\PSoC5/Comp_3.h"
 710              		.file 10 "Generated_Source\\PSoC5/Timer_1.h"
 711              		.file 11 "Generated_Source\\PSoC5/PWM_1.h"
 712              		.file 12 "Generated_Source\\PSoC5/PWM_2.h"
ARM GAS  C:\Users\dulan\AppData\Local\Temp\ccL60aIT.s 			page 18


 713              		.file 13 "Generated_Source\\PSoC5/Sout_L.h"
 714              		.file 14 "Generated_Source\\PSoC5/Sout_M1.h"
 715              		.file 15 "Generated_Source\\PSoC5/Sout_R.h"
 716              		.file 16 "Generated_Source\\PSoC5/QuadDec_M1.h"
 717              		.file 17 "Generated_Source\\PSoC5/isr_1.h"
 718              		.file 18 "Generated_Source\\PSoC5/Clock_PWM.h"
 719              		.file 19 "Generated_Source\\PSoC5/QuadDec_M2.h"